
uChipVgaTetris.elf:     file format elf32-littlearm

Sections:
Idx Name          Size      VMA       LMA       File off  Algn
  0 .text         000196d0  00006000  00006000  00006000  2**2
                  CONTENTS, ALLOC, LOAD, READONLY, CODE
  1 .relocate     00000604  20000010  0001f6d0  00020010  2**4
                  CONTENTS, ALLOC, LOAD, DATA
  2 .bss          00007304  20000640  0001fd00  00020614  2**6
                  ALLOC
  3 .heap         00000004  20007944  00027004  00020614  2**0
                  ALLOC
  4 .stack        00000480  20007948  00027008  00020614  2**0
                  ALLOC
  5 .ARM.attributes 00000028  00000000  00000000  00020614  2**0
                  CONTENTS, READONLY
  6 .comment      00000076  00000000  00000000  0002063c  2**0
                  CONTENTS, READONLY
  7 .debug_frame  0000028c  00000000  00000000  000206b4  2**2
                  CONTENTS, READONLY, DEBUGGING

Disassembly of section .text:

00006000 <exception_table>:
    6000:	c8 7d 00 20 01 61 00 00 fd 60 00 00 fd 60 00 00     .}. .a...`...`..
	...
    602c:	fd 60 00 00 00 00 00 00 00 00 00 00 fd 60 00 00     .`...........`..
    603c:	fd 60 00 00 fd 60 00 00 fd 60 00 00 fd 60 00 00     .`...`...`...`..
    604c:	fd 60 00 00 fd 60 00 00 fd 60 00 00 fd 60 00 00     .`...`...`...`..
    605c:	fd 60 00 00 3d b7 00 00 fd 60 00 00 fd 60 00 00     .`..=....`...`..
    606c:	fd 60 00 00 fd 60 00 00 00 00 00 00 00 00 00 00     .`...`..........
    607c:	fd 60 00 00 51 00 00 20 fd 60 00 00 fd 60 00 00     .`..Q.. .`...`..
    608c:	fd 60 00 00 fd 60 00 00 00 00 00 00 00 00 00 00     .`...`..........
    609c:	fd 60 00 00 fd 60 00 00 fd 60 00 00 fd 60 00 00     .`...`...`...`..
    60ac:	fd 60 00 00 00 00 00 00                             .`......

000060b4 <__do_global_dtors_aux>:
    60b4:	b510      	push	{r4, lr}
    60b6:	4c06      	ldr	r4, [pc, #24]	; (60d0 <__do_global_dtors_aux+0x1c>)
    60b8:	7823      	ldrb	r3, [r4, #0]
    60ba:	2b00      	cmp	r3, #0
    60bc:	d107      	bne.n	60ce <__do_global_dtors_aux+0x1a>
    60be:	4b05      	ldr	r3, [pc, #20]	; (60d4 <__do_global_dtors_aux+0x20>)
    60c0:	2b00      	cmp	r3, #0
    60c2:	d002      	beq.n	60ca <__do_global_dtors_aux+0x16>
    60c4:	4804      	ldr	r0, [pc, #16]	; (60d8 <__do_global_dtors_aux+0x24>)
    60c6:	e000      	b.n	60ca <__do_global_dtors_aux+0x16>
    60c8:	bf00      	nop
    60ca:	2301      	movs	r3, #1
    60cc:	7023      	strb	r3, [r4, #0]
    60ce:	bd10      	pop	{r4, pc}
    60d0:	20000640 	.word	0x20000640
    60d4:	00000000 	.word	0x00000000
    60d8:	0001f6d0 	.word	0x0001f6d0

000060dc <frame_dummy>:
    60dc:	4b04      	ldr	r3, [pc, #16]	; (60f0 <frame_dummy+0x14>)
    60de:	b510      	push	{r4, lr}
    60e0:	2b00      	cmp	r3, #0
    60e2:	d003      	beq.n	60ec <frame_dummy+0x10>
    60e4:	4903      	ldr	r1, [pc, #12]	; (60f4 <frame_dummy+0x18>)
    60e6:	4804      	ldr	r0, [pc, #16]	; (60f8 <frame_dummy+0x1c>)
    60e8:	e000      	b.n	60ec <frame_dummy+0x10>
    60ea:	bf00      	nop
    60ec:	bd10      	pop	{r4, pc}
    60ee:	46c0      	nop			; (mov r8, r8)
    60f0:	00000000 	.word	0x00000000
    60f4:	20000644 	.word	0x20000644
    60f8:	0001f6d0 	.word	0x0001f6d0

000060fc <Dummy_Handler>:
    60fc:	e7fe      	b.n	60fc <Dummy_Handler>
    60fe:	46c0      	nop			; (mov r8, r8)

00006100 <Reset_Handler>:
    6100:	4925      	ldr	r1, [pc, #148]	; (6198 <Reset_Handler+0x98>)
    6102:	4826      	ldr	r0, [pc, #152]	; (619c <Reset_Handler+0x9c>)
    6104:	b5f8      	push	{r3, r4, r5, r6, r7, lr}
    6106:	4281      	cmp	r1, r0
    6108:	d009      	beq.n	611e <Reset_Handler+0x1e>
    610a:	4a25      	ldr	r2, [pc, #148]	; (61a0 <Reset_Handler+0xa0>)
    610c:	4290      	cmp	r0, r2
    610e:	d206      	bcs.n	611e <Reset_Handler+0x1e>
    6110:	3a01      	subs	r2, #1
    6112:	1a12      	subs	r2, r2, r0
    6114:	0892      	lsrs	r2, r2, #2
    6116:	3201      	adds	r2, #1
    6118:	0092      	lsls	r2, r2, #2
    611a:	4b22      	ldr	r3, [pc, #136]	; (61a4 <Reset_Handler+0xa4>)
    611c:	4798      	blx	r3
    611e:	4822      	ldr	r0, [pc, #136]	; (61a8 <Reset_Handler+0xa8>)
    6120:	4a22      	ldr	r2, [pc, #136]	; (61ac <Reset_Handler+0xac>)
    6122:	4290      	cmp	r0, r2
    6124:	d207      	bcs.n	6136 <Reset_Handler+0x36>
    6126:	3a01      	subs	r2, #1
    6128:	1a12      	subs	r2, r2, r0
    612a:	0892      	lsrs	r2, r2, #2
    612c:	3201      	adds	r2, #1
    612e:	0092      	lsls	r2, r2, #2
    6130:	2100      	movs	r1, #0
    6132:	4b1f      	ldr	r3, [pc, #124]	; (61b0 <Reset_Handler+0xb0>)
    6134:	4798      	blx	r3
    6136:	22ff      	movs	r2, #255	; 0xff
    6138:	4b1e      	ldr	r3, [pc, #120]	; (61b4 <Reset_Handler+0xb4>)
    613a:	2102      	movs	r1, #2
    613c:	4393      	bics	r3, r2
    613e:	4a1e      	ldr	r2, [pc, #120]	; (61b8 <Reset_Handler+0xb8>)
    6140:	2503      	movs	r5, #3
    6142:	6093      	str	r3, [r2, #8]
    6144:	2390      	movs	r3, #144	; 0x90
    6146:	2402      	movs	r4, #2
    6148:	270c      	movs	r7, #12
    614a:	2608      	movs	r6, #8
    614c:	4a1b      	ldr	r2, [pc, #108]	; (61bc <Reset_Handler+0xbc>)
    614e:	005b      	lsls	r3, r3, #1
    6150:	50d1      	str	r1, [r2, r3]
    6152:	4a1b      	ldr	r2, [pc, #108]	; (61c0 <Reset_Handler+0xc0>)
    6154:	78d3      	ldrb	r3, [r2, #3]
    6156:	43ab      	bics	r3, r5
    6158:	4323      	orrs	r3, r4
    615a:	70d3      	strb	r3, [r2, #3]
    615c:	78d3      	ldrb	r3, [r2, #3]
    615e:	43bb      	bics	r3, r7
    6160:	4333      	orrs	r3, r6
    6162:	70d3      	strb	r3, [r2, #3]
    6164:	2230      	movs	r2, #48	; 0x30
    6166:	4b17      	ldr	r3, [pc, #92]	; (61c4 <Reset_Handler+0xc4>)
    6168:	7b98      	ldrb	r0, [r3, #14]
    616a:	4390      	bics	r0, r2
    616c:	2220      	movs	r2, #32
    616e:	4310      	orrs	r0, r2
    6170:	7398      	strb	r0, [r3, #14]
    6172:	7b99      	ldrb	r1, [r3, #14]
    6174:	43b9      	bics	r1, r7
    6176:	4331      	orrs	r1, r6
    6178:	7399      	strb	r1, [r3, #14]
    617a:	2180      	movs	r1, #128	; 0x80
    617c:	7b9a      	ldrb	r2, [r3, #14]
    617e:	43aa      	bics	r2, r5
    6180:	4322      	orrs	r2, r4
    6182:	739a      	strb	r2, [r3, #14]
    6184:	4a10      	ldr	r2, [pc, #64]	; (61c8 <Reset_Handler+0xc8>)
    6186:	6853      	ldr	r3, [r2, #4]
    6188:	430b      	orrs	r3, r1
    618a:	6053      	str	r3, [r2, #4]
    618c:	4b0f      	ldr	r3, [pc, #60]	; (61cc <Reset_Handler+0xcc>)
    618e:	4798      	blx	r3
    6190:	4b0f      	ldr	r3, [pc, #60]	; (61d0 <Reset_Handler+0xd0>)
    6192:	4798      	blx	r3
    6194:	e7fe      	b.n	6194 <Reset_Handler+0x94>
    6196:	46c0      	nop			; (mov r8, r8)
    6198:	0001f6d0 	.word	0x0001f6d0
    619c:	20000010 	.word	0x20000010
    61a0:	20000614 	.word	0x20000614
    61a4:	0000bcb5 	.word	0x0000bcb5
    61a8:	20000640 	.word	0x20000640
    61ac:	20007944 	.word	0x20007944
    61b0:	0000bd5d 	.word	0x0000bd5d
    61b4:	00006000 	.word	0x00006000
    61b8:	e000ed00 	.word	0xe000ed00
    61bc:	41007000 	.word	0x41007000
    61c0:	41005000 	.word	0x41005000
    61c4:	41004800 	.word	0x41004800
    61c8:	41004000 	.word	0x41004000
    61cc:	0000bc71 	.word	0x0000bc71
    61d0:	000061d9 	.word	0x000061d9

000061d4 <getNumberOfImages>:
    61d4:	2005      	movs	r0, #5
    61d6:	4770      	bx	lr

000061d8 <main>:
    61d8:	b5f0      	push	{r4, r5, r6, r7, lr}
    61da:	46de      	mov	lr, fp
    61dc:	464e      	mov	r6, r9
    61de:	4645      	mov	r5, r8
    61e0:	4657      	mov	r7, sl
    61e2:	b5e0      	push	{r5, r6, r7, lr}
    61e4:	4864      	ldr	r0, [pc, #400]	; (6378 <main+0x1a0>)
    61e6:	b08b      	sub	sp, #44	; 0x2c
    61e8:	4b64      	ldr	r3, [pc, #400]	; (637c <main+0x1a4>)
    61ea:	4798      	blx	r3
    61ec:	4864      	ldr	r0, [pc, #400]	; (6380 <main+0x1a8>)
    61ee:	4b65      	ldr	r3, [pc, #404]	; (6384 <main+0x1ac>)
    61f0:	4798      	blx	r3
    61f2:	4b65      	ldr	r3, [pc, #404]	; (6388 <main+0x1b0>)
    61f4:	ac05      	add	r4, sp, #20
    61f6:	469b      	mov	fp, r3
    61f8:	4798      	blx	r3
    61fa:	4b64      	ldr	r3, [pc, #400]	; (638c <main+0x1b4>)
    61fc:	4682      	mov	sl, r0
    61fe:	4798      	blx	r3
    6200:	2300      	movs	r3, #0
    6202:	9301      	str	r3, [sp, #4]
    6204:	9300      	str	r3, [sp, #0]
    6206:	4b62      	ldr	r3, [pc, #392]	; (6390 <main+0x1b8>)
    6208:	4d62      	ldr	r5, [pc, #392]	; (6394 <main+0x1bc>)
    620a:	4699      	mov	r9, r3
    620c:	4b62      	ldr	r3, [pc, #392]	; (6398 <main+0x1c0>)
    620e:	4e63      	ldr	r6, [pc, #396]	; (639c <main+0x1c4>)
    6210:	4698      	mov	r8, r3
    6212:	e007      	b.n	6224 <main+0x4c>
    6214:	47b0      	blx	r6
    6216:	2800      	cmp	r0, #0
    6218:	d123      	bne.n	6262 <main+0x8a>
    621a:	4643      	mov	r3, r8
    621c:	681a      	ldr	r2, [r3, #0]
    621e:	4b60      	ldr	r3, [pc, #384]	; (63a0 <main+0x1c8>)
    6220:	429a      	cmp	r2, r3
    6222:	d912      	bls.n	624a <main+0x72>
    6224:	47d8      	blx	fp
    6226:	4b5f      	ldr	r3, [pc, #380]	; (63a4 <main+0x1cc>)
    6228:	0007      	movs	r7, r0
    622a:	4798      	blx	r3
    622c:	4b5e      	ldr	r3, [pc, #376]	; (63a8 <main+0x1d0>)
    622e:	4798      	blx	r3
    6230:	47a8      	blx	r5
    6232:	2800      	cmp	r0, #0
    6234:	d060      	beq.n	62f8 <main+0x120>
    6236:	4b5d      	ldr	r3, [pc, #372]	; (63ac <main+0x1d4>)
    6238:	4798      	blx	r3
    623a:	4b5d      	ldr	r3, [pc, #372]	; (63b0 <main+0x1d8>)
    623c:	4798      	blx	r3
    623e:	4653      	mov	r3, sl
    6240:	22fa      	movs	r2, #250	; 0xfa
    6242:	1afb      	subs	r3, r7, r3
    6244:	0092      	lsls	r2, r2, #2
    6246:	4293      	cmp	r3, r2
    6248:	d86a      	bhi.n	6320 <main+0x148>
    624a:	47c8      	blx	r9
    624c:	47a8      	blx	r5
    624e:	2800      	cmp	r0, #0
    6250:	d0e0      	beq.n	6214 <main+0x3c>
    6252:	4b58      	ldr	r3, [pc, #352]	; (63b4 <main+0x1dc>)
    6254:	4798      	blx	r3
    6256:	a802      	add	r0, sp, #8
    6258:	4b57      	ldr	r3, [pc, #348]	; (63b8 <main+0x1e0>)
    625a:	4798      	blx	r3
    625c:	47b0      	blx	r6
    625e:	2800      	cmp	r0, #0
    6260:	d0db      	beq.n	621a <main+0x42>
    6262:	4b56      	ldr	r3, [pc, #344]	; (63bc <main+0x1e4>)
    6264:	4798      	blx	r3
    6266:	4b56      	ldr	r3, [pc, #344]	; (63c0 <main+0x1e8>)
    6268:	0020      	movs	r0, r4
    626a:	4798      	blx	r3
    626c:	2200      	movs	r2, #0
    626e:	ab02      	add	r3, sp, #8
    6270:	801a      	strh	r2, [r3, #0]
    6272:	2106      	movs	r1, #6
    6274:	5e62      	ldrsh	r2, [r4, r1]
    6276:	200c      	movs	r0, #12
    6278:	5e21      	ldrsh	r1, [r4, r0]
    627a:	6823      	ldr	r3, [r4, #0]
    627c:	428a      	cmp	r2, r1
    627e:	d05b      	beq.n	6338 <main+0x160>
    6280:	270e      	movs	r7, #14
    6282:	5fe0      	ldrsh	r0, [r4, r7]
    6284:	4290      	cmp	r0, r2
    6286:	d070      	beq.n	636a <main+0x192>
    6288:	2201      	movs	r2, #1
    628a:	4694      	mov	ip, r2
    628c:	2200      	movs	r2, #0
    628e:	2704      	movs	r7, #4
    6290:	5fe0      	ldrsh	r0, [r4, r7]
    6292:	4281      	cmp	r1, r0
    6294:	d05a      	beq.n	634c <main+0x174>
    6296:	270e      	movs	r7, #14
    6298:	5fe1      	ldrsh	r1, [r4, r7]
    629a:	4281      	cmp	r1, r0
    629c:	d104      	bne.n	62a8 <main+0xd0>
    629e:	2164      	movs	r1, #100	; 0x64
    62a0:	0052      	lsls	r2, r2, #1
    62a2:	a802      	add	r0, sp, #8
    62a4:	5281      	strh	r1, [r0, r2]
    62a6:	4662      	mov	r2, ip
    62a8:	2b08      	cmp	r3, #8
    62aa:	d056      	beq.n	635a <main+0x182>
    62ac:	2b08      	cmp	r3, #8
    62ae:	d912      	bls.n	62d6 <main+0xfe>
    62b0:	2b20      	cmp	r3, #32
    62b2:	d058      	beq.n	6366 <main+0x18e>
    62b4:	d919      	bls.n	62ea <main+0x112>
    62b6:	2180      	movs	r1, #128	; 0x80
    62b8:	0049      	lsls	r1, r1, #1
    62ba:	428b      	cmp	r3, r1
    62bc:	d051      	beq.n	6362 <main+0x18a>
    62be:	4941      	ldr	r1, [pc, #260]	; (63c4 <main+0x1ec>)
    62c0:	468c      	mov	ip, r1
    62c2:	4463      	add	r3, ip
    62c4:	4259      	negs	r1, r3
    62c6:	414b      	adcs	r3, r1
    62c8:	216d      	movs	r1, #109	; 0x6d
    62ca:	425b      	negs	r3, r3
    62cc:	4019      	ands	r1, r3
    62ce:	0052      	lsls	r2, r2, #1
    62d0:	ab02      	add	r3, sp, #8
    62d2:	5299      	strh	r1, [r3, r2]
    62d4:	e7a1      	b.n	621a <main+0x42>
    62d6:	2b02      	cmp	r3, #2
    62d8:	d041      	beq.n	635e <main+0x186>
    62da:	2167      	movs	r1, #103	; 0x67
    62dc:	2b04      	cmp	r3, #4
    62de:	d0f6      	beq.n	62ce <main+0xf6>
    62e0:	3b01      	subs	r3, #1
    62e2:	4259      	negs	r1, r3
    62e4:	414b      	adcs	r3, r1
    62e6:	0159      	lsls	r1, r3, #5
    62e8:	e7f1      	b.n	62ce <main+0xf6>
    62ea:	3b10      	subs	r3, #16
    62ec:	4259      	negs	r1, r3
    62ee:	4159      	adcs	r1, r3
    62f0:	232b      	movs	r3, #43	; 0x2b
    62f2:	4249      	negs	r1, r1
    62f4:	4019      	ands	r1, r3
    62f6:	e7ea      	b.n	62ce <main+0xf6>
    62f8:	47b0      	blx	r6
    62fa:	0003      	movs	r3, r0
    62fc:	2000      	movs	r0, #0
    62fe:	2b00      	cmp	r3, #0
    6300:	d09b      	beq.n	623a <main+0x62>
    6302:	ab02      	add	r3, sp, #8
    6304:	881b      	ldrh	r3, [r3, #0]
    6306:	9a01      	ldr	r2, [sp, #4]
    6308:	4293      	cmp	r3, r2
    630a:	d096      	beq.n	623a <main+0x62>
    630c:	b218      	sxth	r0, r3
    630e:	9301      	str	r3, [sp, #4]
    6310:	4b27      	ldr	r3, [pc, #156]	; (63b0 <main+0x1d8>)
    6312:	4798      	blx	r3
    6314:	4653      	mov	r3, sl
    6316:	22fa      	movs	r2, #250	; 0xfa
    6318:	1afb      	subs	r3, r7, r3
    631a:	0092      	lsls	r2, r2, #2
    631c:	4293      	cmp	r3, r2
    631e:	d994      	bls.n	624a <main+0x72>
    6320:	9b00      	ldr	r3, [sp, #0]
    6322:	469a      	mov	sl, r3
    6324:	0018      	movs	r0, r3
    6326:	4b28      	ldr	r3, [pc, #160]	; (63c8 <main+0x1f0>)
    6328:	4798      	blx	r3
    632a:	4652      	mov	r2, sl
    632c:	2301      	movs	r3, #1
    632e:	1a9b      	subs	r3, r3, r2
    6330:	b2db      	uxtb	r3, r3
    6332:	9300      	str	r3, [sp, #0]
    6334:	46ba      	mov	sl, r7
    6336:	e788      	b.n	624a <main+0x72>
    6338:	2277      	movs	r2, #119	; 0x77
    633a:	a802      	add	r0, sp, #8
    633c:	8002      	strh	r2, [r0, #0]
    633e:	2704      	movs	r7, #4
    6340:	5fe0      	ldrsh	r0, [r4, r7]
    6342:	3a75      	subs	r2, #117	; 0x75
    6344:	4694      	mov	ip, r2
    6346:	3a01      	subs	r2, #1
    6348:	4281      	cmp	r1, r0
    634a:	d1a4      	bne.n	6296 <main+0xbe>
    634c:	2161      	movs	r1, #97	; 0x61
    634e:	0052      	lsls	r2, r2, #1
    6350:	a802      	add	r0, sp, #8
    6352:	5281      	strh	r1, [r0, r2]
    6354:	4662      	mov	r2, ip
    6356:	2b08      	cmp	r3, #8
    6358:	d1a8      	bne.n	62ac <main+0xd4>
    635a:	2168      	movs	r1, #104	; 0x68
    635c:	e7b7      	b.n	62ce <main+0xf6>
    635e:	2177      	movs	r1, #119	; 0x77
    6360:	e7b5      	b.n	62ce <main+0xf6>
    6362:	2120      	movs	r1, #32
    6364:	e7b3      	b.n	62ce <main+0xf6>
    6366:	212d      	movs	r1, #45	; 0x2d
    6368:	e7b1      	b.n	62ce <main+0xf6>
    636a:	2273      	movs	r2, #115	; 0x73
    636c:	a802      	add	r0, sp, #8
    636e:	8002      	strh	r2, [r0, #0]
    6370:	3a71      	subs	r2, #113	; 0x71
    6372:	4694      	mov	ip, r2
    6374:	3a01      	subs	r2, #1
    6376:	e78a      	b.n	628e <main+0xb6>
    6378:	00013588 	.word	0x00013588
    637c:	0000b135 	.word	0x0000b135
    6380:	000129b0 	.word	0x000129b0
    6384:	00009d69 	.word	0x00009d69
    6388:	0000b33d 	.word	0x0000b33d
    638c:	0000854d 	.word	0x0000854d
    6390:	0000b4d1 	.word	0x0000b4d1
    6394:	0000b3d9 	.word	0x0000b3d9
    6398:	200059c0 	.word	0x200059c0
    639c:	0000b429 	.word	0x0000b429
    63a0:	0000020a 	.word	0x0000020a
    63a4:	0000b751 	.word	0x0000b751
    63a8:	00009f79 	.word	0x00009f79
    63ac:	0000b3e9 	.word	0x0000b3e9
    63b0:	0000860d 	.word	0x0000860d
    63b4:	0000b3f9 	.word	0x0000b3f9
    63b8:	0000b409 	.word	0x0000b409
    63bc:	0000b439 	.word	0x0000b439
    63c0:	0000b449 	.word	0x0000b449
    63c4:	fffffe00 	.word	0xfffffe00
    63c8:	0000b38d 	.word	0x0000b38d

000063cc <getNumberOfPatches>:
    63cc:	200a      	movs	r0, #10
    63ce:	4770      	bx	lr

000063d0 <getNumberOfSoundWaves>:
    63d0:	200d      	movs	r0, #13
    63d2:	4770      	bx	lr

000063d4 <playFx.part.3>:
    63d4:	b510      	push	{r4, lr}
    63d6:	2380      	movs	r3, #128	; 0x80
    63d8:	1e54      	subs	r4, r2, #1
    63da:	41a2      	sbcs	r2, r4
    63dc:	b200      	sxth	r0, r0
    63de:	b2d2      	uxtb	r2, r2
    63e0:	025b      	lsls	r3, r3, #9
    63e2:	4c01      	ldr	r4, [pc, #4]	; (63e8 <playFx.part.3+0x14>)
    63e4:	47a0      	blx	r4
    63e6:	bd10      	pop	{r4, pc}
    63e8:	0000a559 	.word	0x0000a559

000063ec <showImage>:
    63ec:	b5f0      	push	{r4, r5, r6, r7, lr}
    63ee:	4657      	mov	r7, sl
    63f0:	464e      	mov	r6, r9
    63f2:	4645      	mov	r5, r8
    63f4:	46de      	mov	lr, fp
    63f6:	b5e0      	push	{r5, r6, r7, lr}
    63f8:	4bdc      	ldr	r3, [pc, #880]	; (676c <showImage+0x380>)
    63fa:	b093      	sub	sp, #76	; 0x4c
    63fc:	910f      	str	r1, [sp, #60]	; 0x3c
    63fe:	0019      	movs	r1, r3
    6400:	22b8      	movs	r2, #184	; 0xb8
    6402:	3171      	adds	r1, #113	; 0x71
    6404:	31ff      	adds	r1, #255	; 0xff
    6406:	900e      	str	r0, [sp, #56]	; 0x38
    6408:	7848      	ldrb	r0, [r1, #1]
    640a:	21b8      	movs	r1, #184	; 0xb8
    640c:	0052      	lsls	r2, r2, #1
    640e:	5c9a      	ldrb	r2, [r3, r2]
    6410:	0200      	lsls	r0, r0, #8
    6412:	4310      	orrs	r0, r2
    6414:	4ad6      	ldr	r2, [pc, #856]	; (6770 <showImage+0x384>)
    6416:	5c51      	ldrb	r1, [r2, r1]
    6418:	3104      	adds	r1, #4
    641a:	b2c9      	uxtb	r1, r1
    641c:	9100      	str	r1, [sp, #0]
    641e:	21b9      	movs	r1, #185	; 0xb9
    6420:	0049      	lsls	r1, r1, #1
    6422:	5c5c      	ldrb	r4, [r3, r1]
    6424:	0019      	movs	r1, r3
    6426:	3173      	adds	r1, #115	; 0x73
    6428:	31ff      	adds	r1, #255	; 0xff
    642a:	7849      	ldrb	r1, [r1, #1]
    642c:	0209      	lsls	r1, r1, #8
    642e:	4321      	orrs	r1, r4
    6430:	24b9      	movs	r4, #185	; 0xb9
    6432:	5d14      	ldrb	r4, [r2, r4]
    6434:	3404      	adds	r4, #4
    6436:	b2e4      	uxtb	r4, r4
    6438:	9401      	str	r4, [sp, #4]
    643a:	24ba      	movs	r4, #186	; 0xba
    643c:	0064      	lsls	r4, r4, #1
    643e:	5d1d      	ldrb	r5, [r3, r4]
    6440:	001c      	movs	r4, r3
    6442:	3475      	adds	r4, #117	; 0x75
    6444:	34ff      	adds	r4, #255	; 0xff
    6446:	7864      	ldrb	r4, [r4, #1]
    6448:	0224      	lsls	r4, r4, #8
    644a:	432c      	orrs	r4, r5
    644c:	46a4      	mov	ip, r4
    644e:	24ba      	movs	r4, #186	; 0xba
    6450:	5d14      	ldrb	r4, [r2, r4]
    6452:	3404      	adds	r4, #4
    6454:	b2e4      	uxtb	r4, r4
    6456:	9402      	str	r4, [sp, #8]
    6458:	24bb      	movs	r4, #187	; 0xbb
    645a:	0064      	lsls	r4, r4, #1
    645c:	5d1d      	ldrb	r5, [r3, r4]
    645e:	001c      	movs	r4, r3
    6460:	3477      	adds	r4, #119	; 0x77
    6462:	34ff      	adds	r4, #255	; 0xff
    6464:	7864      	ldrb	r4, [r4, #1]
    6466:	0224      	lsls	r4, r4, #8
    6468:	432c      	orrs	r4, r5
    646a:	9408      	str	r4, [sp, #32]
    646c:	24bb      	movs	r4, #187	; 0xbb
    646e:	5d14      	ldrb	r4, [r2, r4]
    6470:	3404      	adds	r4, #4
    6472:	b2e5      	uxtb	r5, r4
    6474:	24bc      	movs	r4, #188	; 0xbc
    6476:	0064      	lsls	r4, r4, #1
    6478:	9503      	str	r5, [sp, #12]
    647a:	5d1d      	ldrb	r5, [r3, r4]
    647c:	001c      	movs	r4, r3
    647e:	3479      	adds	r4, #121	; 0x79
    6480:	34ff      	adds	r4, #255	; 0xff
    6482:	7864      	ldrb	r4, [r4, #1]
    6484:	0224      	lsls	r4, r4, #8
    6486:	432c      	orrs	r4, r5
    6488:	940a      	str	r4, [sp, #40]	; 0x28
    648a:	24bc      	movs	r4, #188	; 0xbc
    648c:	5d14      	ldrb	r4, [r2, r4]
    648e:	3404      	adds	r4, #4
    6490:	b2e5      	uxtb	r5, r4
    6492:	24bd      	movs	r4, #189	; 0xbd
    6494:	0064      	lsls	r4, r4, #1
    6496:	191e      	adds	r6, r3, r4
    6498:	9504      	str	r5, [sp, #16]
    649a:	5d1d      	ldrb	r5, [r3, r4]
    649c:	7874      	ldrb	r4, [r6, #1]
    649e:	0224      	lsls	r4, r4, #8
    64a0:	0026      	movs	r6, r4
    64a2:	24bd      	movs	r4, #189	; 0xbd
    64a4:	5d14      	ldrb	r4, [r2, r4]
    64a6:	432e      	orrs	r6, r5
    64a8:	3404      	adds	r4, #4
    64aa:	b2e5      	uxtb	r5, r4
    64ac:	24be      	movs	r4, #190	; 0xbe
    64ae:	0064      	lsls	r4, r4, #1
    64b0:	191f      	adds	r7, r3, r4
    64b2:	960b      	str	r6, [sp, #44]	; 0x2c
    64b4:	9505      	str	r5, [sp, #20]
    64b6:	5d1d      	ldrb	r5, [r3, r4]
    64b8:	787c      	ldrb	r4, [r7, #1]
    64ba:	0224      	lsls	r4, r4, #8
    64bc:	0027      	movs	r7, r4
    64be:	24be      	movs	r4, #190	; 0xbe
    64c0:	5d14      	ldrb	r4, [r2, r4]
    64c2:	432f      	orrs	r7, r5
    64c4:	3404      	adds	r4, #4
    64c6:	b2e5      	uxtb	r5, r4
    64c8:	24bf      	movs	r4, #191	; 0xbf
    64ca:	0064      	lsls	r4, r4, #1
    64cc:	5d1c      	ldrb	r4, [r3, r4]
    64ce:	337f      	adds	r3, #127	; 0x7f
    64d0:	33ff      	adds	r3, #255	; 0xff
    64d2:	785b      	ldrb	r3, [r3, #1]
    64d4:	9506      	str	r5, [sp, #24]
    64d6:	021b      	lsls	r3, r3, #8
    64d8:	001d      	movs	r5, r3
    64da:	23bf      	movs	r3, #191	; 0xbf
    64dc:	5cd3      	ldrb	r3, [r2, r3]
    64de:	970c      	str	r7, [sp, #48]	; 0x30
    64e0:	3304      	adds	r3, #4
    64e2:	b2da      	uxtb	r2, r3
    64e4:	9207      	str	r2, [sp, #28]
    64e6:	4aa3      	ldr	r2, [pc, #652]	; (6774 <showImage+0x388>)
    64e8:	4325      	orrs	r5, r4
    64ea:	4692      	mov	sl, r2
    64ec:	4aa2      	ldr	r2, [pc, #648]	; (6778 <showImage+0x38c>)
    64ee:	950d      	str	r5, [sp, #52]	; 0x34
    64f0:	4693      	mov	fp, r2
    64f2:	4652      	mov	r2, sl
    64f4:	32a0      	adds	r2, #160	; 0xa0
    64f6:	0017      	movs	r7, r2
    64f8:	4652      	mov	r2, sl
    64fa:	3241      	adds	r2, #65	; 0x41
    64fc:	32ff      	adds	r2, #255	; 0xff
    64fe:	0016      	movs	r6, r2
    6500:	4652      	mov	r2, sl
    6502:	32e1      	adds	r2, #225	; 0xe1
    6504:	32ff      	adds	r2, #255	; 0xff
    6506:	9b08      	ldr	r3, [sp, #32]
    6508:	0015      	movs	r5, r2
    650a:	4a9c      	ldr	r2, [pc, #624]	; (677c <showImage+0x390>)
    650c:	4654      	mov	r4, sl
    650e:	4691      	mov	r9, r2
    6510:	041a      	lsls	r2, r3, #16
    6512:	9b0a      	ldr	r3, [sp, #40]	; 0x28
    6514:	9209      	str	r2, [sp, #36]	; 0x24
    6516:	041a      	lsls	r2, r3, #16
    6518:	9b0b      	ldr	r3, [sp, #44]	; 0x2c
    651a:	920a      	str	r2, [sp, #40]	; 0x28
    651c:	041a      	lsls	r2, r3, #16
    651e:	9b0c      	ldr	r3, [sp, #48]	; 0x30
    6520:	920b      	str	r2, [sp, #44]	; 0x2c
    6522:	041a      	lsls	r2, r3, #16
    6524:	9b0d      	ldr	r3, [sp, #52]	; 0x34
    6526:	920c      	str	r2, [sp, #48]	; 0x30
    6528:	041b      	lsls	r3, r3, #16
    652a:	930d      	str	r3, [sp, #52]	; 0x34
    652c:	0403      	lsls	r3, r0, #16
    652e:	4303      	orrs	r3, r0
    6530:	9308      	str	r3, [sp, #32]
    6532:	040b      	lsls	r3, r1, #16
    6534:	430b      	orrs	r3, r1
    6536:	001a      	movs	r2, r3
    6538:	4663      	mov	r3, ip
    653a:	4661      	mov	r1, ip
    653c:	041b      	lsls	r3, r3, #16
    653e:	4319      	orrs	r1, r3
    6540:	000b      	movs	r3, r1
    6542:	4659      	mov	r1, fp
    6544:	46d8      	mov	r8, fp
    6546:	4692      	mov	sl, r2
    6548:	469b      	mov	fp, r3
    654a:	9410      	str	r4, [sp, #64]	; 0x40
    654c:	9111      	str	r1, [sp, #68]	; 0x44
    654e:	9b08      	ldr	r3, [sp, #32]
    6550:	220a      	movs	r2, #10
    6552:	6023      	str	r3, [r4, #0]
    6554:	6063      	str	r3, [r4, #4]
    6556:	60a3      	str	r3, [r4, #8]
    6558:	60e3      	str	r3, [r4, #12]
    655a:	6123      	str	r3, [r4, #16]
    655c:	9900      	ldr	r1, [sp, #0]
    655e:	4640      	mov	r0, r8
    6560:	47c8      	blx	r9
    6562:	4653      	mov	r3, sl
    6564:	4640      	mov	r0, r8
    6566:	6523      	str	r3, [r4, #80]	; 0x50
    6568:	6563      	str	r3, [r4, #84]	; 0x54
    656a:	65a3      	str	r3, [r4, #88]	; 0x58
    656c:	65e3      	str	r3, [r4, #92]	; 0x5c
    656e:	6623      	str	r3, [r4, #96]	; 0x60
    6570:	220a      	movs	r2, #10
    6572:	9901      	ldr	r1, [sp, #4]
    6574:	3028      	adds	r0, #40	; 0x28
    6576:	47c8      	blx	r9
    6578:	465b      	mov	r3, fp
    657a:	4640      	mov	r0, r8
    657c:	603b      	str	r3, [r7, #0]
    657e:	607b      	str	r3, [r7, #4]
    6580:	60bb      	str	r3, [r7, #8]
    6582:	60fb      	str	r3, [r7, #12]
    6584:	613b      	str	r3, [r7, #16]
    6586:	220a      	movs	r2, #10
    6588:	9902      	ldr	r1, [sp, #8]
    658a:	3050      	adds	r0, #80	; 0x50
    658c:	47c8      	blx	r9
    658e:	4640      	mov	r0, r8
    6590:	9a09      	ldr	r2, [sp, #36]	; 0x24
    6592:	9903      	ldr	r1, [sp, #12]
    6594:	0c13      	lsrs	r3, r2, #16
    6596:	4313      	orrs	r3, r2
    6598:	653b      	str	r3, [r7, #80]	; 0x50
    659a:	657b      	str	r3, [r7, #84]	; 0x54
    659c:	65bb      	str	r3, [r7, #88]	; 0x58
    659e:	65fb      	str	r3, [r7, #92]	; 0x5c
    65a0:	663b      	str	r3, [r7, #96]	; 0x60
    65a2:	220a      	movs	r2, #10
    65a4:	3078      	adds	r0, #120	; 0x78
    65a6:	47c8      	blx	r9
    65a8:	4640      	mov	r0, r8
    65aa:	9a0a      	ldr	r2, [sp, #40]	; 0x28
    65ac:	9904      	ldr	r1, [sp, #16]
    65ae:	0c13      	lsrs	r3, r2, #16
    65b0:	4313      	orrs	r3, r2
    65b2:	6033      	str	r3, [r6, #0]
    65b4:	6073      	str	r3, [r6, #4]
    65b6:	60b3      	str	r3, [r6, #8]
    65b8:	60f3      	str	r3, [r6, #12]
    65ba:	6133      	str	r3, [r6, #16]
    65bc:	220a      	movs	r2, #10
    65be:	30a0      	adds	r0, #160	; 0xa0
    65c0:	47c8      	blx	r9
    65c2:	4640      	mov	r0, r8
    65c4:	9a0b      	ldr	r2, [sp, #44]	; 0x2c
    65c6:	9905      	ldr	r1, [sp, #20]
    65c8:	0c13      	lsrs	r3, r2, #16
    65ca:	4313      	orrs	r3, r2
    65cc:	6533      	str	r3, [r6, #80]	; 0x50
    65ce:	6573      	str	r3, [r6, #84]	; 0x54
    65d0:	65b3      	str	r3, [r6, #88]	; 0x58
    65d2:	65f3      	str	r3, [r6, #92]	; 0x5c
    65d4:	6633      	str	r3, [r6, #96]	; 0x60
    65d6:	220a      	movs	r2, #10
    65d8:	30c8      	adds	r0, #200	; 0xc8
    65da:	47c8      	blx	r9
    65dc:	4640      	mov	r0, r8
    65de:	9a0c      	ldr	r2, [sp, #48]	; 0x30
    65e0:	9906      	ldr	r1, [sp, #24]
    65e2:	0c13      	lsrs	r3, r2, #16
    65e4:	4313      	orrs	r3, r2
    65e6:	602b      	str	r3, [r5, #0]
    65e8:	606b      	str	r3, [r5, #4]
    65ea:	60ab      	str	r3, [r5, #8]
    65ec:	60eb      	str	r3, [r5, #12]
    65ee:	612b      	str	r3, [r5, #16]
    65f0:	220a      	movs	r2, #10
    65f2:	30f0      	adds	r0, #240	; 0xf0
    65f4:	47c8      	blx	r9
    65f6:	4640      	mov	r0, r8
    65f8:	9a0d      	ldr	r2, [sp, #52]	; 0x34
    65fa:	3019      	adds	r0, #25
    65fc:	0c13      	lsrs	r3, r2, #16
    65fe:	4313      	orrs	r3, r2
    6600:	652b      	str	r3, [r5, #80]	; 0x50
    6602:	656b      	str	r3, [r5, #84]	; 0x54
    6604:	65ab      	str	r3, [r5, #88]	; 0x58
    6606:	65eb      	str	r3, [r5, #92]	; 0x5c
    6608:	662b      	str	r3, [r5, #96]	; 0x60
    660a:	30ff      	adds	r0, #255	; 0xff
    660c:	220a      	movs	r2, #10
    660e:	9907      	ldr	r1, [sp, #28]
    6610:	47c8      	blx	r9
    6612:	23a0      	movs	r3, #160	; 0xa0
    6614:	009b      	lsls	r3, r3, #2
    6616:	469c      	mov	ip, r3
    6618:	3b41      	subs	r3, #65	; 0x41
    661a:	3bff      	subs	r3, #255	; 0xff
    661c:	4464      	add	r4, ip
    661e:	469c      	mov	ip, r3
    6620:	3341      	adds	r3, #65	; 0x41
    6622:	33ff      	adds	r3, #255	; 0xff
    6624:	44e0      	add	r8, ip
    6626:	469c      	mov	ip, r3
    6628:	4b55      	ldr	r3, [pc, #340]	; (6780 <showImage+0x394>)
    662a:	4467      	add	r7, ip
    662c:	4466      	add	r6, ip
    662e:	4465      	add	r5, ip
    6630:	42a3      	cmp	r3, r4
    6632:	d18c      	bne.n	654e <showImage+0x162>
    6634:	9b10      	ldr	r3, [sp, #64]	; 0x40
    6636:	9d0f      	ldr	r5, [sp, #60]	; 0x3c
    6638:	469a      	mov	sl, r3
    663a:	9b11      	ldr	r3, [sp, #68]	; 0x44
    663c:	469b      	mov	fp, r3
    663e:	2d00      	cmp	r5, #0
    6640:	d100      	bne.n	6644 <showImage+0x258>
    6642:	e084      	b.n	674e <showImage+0x362>
    6644:	990e      	ldr	r1, [sp, #56]	; 0x38
    6646:	4b4f      	ldr	r3, [pc, #316]	; (6784 <showImage+0x398>)
    6648:	008a      	lsls	r2, r1, #2
    664a:	58d0      	ldr	r0, [r2, r3]
    664c:	004b      	lsls	r3, r1, #1
    664e:	494e      	ldr	r1, [pc, #312]	; (6788 <showImage+0x39c>)
    6650:	5a5c      	ldrh	r4, [r3, r1]
    6652:	2d00      	cmp	r5, #0
    6654:	dd43      	ble.n	66de <showImage+0x2f2>
    6656:	494d      	ldr	r1, [pc, #308]	; (678c <showImage+0x3a0>)
    6658:	4b4d      	ldr	r3, [pc, #308]	; (6790 <showImage+0x3a4>)
    665a:	465e      	mov	r6, fp
    665c:	58d3      	ldr	r3, [r2, r3]
    665e:	5852      	ldr	r2, [r2, r1]
    6660:	0029      	movs	r1, r5
    6662:	468c      	mov	ip, r1
    6664:	4651      	mov	r1, sl
    6666:	00ad      	lsls	r5, r5, #2
    6668:	4465      	add	r5, ip
    666a:	00ad      	lsls	r5, r5, #2
    666c:	18ed      	adds	r5, r5, r3
    666e:	881f      	ldrh	r7, [r3, #0]
    6670:	800f      	strh	r7, [r1, #0]
    6672:	7817      	ldrb	r7, [r2, #0]
    6674:	373a      	adds	r7, #58	; 0x3a
    6676:	7037      	strb	r7, [r6, #0]
    6678:	885f      	ldrh	r7, [r3, #2]
    667a:	804f      	strh	r7, [r1, #2]
    667c:	7857      	ldrb	r7, [r2, #1]
    667e:	373a      	adds	r7, #58	; 0x3a
    6680:	7077      	strb	r7, [r6, #1]
    6682:	889f      	ldrh	r7, [r3, #4]
    6684:	808f      	strh	r7, [r1, #4]
    6686:	7897      	ldrb	r7, [r2, #2]
    6688:	373a      	adds	r7, #58	; 0x3a
    668a:	70b7      	strb	r7, [r6, #2]
    668c:	88df      	ldrh	r7, [r3, #6]
    668e:	80cf      	strh	r7, [r1, #6]
    6690:	78d7      	ldrb	r7, [r2, #3]
    6692:	373a      	adds	r7, #58	; 0x3a
    6694:	70f7      	strb	r7, [r6, #3]
    6696:	891f      	ldrh	r7, [r3, #8]
    6698:	810f      	strh	r7, [r1, #8]
    669a:	7917      	ldrb	r7, [r2, #4]
    669c:	373a      	adds	r7, #58	; 0x3a
    669e:	7137      	strb	r7, [r6, #4]
    66a0:	895f      	ldrh	r7, [r3, #10]
    66a2:	814f      	strh	r7, [r1, #10]
    66a4:	7957      	ldrb	r7, [r2, #5]
    66a6:	373a      	adds	r7, #58	; 0x3a
    66a8:	7177      	strb	r7, [r6, #5]
    66aa:	899f      	ldrh	r7, [r3, #12]
    66ac:	818f      	strh	r7, [r1, #12]
    66ae:	7997      	ldrb	r7, [r2, #6]
    66b0:	373a      	adds	r7, #58	; 0x3a
    66b2:	71b7      	strb	r7, [r6, #6]
    66b4:	89df      	ldrh	r7, [r3, #14]
    66b6:	81cf      	strh	r7, [r1, #14]
    66b8:	79d7      	ldrb	r7, [r2, #7]
    66ba:	373a      	adds	r7, #58	; 0x3a
    66bc:	71f7      	strb	r7, [r6, #7]
    66be:	8a1f      	ldrh	r7, [r3, #16]
    66c0:	820f      	strh	r7, [r1, #16]
    66c2:	7a17      	ldrb	r7, [r2, #8]
    66c4:	373a      	adds	r7, #58	; 0x3a
    66c6:	7237      	strb	r7, [r6, #8]
    66c8:	8a5f      	ldrh	r7, [r3, #18]
    66ca:	3314      	adds	r3, #20
    66cc:	824f      	strh	r7, [r1, #18]
    66ce:	7a57      	ldrb	r7, [r2, #9]
    66d0:	3150      	adds	r1, #80	; 0x50
    66d2:	373a      	adds	r7, #58	; 0x3a
    66d4:	7277      	strb	r7, [r6, #9]
    66d6:	320a      	adds	r2, #10
    66d8:	3628      	adds	r6, #40	; 0x28
    66da:	42ab      	cmp	r3, r5
    66dc:	d1c7      	bne.n	666e <showImage+0x282>
    66de:	2800      	cmp	r0, #0
    66e0:	d035      	beq.n	674e <showImage+0x362>
    66e2:	2280      	movs	r2, #128	; 0x80
    66e4:	0023      	movs	r3, r4
    66e6:	00d2      	lsls	r2, r2, #3
    66e8:	4294      	cmp	r4, r2
    66ea:	d900      	bls.n	66ee <showImage+0x302>
    66ec:	0013      	movs	r3, r2
    66ee:	2c00      	cmp	r4, #0
    66f0:	d02d      	beq.n	674e <showImage+0x362>
    66f2:	0004      	movs	r4, r0
    66f4:	2107      	movs	r1, #7
    66f6:	4a27      	ldr	r2, [pc, #156]	; (6794 <showImage+0x3a8>)
    66f8:	1e5d      	subs	r5, r3, #1
    66fa:	4314      	orrs	r4, r2
    66fc:	4021      	ands	r1, r4
    66fe:	424c      	negs	r4, r1
    6700:	4161      	adcs	r1, r4
    6702:	240b      	movs	r4, #11
    6704:	42ac      	cmp	r4, r5
    6706:	41a4      	sbcs	r4, r4
    6708:	4264      	negs	r4, r4
    670a:	420c      	tst	r4, r1
    670c:	d026      	beq.n	675c <showImage+0x370>
    670e:	2100      	movs	r1, #0
    6710:	0004      	movs	r4, r0
    6712:	000d      	movs	r5, r1
    6714:	3408      	adds	r4, #8
    6716:	42a2      	cmp	r2, r4
    6718:	414d      	adcs	r5, r1
    671a:	002c      	movs	r4, r5
    671c:	0015      	movs	r5, r2
    671e:	3508      	adds	r5, #8
    6720:	42a8      	cmp	r0, r5
    6722:	4149      	adcs	r1, r1
    6724:	4321      	orrs	r1, r4
    6726:	d019      	beq.n	675c <showImage+0x370>
    6728:	0006      	movs	r6, r0
    672a:	0017      	movs	r7, r2
    672c:	0859      	lsrs	r1, r3, #1
    672e:	00c9      	lsls	r1, r1, #3
    6730:	1809      	adds	r1, r1, r0
    6732:	ce30      	ldmia	r6!, {r4, r5}
    6734:	c730      	stmia	r7!, {r4, r5}
    6736:	42b1      	cmp	r1, r6
    6738:	d1fb      	bne.n	6732 <showImage+0x346>
    673a:	2101      	movs	r1, #1
    673c:	001c      	movs	r4, r3
    673e:	438c      	bics	r4, r1
    6740:	00a1      	lsls	r1, r4, #2
    6742:	1840      	adds	r0, r0, r1
    6744:	1852      	adds	r2, r2, r1
    6746:	42a3      	cmp	r3, r4
    6748:	d001      	beq.n	674e <showImage+0x362>
    674a:	6803      	ldr	r3, [r0, #0]
    674c:	6013      	str	r3, [r2, #0]
    674e:	b013      	add	sp, #76	; 0x4c
    6750:	bc3c      	pop	{r2, r3, r4, r5}
    6752:	4690      	mov	r8, r2
    6754:	4699      	mov	r9, r3
    6756:	46a2      	mov	sl, r4
    6758:	46ab      	mov	fp, r5
    675a:	bdf0      	pop	{r4, r5, r6, r7, pc}
    675c:	2100      	movs	r1, #0
    675e:	009b      	lsls	r3, r3, #2
    6760:	5844      	ldr	r4, [r0, r1]
    6762:	5054      	str	r4, [r2, r1]
    6764:	3104      	adds	r1, #4
    6766:	428b      	cmp	r3, r1
    6768:	d1fa      	bne.n	6760 <showImage+0x374>
    676a:	e7f0      	b.n	674e <showImage+0x362>
    676c:	0001e1e0 	.word	0x0001e1e0
    6770:	0001ddc0 	.word	0x0001ddc0
    6774:	20002e78 	.word	0x20002e78
    6778:	20006b7c 	.word	0x20006b7c
    677c:	0000bd5d 	.word	0x0000bd5d
    6780:	20004778 	.word	0x20004778
    6784:	20000024 	.word	0x20000024
    6788:	0000bf84 	.word	0x0000bf84
    678c:	20000010 	.word	0x20000010
    6790:	20000038 	.word	0x20000038
    6794:	20004d60 	.word	0x20004d60

00006798 <drawTable>:
    6798:	23b8      	movs	r3, #184	; 0xb8
    679a:	b5f0      	push	{r4, r5, r6, r7, lr}
    679c:	4657      	mov	r7, sl
    679e:	464e      	mov	r6, r9
    67a0:	4645      	mov	r5, r8
    67a2:	46de      	mov	lr, fp
    67a4:	4aa3      	ldr	r2, [pc, #652]	; (6a34 <drawTable+0x29c>)
    67a6:	005b      	lsls	r3, r3, #1
    67a8:	5cd2      	ldrb	r2, [r2, r3]
    67aa:	4ba2      	ldr	r3, [pc, #648]	; (6a34 <drawTable+0x29c>)
    67ac:	b5e0      	push	{r5, r6, r7, lr}
    67ae:	3371      	adds	r3, #113	; 0x71
    67b0:	33ff      	adds	r3, #255	; 0xff
    67b2:	785b      	ldrb	r3, [r3, #1]
    67b4:	b095      	sub	sp, #84	; 0x54
    67b6:	021b      	lsls	r3, r3, #8
    67b8:	4313      	orrs	r3, r2
    67ba:	9301      	str	r3, [sp, #4]
    67bc:	23b8      	movs	r3, #184	; 0xb8
    67be:	4a9e      	ldr	r2, [pc, #632]	; (6a38 <drawTable+0x2a0>)
    67c0:	5cd3      	ldrb	r3, [r2, r3]
    67c2:	4a9c      	ldr	r2, [pc, #624]	; (6a34 <drawTable+0x29c>)
    67c4:	3304      	adds	r3, #4
    67c6:	b2db      	uxtb	r3, r3
    67c8:	9302      	str	r3, [sp, #8]
    67ca:	23b9      	movs	r3, #185	; 0xb9
    67cc:	005b      	lsls	r3, r3, #1
    67ce:	5cd2      	ldrb	r2, [r2, r3]
    67d0:	4b98      	ldr	r3, [pc, #608]	; (6a34 <drawTable+0x29c>)
    67d2:	3373      	adds	r3, #115	; 0x73
    67d4:	33ff      	adds	r3, #255	; 0xff
    67d6:	785b      	ldrb	r3, [r3, #1]
    67d8:	021b      	lsls	r3, r3, #8
    67da:	4313      	orrs	r3, r2
    67dc:	9303      	str	r3, [sp, #12]
    67de:	23b9      	movs	r3, #185	; 0xb9
    67e0:	4a95      	ldr	r2, [pc, #596]	; (6a38 <drawTable+0x2a0>)
    67e2:	5cd3      	ldrb	r3, [r2, r3]
    67e4:	4a93      	ldr	r2, [pc, #588]	; (6a34 <drawTable+0x29c>)
    67e6:	3304      	adds	r3, #4
    67e8:	b2db      	uxtb	r3, r3
    67ea:	9304      	str	r3, [sp, #16]
    67ec:	23ba      	movs	r3, #186	; 0xba
    67ee:	005b      	lsls	r3, r3, #1
    67f0:	5cd2      	ldrb	r2, [r2, r3]
    67f2:	4b90      	ldr	r3, [pc, #576]	; (6a34 <drawTable+0x29c>)
    67f4:	3375      	adds	r3, #117	; 0x75
    67f6:	33ff      	adds	r3, #255	; 0xff
    67f8:	785b      	ldrb	r3, [r3, #1]
    67fa:	021b      	lsls	r3, r3, #8
    67fc:	4313      	orrs	r3, r2
    67fe:	9305      	str	r3, [sp, #20]
    6800:	23ba      	movs	r3, #186	; 0xba
    6802:	4a8d      	ldr	r2, [pc, #564]	; (6a38 <drawTable+0x2a0>)
    6804:	5cd3      	ldrb	r3, [r2, r3]
    6806:	4a8b      	ldr	r2, [pc, #556]	; (6a34 <drawTable+0x29c>)
    6808:	3304      	adds	r3, #4
    680a:	b2db      	uxtb	r3, r3
    680c:	9306      	str	r3, [sp, #24]
    680e:	23bb      	movs	r3, #187	; 0xbb
    6810:	005b      	lsls	r3, r3, #1
    6812:	5cd2      	ldrb	r2, [r2, r3]
    6814:	4b87      	ldr	r3, [pc, #540]	; (6a34 <drawTable+0x29c>)
    6816:	3377      	adds	r3, #119	; 0x77
    6818:	33ff      	adds	r3, #255	; 0xff
    681a:	785b      	ldrb	r3, [r3, #1]
    681c:	021b      	lsls	r3, r3, #8
    681e:	4313      	orrs	r3, r2
    6820:	9307      	str	r3, [sp, #28]
    6822:	23bb      	movs	r3, #187	; 0xbb
    6824:	4a84      	ldr	r2, [pc, #528]	; (6a38 <drawTable+0x2a0>)
    6826:	5cd3      	ldrb	r3, [r2, r3]
    6828:	4a82      	ldr	r2, [pc, #520]	; (6a34 <drawTable+0x29c>)
    682a:	3304      	adds	r3, #4
    682c:	b2db      	uxtb	r3, r3
    682e:	9308      	str	r3, [sp, #32]
    6830:	23bc      	movs	r3, #188	; 0xbc
    6832:	005b      	lsls	r3, r3, #1
    6834:	5cd2      	ldrb	r2, [r2, r3]
    6836:	4b7f      	ldr	r3, [pc, #508]	; (6a34 <drawTable+0x29c>)
    6838:	3379      	adds	r3, #121	; 0x79
    683a:	33ff      	adds	r3, #255	; 0xff
    683c:	785b      	ldrb	r3, [r3, #1]
    683e:	021b      	lsls	r3, r3, #8
    6840:	4313      	orrs	r3, r2
    6842:	9309      	str	r3, [sp, #36]	; 0x24
    6844:	23bc      	movs	r3, #188	; 0xbc
    6846:	4a7c      	ldr	r2, [pc, #496]	; (6a38 <drawTable+0x2a0>)
    6848:	5cd3      	ldrb	r3, [r2, r3]
    684a:	4a7a      	ldr	r2, [pc, #488]	; (6a34 <drawTable+0x29c>)
    684c:	3304      	adds	r3, #4
    684e:	b2db      	uxtb	r3, r3
    6850:	930a      	str	r3, [sp, #40]	; 0x28
    6852:	23bd      	movs	r3, #189	; 0xbd
    6854:	005b      	lsls	r3, r3, #1
    6856:	5cd2      	ldrb	r2, [r2, r3]
    6858:	4b76      	ldr	r3, [pc, #472]	; (6a34 <drawTable+0x29c>)
    685a:	337b      	adds	r3, #123	; 0x7b
    685c:	33ff      	adds	r3, #255	; 0xff
    685e:	785b      	ldrb	r3, [r3, #1]
    6860:	021b      	lsls	r3, r3, #8
    6862:	4313      	orrs	r3, r2
    6864:	930b      	str	r3, [sp, #44]	; 0x2c
    6866:	23bd      	movs	r3, #189	; 0xbd
    6868:	4a73      	ldr	r2, [pc, #460]	; (6a38 <drawTable+0x2a0>)
    686a:	5cd3      	ldrb	r3, [r2, r3]
    686c:	4a71      	ldr	r2, [pc, #452]	; (6a34 <drawTable+0x29c>)
    686e:	3304      	adds	r3, #4
    6870:	b2db      	uxtb	r3, r3
    6872:	930c      	str	r3, [sp, #48]	; 0x30
    6874:	23be      	movs	r3, #190	; 0xbe
    6876:	005b      	lsls	r3, r3, #1
    6878:	5cd2      	ldrb	r2, [r2, r3]
    687a:	4b6e      	ldr	r3, [pc, #440]	; (6a34 <drawTable+0x29c>)
    687c:	337d      	adds	r3, #125	; 0x7d
    687e:	33ff      	adds	r3, #255	; 0xff
    6880:	785b      	ldrb	r3, [r3, #1]
    6882:	021b      	lsls	r3, r3, #8
    6884:	4313      	orrs	r3, r2
    6886:	930d      	str	r3, [sp, #52]	; 0x34
    6888:	23be      	movs	r3, #190	; 0xbe
    688a:	4a6b      	ldr	r2, [pc, #428]	; (6a38 <drawTable+0x2a0>)
    688c:	5cd3      	ldrb	r3, [r2, r3]
    688e:	4a69      	ldr	r2, [pc, #420]	; (6a34 <drawTable+0x29c>)
    6890:	3304      	adds	r3, #4
    6892:	b2db      	uxtb	r3, r3
    6894:	930e      	str	r3, [sp, #56]	; 0x38
    6896:	23bf      	movs	r3, #191	; 0xbf
    6898:	005b      	lsls	r3, r3, #1
    689a:	5cd2      	ldrb	r2, [r2, r3]
    689c:	4b65      	ldr	r3, [pc, #404]	; (6a34 <drawTable+0x29c>)
    689e:	337f      	adds	r3, #127	; 0x7f
    68a0:	33ff      	adds	r3, #255	; 0xff
    68a2:	785b      	ldrb	r3, [r3, #1]
    68a4:	021b      	lsls	r3, r3, #8
    68a6:	4313      	orrs	r3, r2
    68a8:	930f      	str	r3, [sp, #60]	; 0x3c
    68aa:	23bf      	movs	r3, #191	; 0xbf
    68ac:	4a62      	ldr	r2, [pc, #392]	; (6a38 <drawTable+0x2a0>)
    68ae:	5cd3      	ldrb	r3, [r2, r3]
    68b0:	3304      	adds	r3, #4
    68b2:	b2db      	uxtb	r3, r3
    68b4:	9310      	str	r3, [sp, #64]	; 0x40
    68b6:	4b61      	ldr	r3, [pc, #388]	; (6a3c <drawTable+0x2a4>)
    68b8:	9311      	str	r3, [sp, #68]	; 0x44
    68ba:	4b61      	ldr	r3, [pc, #388]	; (6a40 <drawTable+0x2a8>)
    68bc:	9313      	str	r3, [sp, #76]	; 0x4c
    68be:	2300      	movs	r3, #0
    68c0:	9312      	str	r3, [sp, #72]	; 0x48
    68c2:	335e      	adds	r3, #94	; 0x5e
    68c4:	469a      	mov	sl, r3
    68c6:	3b2f      	subs	r3, #47	; 0x2f
    68c8:	4699      	mov	r9, r3
    68ca:	337f      	adds	r3, #127	; 0x7f
    68cc:	4698      	mov	r8, r3
    68ce:	9b12      	ldr	r3, [sp, #72]	; 0x48
    68d0:	9913      	ldr	r1, [sp, #76]	; 0x4c
    68d2:	469c      	mov	ip, r3
    68d4:	009e      	lsls	r6, r3, #2
    68d6:	4b5b      	ldr	r3, [pc, #364]	; (6a44 <drawTable+0x2ac>)
    68d8:	4466      	add	r6, ip
    68da:	469c      	mov	ip, r3
    68dc:	2301      	movs	r3, #1
    68de:	4466      	add	r6, ip
    68e0:	9a11      	ldr	r2, [sp, #68]	; 0x44
    68e2:	2400      	movs	r4, #0
    68e4:	469c      	mov	ip, r3
    68e6:	e036      	b.n	6956 <drawTable+0x1be>
    68e8:	091b      	lsrs	r3, r3, #4
    68ea:	d13c      	bne.n	6966 <drawTable+0x1ce>
    68ec:	9b01      	ldr	r3, [sp, #4]
    68ee:	9803      	ldr	r0, [sp, #12]
    68f0:	81d3      	strh	r3, [r2, #14]
    68f2:	9b02      	ldr	r3, [sp, #8]
    68f4:	3401      	adds	r4, #1
    68f6:	71cb      	strb	r3, [r1, #7]
    68f8:	4653      	mov	r3, sl
    68fa:	52d0      	strh	r0, [r2, r3]
    68fc:	464b      	mov	r3, r9
    68fe:	9804      	ldr	r0, [sp, #16]
    6900:	54c8      	strb	r0, [r1, r3]
    6902:	4643      	mov	r3, r8
    6904:	9805      	ldr	r0, [sp, #20]
    6906:	52d0      	strh	r0, [r2, r3]
    6908:	2057      	movs	r0, #87	; 0x57
    690a:	9b06      	ldr	r3, [sp, #24]
    690c:	540b      	strb	r3, [r1, r0]
    690e:	23fe      	movs	r3, #254	; 0xfe
    6910:	9807      	ldr	r0, [sp, #28]
    6912:	52d0      	strh	r0, [r2, r3]
    6914:	9808      	ldr	r0, [sp, #32]
    6916:	3b7f      	subs	r3, #127	; 0x7f
    6918:	54c8      	strb	r0, [r1, r3]
    691a:	9809      	ldr	r0, [sp, #36]	; 0x24
    691c:	33cf      	adds	r3, #207	; 0xcf
    691e:	52d0      	strh	r0, [r2, r3]
    6920:	980a      	ldr	r0, [sp, #40]	; 0x28
    6922:	3ba7      	subs	r3, #167	; 0xa7
    6924:	54c8      	strb	r0, [r1, r3]
    6926:	980b      	ldr	r0, [sp, #44]	; 0x2c
    6928:	33f7      	adds	r3, #247	; 0xf7
    692a:	52d0      	strh	r0, [r2, r3]
    692c:	980c      	ldr	r0, [sp, #48]	; 0x30
    692e:	3bcf      	subs	r3, #207	; 0xcf
    6930:	54c8      	strb	r0, [r1, r3]
    6932:	980d      	ldr	r0, [sp, #52]	; 0x34
    6934:	3320      	adds	r3, #32
    6936:	33ff      	adds	r3, #255	; 0xff
    6938:	52d0      	strh	r0, [r2, r3]
    693a:	980e      	ldr	r0, [sp, #56]	; 0x38
    693c:	3bf7      	subs	r3, #247	; 0xf7
    693e:	54c8      	strb	r0, [r1, r3]
    6940:	4b41      	ldr	r3, [pc, #260]	; (6a48 <drawTable+0x2b0>)
    6942:	980f      	ldr	r0, [sp, #60]	; 0x3c
    6944:	52d0      	strh	r0, [r2, r3]
    6946:	2320      	movs	r3, #32
    6948:	9810      	ldr	r0, [sp, #64]	; 0x40
    694a:	33ff      	adds	r3, #255	; 0xff
    694c:	54c8      	strb	r0, [r1, r3]
    694e:	3202      	adds	r2, #2
    6950:	3101      	adds	r1, #1
    6952:	2c0a      	cmp	r4, #10
    6954:	d057      	beq.n	6a06 <drawTable+0x26e>
    6956:	4660      	mov	r0, ip
    6958:	1063      	asrs	r3, r4, #1
    695a:	5cf3      	ldrb	r3, [r6, r3]
    695c:	4220      	tst	r0, r4
    695e:	d1c3      	bne.n	68e8 <drawTable+0x150>
    6960:	200f      	movs	r0, #15
    6962:	4003      	ands	r3, r0
    6964:	d0c2      	beq.n	68ec <drawTable+0x154>
    6966:	4d33      	ldr	r5, [pc, #204]	; (6a34 <drawTable+0x29c>)
    6968:	3b01      	subs	r3, #1
    696a:	46ab      	mov	fp, r5
    696c:	4d32      	ldr	r5, [pc, #200]	; (6a38 <drawTable+0x2a0>)
    696e:	0118      	lsls	r0, r3, #4
    6970:	4458      	add	r0, fp
    6972:	46ab      	mov	fp, r5
    6974:	4657      	mov	r7, sl
    6976:	8805      	ldrh	r5, [r0, #0]
    6978:	00db      	lsls	r3, r3, #3
    697a:	445b      	add	r3, fp
    697c:	81d5      	strh	r5, [r2, #14]
    697e:	781d      	ldrb	r5, [r3, #0]
    6980:	3401      	adds	r4, #1
    6982:	3504      	adds	r5, #4
    6984:	71cd      	strb	r5, [r1, #7]
    6986:	8845      	ldrh	r5, [r0, #2]
    6988:	53d5      	strh	r5, [r2, r7]
    698a:	464f      	mov	r7, r9
    698c:	785d      	ldrb	r5, [r3, #1]
    698e:	3504      	adds	r5, #4
    6990:	55cd      	strb	r5, [r1, r7]
    6992:	4647      	mov	r7, r8
    6994:	8885      	ldrh	r5, [r0, #4]
    6996:	53d5      	strh	r5, [r2, r7]
    6998:	2757      	movs	r7, #87	; 0x57
    699a:	789d      	ldrb	r5, [r3, #2]
    699c:	3504      	adds	r5, #4
    699e:	55cd      	strb	r5, [r1, r7]
    69a0:	88c5      	ldrh	r5, [r0, #6]
    69a2:	46ab      	mov	fp, r5
    69a4:	25fe      	movs	r5, #254	; 0xfe
    69a6:	465f      	mov	r7, fp
    69a8:	5357      	strh	r7, [r2, r5]
    69aa:	277f      	movs	r7, #127	; 0x7f
    69ac:	78dd      	ldrb	r5, [r3, #3]
    69ae:	3504      	adds	r5, #4
    69b0:	55cd      	strb	r5, [r1, r7]
    69b2:	8905      	ldrh	r5, [r0, #8]
    69b4:	46ab      	mov	fp, r5
    69b6:	25a7      	movs	r5, #167	; 0xa7
    69b8:	465f      	mov	r7, fp
    69ba:	006d      	lsls	r5, r5, #1
    69bc:	5357      	strh	r7, [r2, r5]
    69be:	27a7      	movs	r7, #167	; 0xa7
    69c0:	791d      	ldrb	r5, [r3, #4]
    69c2:	3504      	adds	r5, #4
    69c4:	55cd      	strb	r5, [r1, r7]
    69c6:	8945      	ldrh	r5, [r0, #10]
    69c8:	46ab      	mov	fp, r5
    69ca:	25cf      	movs	r5, #207	; 0xcf
    69cc:	465f      	mov	r7, fp
    69ce:	006d      	lsls	r5, r5, #1
    69d0:	5357      	strh	r7, [r2, r5]
    69d2:	27cf      	movs	r7, #207	; 0xcf
    69d4:	795d      	ldrb	r5, [r3, #5]
    69d6:	3504      	adds	r5, #4
    69d8:	55cd      	strb	r5, [r1, r7]
    69da:	8985      	ldrh	r5, [r0, #12]
    69dc:	46ab      	mov	fp, r5
    69de:	25f7      	movs	r5, #247	; 0xf7
    69e0:	465f      	mov	r7, fp
    69e2:	006d      	lsls	r5, r5, #1
    69e4:	5357      	strh	r7, [r2, r5]
    69e6:	27f7      	movs	r7, #247	; 0xf7
    69e8:	799d      	ldrb	r5, [r3, #6]
    69ea:	3504      	adds	r5, #4
    69ec:	55cd      	strb	r5, [r1, r7]
    69ee:	89c5      	ldrh	r5, [r0, #14]
    69f0:	4815      	ldr	r0, [pc, #84]	; (6a48 <drawTable+0x2b0>)
    69f2:	5215      	strh	r5, [r2, r0]
    69f4:	2020      	movs	r0, #32
    69f6:	79db      	ldrb	r3, [r3, #7]
    69f8:	30ff      	adds	r0, #255	; 0xff
    69fa:	3304      	adds	r3, #4
    69fc:	540b      	strb	r3, [r1, r0]
    69fe:	3202      	adds	r2, #2
    6a00:	3101      	adds	r1, #1
    6a02:	2c0a      	cmp	r4, #10
    6a04:	d1a7      	bne.n	6956 <drawTable+0x1be>
    6a06:	21a0      	movs	r1, #160	; 0xa0
    6a08:	0089      	lsls	r1, r1, #2
    6a0a:	468c      	mov	ip, r1
    6a0c:	9a11      	ldr	r2, [sp, #68]	; 0x44
    6a0e:	9b12      	ldr	r3, [sp, #72]	; 0x48
    6a10:	4462      	add	r2, ip
    6a12:	9211      	str	r2, [sp, #68]	; 0x44
    6a14:	9a13      	ldr	r2, [sp, #76]	; 0x4c
    6a16:	3301      	adds	r3, #1
    6a18:	3241      	adds	r2, #65	; 0x41
    6a1a:	32ff      	adds	r2, #255	; 0xff
    6a1c:	9312      	str	r3, [sp, #72]	; 0x48
    6a1e:	9213      	str	r2, [sp, #76]	; 0x4c
    6a20:	2b14      	cmp	r3, #20
    6a22:	d000      	beq.n	6a26 <drawTable+0x28e>
    6a24:	e753      	b.n	68ce <drawTable+0x136>
    6a26:	b015      	add	sp, #84	; 0x54
    6a28:	bc3c      	pop	{r2, r3, r4, r5}
    6a2a:	4690      	mov	r8, r2
    6a2c:	4699      	mov	r9, r3
    6a2e:	46a2      	mov	sl, r4
    6a30:	46ab      	mov	fp, r5
    6a32:	bdf0      	pop	{r4, r5, r6, r7, pc}
    6a34:	0001e1e0 	.word	0x0001e1e0
    6a38:	0001ddc0 	.word	0x0001ddc0
    6a3c:	20001540 	.word	0x20001540
    6a40:	20005ee0 	.word	0x20005ee0
    6a44:	20000708 	.word	0x20000708
    6a48:	0000023e 	.word	0x0000023e

00006a4c <drawBorders>:
    6a4c:	23f0      	movs	r3, #240	; 0xf0
    6a4e:	4ad8      	ldr	r2, [pc, #864]	; (6db0 <drawBorders+0x364>)
    6a50:	b5f0      	push	{r4, r5, r6, r7, lr}
    6a52:	5cd3      	ldrb	r3, [r2, r3]
    6a54:	32f0      	adds	r2, #240	; 0xf0
    6a56:	7851      	ldrb	r1, [r2, #1]
    6a58:	4657      	mov	r7, sl
    6a5a:	464e      	mov	r6, r9
    6a5c:	4645      	mov	r5, r8
    6a5e:	46de      	mov	lr, fp
    6a60:	0209      	lsls	r1, r1, #8
    6a62:	4319      	orrs	r1, r3
    6a64:	2378      	movs	r3, #120	; 0x78
    6a66:	b5e0      	push	{r5, r6, r7, lr}
    6a68:	4ad2      	ldr	r2, [pc, #840]	; (6db4 <drawBorders+0x368>)
    6a6a:	b095      	sub	sp, #84	; 0x54
    6a6c:	5cd3      	ldrb	r3, [r2, r3]
    6a6e:	4ad0      	ldr	r2, [pc, #832]	; (6db0 <drawBorders+0x364>)
    6a70:	3304      	adds	r3, #4
    6a72:	b2db      	uxtb	r3, r3
    6a74:	9304      	str	r3, [sp, #16]
    6a76:	23f2      	movs	r3, #242	; 0xf2
    6a78:	5cd3      	ldrb	r3, [r2, r3]
    6a7a:	32f2      	adds	r2, #242	; 0xf2
    6a7c:	7852      	ldrb	r2, [r2, #1]
    6a7e:	48cd      	ldr	r0, [pc, #820]	; (6db4 <drawBorders+0x368>)
    6a80:	0212      	lsls	r2, r2, #8
    6a82:	431a      	orrs	r2, r3
    6a84:	2379      	movs	r3, #121	; 0x79
    6a86:	5cc3      	ldrb	r3, [r0, r3]
    6a88:	48c9      	ldr	r0, [pc, #804]	; (6db0 <drawBorders+0x364>)
    6a8a:	3304      	adds	r3, #4
    6a8c:	b2db      	uxtb	r3, r3
    6a8e:	9305      	str	r3, [sp, #20]
    6a90:	23f4      	movs	r3, #244	; 0xf4
    6a92:	5cc0      	ldrb	r0, [r0, r3]
    6a94:	4bc6      	ldr	r3, [pc, #792]	; (6db0 <drawBorders+0x364>)
    6a96:	4cc7      	ldr	r4, [pc, #796]	; (6db4 <drawBorders+0x368>)
    6a98:	33f4      	adds	r3, #244	; 0xf4
    6a9a:	785b      	ldrb	r3, [r3, #1]
    6a9c:	021b      	lsls	r3, r3, #8
    6a9e:	4303      	orrs	r3, r0
    6aa0:	207a      	movs	r0, #122	; 0x7a
    6aa2:	5c20      	ldrb	r0, [r4, r0]
    6aa4:	4cc2      	ldr	r4, [pc, #776]	; (6db0 <drawBorders+0x364>)
    6aa6:	3004      	adds	r0, #4
    6aa8:	b2c0      	uxtb	r0, r0
    6aaa:	9006      	str	r0, [sp, #24]
    6aac:	20f6      	movs	r0, #246	; 0xf6
    6aae:	5c24      	ldrb	r4, [r4, r0]
    6ab0:	48bf      	ldr	r0, [pc, #764]	; (6db0 <drawBorders+0x364>)
    6ab2:	30f6      	adds	r0, #246	; 0xf6
    6ab4:	7840      	ldrb	r0, [r0, #1]
    6ab6:	0200      	lsls	r0, r0, #8
    6ab8:	4320      	orrs	r0, r4
    6aba:	4684      	mov	ip, r0
    6abc:	207b      	movs	r0, #123	; 0x7b
    6abe:	4cbd      	ldr	r4, [pc, #756]	; (6db4 <drawBorders+0x368>)
    6ac0:	5c20      	ldrb	r0, [r4, r0]
    6ac2:	4cbb      	ldr	r4, [pc, #748]	; (6db0 <drawBorders+0x364>)
    6ac4:	3004      	adds	r0, #4
    6ac6:	b2c0      	uxtb	r0, r0
    6ac8:	9007      	str	r0, [sp, #28]
    6aca:	20f8      	movs	r0, #248	; 0xf8
    6acc:	5c24      	ldrb	r4, [r4, r0]
    6ace:	48b8      	ldr	r0, [pc, #736]	; (6db0 <drawBorders+0x364>)
    6ad0:	30f8      	adds	r0, #248	; 0xf8
    6ad2:	7840      	ldrb	r0, [r0, #1]
    6ad4:	0200      	lsls	r0, r0, #8
    6ad6:	4320      	orrs	r0, r4
    6ad8:	900c      	str	r0, [sp, #48]	; 0x30
    6ada:	207c      	movs	r0, #124	; 0x7c
    6adc:	4cb5      	ldr	r4, [pc, #724]	; (6db4 <drawBorders+0x368>)
    6ade:	4db4      	ldr	r5, [pc, #720]	; (6db0 <drawBorders+0x364>)
    6ae0:	5c20      	ldrb	r0, [r4, r0]
    6ae2:	35fa      	adds	r5, #250	; 0xfa
    6ae4:	3004      	adds	r0, #4
    6ae6:	b2c4      	uxtb	r4, r0
    6ae8:	20fa      	movs	r0, #250	; 0xfa
    6aea:	9408      	str	r4, [sp, #32]
    6aec:	4cb0      	ldr	r4, [pc, #704]	; (6db0 <drawBorders+0x364>)
    6aee:	4eb0      	ldr	r6, [pc, #704]	; (6db0 <drawBorders+0x364>)
    6af0:	5c24      	ldrb	r4, [r4, r0]
    6af2:	7868      	ldrb	r0, [r5, #1]
    6af4:	36fc      	adds	r6, #252	; 0xfc
    6af6:	0200      	lsls	r0, r0, #8
    6af8:	0005      	movs	r5, r0
    6afa:	207d      	movs	r0, #125	; 0x7d
    6afc:	4325      	orrs	r5, r4
    6afe:	4cad      	ldr	r4, [pc, #692]	; (6db4 <drawBorders+0x368>)
    6b00:	4fab      	ldr	r7, [pc, #684]	; (6db0 <drawBorders+0x364>)
    6b02:	5c20      	ldrb	r0, [r4, r0]
    6b04:	37fe      	adds	r7, #254	; 0xfe
    6b06:	3004      	adds	r0, #4
    6b08:	b2c4      	uxtb	r4, r0
    6b0a:	20fc      	movs	r0, #252	; 0xfc
    6b0c:	9409      	str	r4, [sp, #36]	; 0x24
    6b0e:	4ca8      	ldr	r4, [pc, #672]	; (6db0 <drawBorders+0x364>)
    6b10:	950d      	str	r5, [sp, #52]	; 0x34
    6b12:	5c24      	ldrb	r4, [r4, r0]
    6b14:	7870      	ldrb	r0, [r6, #1]
    6b16:	4da8      	ldr	r5, [pc, #672]	; (6db8 <drawBorders+0x36c>)
    6b18:	0200      	lsls	r0, r0, #8
    6b1a:	0006      	movs	r6, r0
    6b1c:	207e      	movs	r0, #126	; 0x7e
    6b1e:	4326      	orrs	r6, r4
    6b20:	4ca4      	ldr	r4, [pc, #656]	; (6db4 <drawBorders+0x368>)
    6b22:	960e      	str	r6, [sp, #56]	; 0x38
    6b24:	5c20      	ldrb	r0, [r4, r0]
    6b26:	2650      	movs	r6, #80	; 0x50
    6b28:	3004      	adds	r0, #4
    6b2a:	b2c4      	uxtb	r4, r0
    6b2c:	20fe      	movs	r0, #254	; 0xfe
    6b2e:	940a      	str	r4, [sp, #40]	; 0x28
    6b30:	4c9f      	ldr	r4, [pc, #636]	; (6db0 <drawBorders+0x364>)
    6b32:	46b0      	mov	r8, r6
    6b34:	5c24      	ldrb	r4, [r4, r0]
    6b36:	7878      	ldrb	r0, [r7, #1]
    6b38:	44a8      	add	r8, r5
    6b3a:	0200      	lsls	r0, r0, #8
    6b3c:	0007      	movs	r7, r0
    6b3e:	207f      	movs	r0, #127	; 0x7f
    6b40:	4327      	orrs	r7, r4
    6b42:	4c9c      	ldr	r4, [pc, #624]	; (6db4 <drawBorders+0x368>)
    6b44:	4646      	mov	r6, r8
    6b46:	5c20      	ldrb	r0, [r4, r0]
    6b48:	9713      	str	r7, [sp, #76]	; 0x4c
    6b4a:	3004      	adds	r0, #4
    6b4c:	b2c4      	uxtb	r4, r0
    6b4e:	4660      	mov	r0, ip
    6b50:	4f9a      	ldr	r7, [pc, #616]	; (6dbc <drawBorders+0x370>)
    6b52:	940b      	str	r4, [sp, #44]	; 0x2c
    6b54:	46b8      	mov	r8, r7
    6b56:	002f      	movs	r7, r5
    6b58:	4c99      	ldr	r4, [pc, #612]	; (6dc0 <drawBorders+0x374>)
    6b5a:	0400      	lsls	r0, r0, #16
    6b5c:	9402      	str	r4, [sp, #8]
    6b5e:	9603      	str	r6, [sp, #12]
    6b60:	900f      	str	r0, [sp, #60]	; 0x3c
    6b62:	980c      	ldr	r0, [sp, #48]	; 0x30
    6b64:	2650      	movs	r6, #80	; 0x50
    6b66:	0400      	lsls	r0, r0, #16
    6b68:	9010      	str	r0, [sp, #64]	; 0x40
    6b6a:	980d      	ldr	r0, [sp, #52]	; 0x34
    6b6c:	3fe1      	subs	r7, #225	; 0xe1
    6b6e:	0400      	lsls	r0, r0, #16
    6b70:	9011      	str	r0, [sp, #68]	; 0x44
    6b72:	980e      	ldr	r0, [sp, #56]	; 0x38
    6b74:	3fff      	subs	r7, #255	; 0xff
    6b76:	0400      	lsls	r0, r0, #16
    6b78:	9012      	str	r0, [sp, #72]	; 0x48
    6b7a:	9813      	ldr	r0, [sp, #76]	; 0x4c
    6b7c:	4276      	negs	r6, r6
    6b7e:	0400      	lsls	r0, r0, #16
    6b80:	9013      	str	r0, [sp, #76]	; 0x4c
    6b82:	0408      	lsls	r0, r1, #16
    6b84:	4308      	orrs	r0, r1
    6b86:	0411      	lsls	r1, r2, #16
    6b88:	4311      	orrs	r1, r2
    6b8a:	041a      	lsls	r2, r3, #16
    6b8c:	431a      	orrs	r2, r3
    6b8e:	003b      	movs	r3, r7
    6b90:	46b3      	mov	fp, r6
    6b92:	19b6      	adds	r6, r6, r6
    6b94:	46b2      	mov	sl, r6
    6b96:	3e50      	subs	r6, #80	; 0x50
    6b98:	46b1      	mov	r9, r6
    6b9a:	002e      	movs	r6, r5
    6b9c:	44a8      	add	r8, r5
    6b9e:	4647      	mov	r7, r8
    6ba0:	4698      	mov	r8, r3
    6ba2:	4c88      	ldr	r4, [pc, #544]	; (6dc4 <drawBorders+0x378>)
    6ba4:	3e41      	subs	r6, #65	; 0x41
    6ba6:	192c      	adds	r4, r5, r4
    6ba8:	44ab      	add	fp, r5
    6baa:	44aa      	add	sl, r5
    6bac:	44a9      	add	r9, r5
    6bae:	3eff      	subs	r6, #255	; 0xff
    6bb0:	900c      	str	r0, [sp, #48]	; 0x30
    6bb2:	910d      	str	r1, [sp, #52]	; 0x34
    6bb4:	920e      	str	r2, [sp, #56]	; 0x38
    6bb6:	4643      	mov	r3, r8
    6bb8:	9a0c      	ldr	r2, [sp, #48]	; 0x30
    6bba:	c404      	stmia	r4!, {r2}
    6bbc:	42a3      	cmp	r3, r4
    6bbe:	d1fc      	bne.n	6bba <drawBorders+0x16e>
    6bc0:	9802      	ldr	r0, [sp, #8]
    6bc2:	4698      	mov	r8, r3
    6bc4:	3819      	subs	r0, #25
    6bc6:	4b80      	ldr	r3, [pc, #512]	; (6dc8 <drawBorders+0x37c>)
    6bc8:	2228      	movs	r2, #40	; 0x28
    6bca:	9904      	ldr	r1, [sp, #16]
    6bcc:	38ff      	subs	r0, #255	; 0xff
    6bce:	4798      	blx	r3
    6bd0:	9b0d      	ldr	r3, [sp, #52]	; 0x34
    6bd2:	c408      	stmia	r4!, {r3}
    6bd4:	42a7      	cmp	r7, r4
    6bd6:	d1fc      	bne.n	6bd2 <drawBorders+0x186>
    6bd8:	9802      	ldr	r0, [sp, #8]
    6bda:	4b7b      	ldr	r3, [pc, #492]	; (6dc8 <drawBorders+0x37c>)
    6bdc:	2228      	movs	r2, #40	; 0x28
    6bde:	9905      	ldr	r1, [sp, #20]
    6be0:	38f0      	subs	r0, #240	; 0xf0
    6be2:	4798      	blx	r3
    6be4:	9b0e      	ldr	r3, [sp, #56]	; 0x38
    6be6:	c408      	stmia	r4!, {r3}
    6be8:	42b4      	cmp	r4, r6
    6bea:	d1fc      	bne.n	6be6 <drawBorders+0x19a>
    6bec:	9802      	ldr	r0, [sp, #8]
    6bee:	2228      	movs	r2, #40	; 0x28
    6bf0:	4b75      	ldr	r3, [pc, #468]	; (6dc8 <drawBorders+0x37c>)
    6bf2:	9906      	ldr	r1, [sp, #24]
    6bf4:	38c8      	subs	r0, #200	; 0xc8
    6bf6:	4798      	blx	r3
    6bf8:	9a0f      	ldr	r2, [sp, #60]	; 0x3c
    6bfa:	0034      	movs	r4, r6
    6bfc:	0c13      	lsrs	r3, r2, #16
    6bfe:	4313      	orrs	r3, r2
    6c00:	464a      	mov	r2, r9
    6c02:	c408      	stmia	r4!, {r3}
    6c04:	42a2      	cmp	r2, r4
    6c06:	d1fc      	bne.n	6c02 <drawBorders+0x1b6>
    6c08:	9802      	ldr	r0, [sp, #8]
    6c0a:	4b6f      	ldr	r3, [pc, #444]	; (6dc8 <drawBorders+0x37c>)
    6c0c:	4691      	mov	r9, r2
    6c0e:	9907      	ldr	r1, [sp, #28]
    6c10:	2228      	movs	r2, #40	; 0x28
    6c12:	38a0      	subs	r0, #160	; 0xa0
    6c14:	4798      	blx	r3
    6c16:	9a10      	ldr	r2, [sp, #64]	; 0x40
    6c18:	0c13      	lsrs	r3, r2, #16
    6c1a:	4313      	orrs	r3, r2
    6c1c:	4652      	mov	r2, sl
    6c1e:	c408      	stmia	r4!, {r3}
    6c20:	42a2      	cmp	r2, r4
    6c22:	d1fc      	bne.n	6c1e <drawBorders+0x1d2>
    6c24:	9802      	ldr	r0, [sp, #8]
    6c26:	4b68      	ldr	r3, [pc, #416]	; (6dc8 <drawBorders+0x37c>)
    6c28:	4692      	mov	sl, r2
    6c2a:	9908      	ldr	r1, [sp, #32]
    6c2c:	2228      	movs	r2, #40	; 0x28
    6c2e:	3878      	subs	r0, #120	; 0x78
    6c30:	4798      	blx	r3
    6c32:	9a11      	ldr	r2, [sp, #68]	; 0x44
    6c34:	0c13      	lsrs	r3, r2, #16
    6c36:	4313      	orrs	r3, r2
    6c38:	465a      	mov	r2, fp
    6c3a:	c408      	stmia	r4!, {r3}
    6c3c:	42a2      	cmp	r2, r4
    6c3e:	d1fc      	bne.n	6c3a <drawBorders+0x1ee>
    6c40:	9802      	ldr	r0, [sp, #8]
    6c42:	4b61      	ldr	r3, [pc, #388]	; (6dc8 <drawBorders+0x37c>)
    6c44:	4693      	mov	fp, r2
    6c46:	9909      	ldr	r1, [sp, #36]	; 0x24
    6c48:	2228      	movs	r2, #40	; 0x28
    6c4a:	3850      	subs	r0, #80	; 0x50
    6c4c:	4798      	blx	r3
    6c4e:	9a12      	ldr	r2, [sp, #72]	; 0x48
    6c50:	0c13      	lsrs	r3, r2, #16
    6c52:	4313      	orrs	r3, r2
    6c54:	c408      	stmia	r4!, {r3}
    6c56:	42a5      	cmp	r5, r4
    6c58:	d1fc      	bne.n	6c54 <drawBorders+0x208>
    6c5a:	9802      	ldr	r0, [sp, #8]
    6c5c:	2228      	movs	r2, #40	; 0x28
    6c5e:	4b5a      	ldr	r3, [pc, #360]	; (6dc8 <drawBorders+0x37c>)
    6c60:	990a      	ldr	r1, [sp, #40]	; 0x28
    6c62:	3828      	subs	r0, #40	; 0x28
    6c64:	4798      	blx	r3
    6c66:	9a13      	ldr	r2, [sp, #76]	; 0x4c
    6c68:	0c13      	lsrs	r3, r2, #16
    6c6a:	4313      	orrs	r3, r2
    6c6c:	9a03      	ldr	r2, [sp, #12]
    6c6e:	c408      	stmia	r4!, {r3}
    6c70:	42a2      	cmp	r2, r4
    6c72:	d1fc      	bne.n	6c6e <drawBorders+0x222>
    6c74:	2228      	movs	r2, #40	; 0x28
    6c76:	990b      	ldr	r1, [sp, #44]	; 0x2c
    6c78:	9802      	ldr	r0, [sp, #8]
    6c7a:	4c53      	ldr	r4, [pc, #332]	; (6dc8 <drawBorders+0x37c>)
    6c7c:	47a0      	blx	r4
    6c7e:	9b02      	ldr	r3, [sp, #8]
    6c80:	3341      	adds	r3, #65	; 0x41
    6c82:	33ff      	adds	r3, #255	; 0xff
    6c84:	9302      	str	r3, [sp, #8]
    6c86:	23a0      	movs	r3, #160	; 0xa0
    6c88:	009b      	lsls	r3, r3, #2
    6c8a:	469c      	mov	ip, r3
    6c8c:	9b03      	ldr	r3, [sp, #12]
    6c8e:	4465      	add	r5, ip
    6c90:	4463      	add	r3, ip
    6c92:	9303      	str	r3, [sp, #12]
    6c94:	4b4d      	ldr	r3, [pc, #308]	; (6dcc <drawBorders+0x380>)
    6c96:	44e3      	add	fp, ip
    6c98:	44e2      	add	sl, ip
    6c9a:	44e1      	add	r9, ip
    6c9c:	4466      	add	r6, ip
    6c9e:	4467      	add	r7, ip
    6ca0:	44e0      	add	r8, ip
    6ca2:	429d      	cmp	r5, r3
    6ca4:	d002      	beq.n	6cac <drawBorders+0x260>
    6ca6:	4b47      	ldr	r3, [pc, #284]	; (6dc4 <drawBorders+0x378>)
    6ca8:	18ec      	adds	r4, r5, r3
    6caa:	e784      	b.n	6bb6 <drawBorders+0x16a>
    6cac:	2328      	movs	r3, #40	; 0x28
    6cae:	469c      	mov	ip, r3
    6cb0:	3350      	adds	r3, #80	; 0x50
    6cb2:	469a      	mov	sl, r3
    6cb4:	3328      	adds	r3, #40	; 0x28
    6cb6:	4e46      	ldr	r6, [pc, #280]	; (6dd0 <drawBorders+0x384>)
    6cb8:	4699      	mov	r9, r3
    6cba:	3328      	adds	r3, #40	; 0x28
    6cbc:	4698      	mov	r8, r3
    6cbe:	3328      	adds	r3, #40	; 0x28
    6cc0:	469b      	mov	fp, r3
    6cc2:	44b4      	add	ip, r6
    6cc4:	0037      	movs	r7, r6
    6cc6:	2300      	movs	r3, #0
    6cc8:	4664      	mov	r4, ip
    6cca:	3750      	adds	r7, #80	; 0x50
    6ccc:	44b2      	add	sl, r6
    6cce:	44b1      	add	r9, r6
    6cd0:	44b0      	add	r8, r6
    6cd2:	44b3      	add	fp, r6
    6cd4:	9304      	str	r3, [sp, #16]
    6cd6:	9b04      	ldr	r3, [sp, #16]
    6cd8:	4a3e      	ldr	r2, [pc, #248]	; (6dd4 <drawBorders+0x388>)
    6cda:	469c      	mov	ip, r3
    6cdc:	5cd2      	ldrb	r2, [r2, r3]
    6cde:	493e      	ldr	r1, [pc, #248]	; (6dd8 <drawBorders+0x38c>)
    6ce0:	9202      	str	r2, [sp, #8]
    6ce2:	009a      	lsls	r2, r3, #2
    6ce4:	4462      	add	r2, ip
    6ce6:	468c      	mov	ip, r1
    6ce8:	4831      	ldr	r0, [pc, #196]	; (6db0 <drawBorders+0x364>)
    6cea:	01d2      	lsls	r2, r2, #7
    6cec:	4462      	add	r2, ip
    6cee:	4684      	mov	ip, r0
    6cf0:	109b      	asrs	r3, r3, #2
    6cf2:	0119      	lsls	r1, r3, #4
    6cf4:	4461      	add	r1, ip
    6cf6:	9105      	str	r1, [sp, #20]
    6cf8:	492e      	ldr	r1, [pc, #184]	; (6db4 <drawBorders+0x368>)
    6cfa:	00db      	lsls	r3, r3, #3
    6cfc:	468c      	mov	ip, r1
    6cfe:	218c      	movs	r1, #140	; 0x8c
    6d00:	0049      	lsls	r1, r1, #1
    6d02:	4463      	add	r3, ip
    6d04:	468c      	mov	ip, r1
    6d06:	44b4      	add	ip, r6
    6d08:	4661      	mov	r1, ip
    6d0a:	9306      	str	r3, [sp, #24]
    6d0c:	9103      	str	r1, [sp, #12]
    6d0e:	2300      	movs	r3, #0
    6d10:	46a4      	mov	ip, r4
    6d12:	e042      	b.n	6d9a <drawBorders+0x34e>
    6d14:	9904      	ldr	r1, [sp, #16]
    6d16:	2905      	cmp	r1, #5
    6d18:	dc00      	bgt.n	6d1c <drawBorders+0x2d0>
    6d1a:	e08f      	b.n	6e3c <drawBorders+0x3f0>
    6d1c:	9906      	ldr	r1, [sp, #24]
    6d1e:	9805      	ldr	r0, [sp, #20]
    6d20:	2550      	movs	r5, #80	; 0x50
    6d22:	8804      	ldrh	r4, [r0, #0]
    6d24:	8014      	strh	r4, [r2, #0]
    6d26:	780c      	ldrb	r4, [r1, #0]
    6d28:	3404      	adds	r4, #4
    6d2a:	54f4      	strb	r4, [r6, r3]
    6d2c:	8844      	ldrh	r4, [r0, #2]
    6d2e:	5354      	strh	r4, [r2, r5]
    6d30:	4665      	mov	r5, ip
    6d32:	784c      	ldrb	r4, [r1, #1]
    6d34:	3404      	adds	r4, #4
    6d36:	54ec      	strb	r4, [r5, r3]
    6d38:	25a0      	movs	r5, #160	; 0xa0
    6d3a:	8884      	ldrh	r4, [r0, #4]
    6d3c:	5354      	strh	r4, [r2, r5]
    6d3e:	788c      	ldrb	r4, [r1, #2]
    6d40:	88c5      	ldrh	r5, [r0, #6]
    6d42:	3404      	adds	r4, #4
    6d44:	54fc      	strb	r4, [r7, r3]
    6d46:	24f0      	movs	r4, #240	; 0xf0
    6d48:	5315      	strh	r5, [r2, r4]
    6d4a:	4655      	mov	r5, sl
    6d4c:	78cc      	ldrb	r4, [r1, #3]
    6d4e:	3404      	adds	r4, #4
    6d50:	54ec      	strb	r4, [r5, r3]
    6d52:	24a0      	movs	r4, #160	; 0xa0
    6d54:	8905      	ldrh	r5, [r0, #8]
    6d56:	0064      	lsls	r4, r4, #1
    6d58:	5315      	strh	r5, [r2, r4]
    6d5a:	464d      	mov	r5, r9
    6d5c:	790c      	ldrb	r4, [r1, #4]
    6d5e:	3404      	adds	r4, #4
    6d60:	54ec      	strb	r4, [r5, r3]
    6d62:	24c8      	movs	r4, #200	; 0xc8
    6d64:	8945      	ldrh	r5, [r0, #10]
    6d66:	0064      	lsls	r4, r4, #1
    6d68:	5315      	strh	r5, [r2, r4]
    6d6a:	4645      	mov	r5, r8
    6d6c:	794c      	ldrb	r4, [r1, #5]
    6d6e:	3404      	adds	r4, #4
    6d70:	54ec      	strb	r4, [r5, r3]
    6d72:	24f0      	movs	r4, #240	; 0xf0
    6d74:	8985      	ldrh	r5, [r0, #12]
    6d76:	0064      	lsls	r4, r4, #1
    6d78:	5315      	strh	r5, [r2, r4]
    6d7a:	465d      	mov	r5, fp
    6d7c:	798c      	ldrb	r4, [r1, #6]
    6d7e:	79c9      	ldrb	r1, [r1, #7]
    6d80:	3404      	adds	r4, #4
    6d82:	54ec      	strb	r4, [r5, r3]
    6d84:	89c4      	ldrh	r4, [r0, #14]
    6d86:	208c      	movs	r0, #140	; 0x8c
    6d88:	0080      	lsls	r0, r0, #2
    6d8a:	5214      	strh	r4, [r2, r0]
    6d8c:	9803      	ldr	r0, [sp, #12]
    6d8e:	3104      	adds	r1, #4
    6d90:	54c1      	strb	r1, [r0, r3]
    6d92:	3301      	adds	r3, #1
    6d94:	3202      	adds	r2, #2
    6d96:	2b08      	cmp	r3, #8
    6d98:	d024      	beq.n	6de4 <drawBorders+0x398>
    6d9a:	2107      	movs	r1, #7
    6d9c:	2001      	movs	r0, #1
    6d9e:	1ac9      	subs	r1, r1, r3
    6da0:	4088      	lsls	r0, r1
    6da2:	0001      	movs	r1, r0
    6da4:	9802      	ldr	r0, [sp, #8]
    6da6:	4208      	tst	r0, r1
    6da8:	d1b4      	bne.n	6d14 <drawBorders+0x2c8>
    6daa:	490c      	ldr	r1, [pc, #48]	; (6ddc <drawBorders+0x390>)
    6dac:	480c      	ldr	r0, [pc, #48]	; (6de0 <drawBorders+0x394>)
    6dae:	e7b7      	b.n	6d20 <drawBorders+0x2d4>
    6db0:	0001e1e0 	.word	0x0001e1e0
    6db4:	0001ddc0 	.word	0x0001ddc0
    6db8:	20000d70 	.word	0x20000d70
    6dbc:	fffffe70 	.word	0xfffffe70
    6dc0:	20005af8 	.word	0x20005af8
    6dc4:	fffffdd0 	.word	0xfffffdd0
    6dc8:	0000bd5d 	.word	0x0000bd5d
    6dcc:	20004bf0 	.word	0x20004bf0
    6dd0:	200059e0 	.word	0x200059e0
    6dd4:	0001d9bc 	.word	0x0001d9bc
    6dd8:	20000b40 	.word	0x20000b40
    6ddc:	0001de38 	.word	0x0001de38
    6de0:	0001e2d0 	.word	0x0001e2d0
    6de4:	22a0      	movs	r2, #160	; 0xa0
    6de6:	0052      	lsls	r2, r2, #1
    6de8:	4664      	mov	r4, ip
    6dea:	4694      	mov	ip, r2
    6dec:	9b04      	ldr	r3, [sp, #16]
    6dee:	3641      	adds	r6, #65	; 0x41
    6df0:	3301      	adds	r3, #1
    6df2:	9304      	str	r3, [sp, #16]
    6df4:	36ff      	adds	r6, #255	; 0xff
    6df6:	4464      	add	r4, ip
    6df8:	18bf      	adds	r7, r7, r2
    6dfa:	44e2      	add	sl, ip
    6dfc:	44e1      	add	r9, ip
    6dfe:	44e0      	add	r8, ip
    6e00:	44e3      	add	fp, ip
    6e02:	2b19      	cmp	r3, #25
    6e04:	d000      	beq.n	6e08 <drawBorders+0x3bc>
    6e06:	e766      	b.n	6cd6 <drawBorders+0x28a>
    6e08:	2600      	movs	r6, #0
    6e0a:	2501      	movs	r5, #1
    6e0c:	4b0d      	ldr	r3, [pc, #52]	; (6e44 <drawBorders+0x3f8>)
    6e0e:	4798      	blx	r3
    6e10:	4c0d      	ldr	r4, [pc, #52]	; (6e48 <drawBorders+0x3fc>)
    6e12:	9601      	str	r6, [sp, #4]
    6e14:	9500      	str	r5, [sp, #0]
    6e16:	230c      	movs	r3, #12
    6e18:	2215      	movs	r2, #21
    6e1a:	490c      	ldr	r1, [pc, #48]	; (6e4c <drawBorders+0x400>)
    6e1c:	2000      	movs	r0, #0
    6e1e:	47a0      	blx	r4
    6e20:	9601      	str	r6, [sp, #4]
    6e22:	9500      	str	r5, [sp, #0]
    6e24:	230c      	movs	r3, #12
    6e26:	221c      	movs	r2, #28
    6e28:	4909      	ldr	r1, [pc, #36]	; (6e50 <drawBorders+0x404>)
    6e2a:	2000      	movs	r0, #0
    6e2c:	47a0      	blx	r4
    6e2e:	b015      	add	sp, #84	; 0x54
    6e30:	bc3c      	pop	{r2, r3, r4, r5}
    6e32:	4690      	mov	r8, r2
    6e34:	4699      	mov	r9, r3
    6e36:	46a2      	mov	sl, r4
    6e38:	46ab      	mov	fp, r5
    6e3a:	bdf0      	pop	{r4, r5, r6, r7, pc}
    6e3c:	4905      	ldr	r1, [pc, #20]	; (6e54 <drawBorders+0x408>)
    6e3e:	4806      	ldr	r0, [pc, #24]	; (6e58 <drawBorders+0x40c>)
    6e40:	e76e      	b.n	6d20 <drawBorders+0x2d4>
    6e42:	46c0      	nop			; (mov r8, r8)
    6e44:	00006799 	.word	0x00006799
    6e48:	0000b765 	.word	0x0000b765
    6e4c:	0001db80 	.word	0x0001db80
    6e50:	0001db88 	.word	0x0001db88
    6e54:	0001ddc0 	.word	0x0001ddc0
    6e58:	0001e1e0 	.word	0x0001e1e0

00006e5c <drawTetromino>:
    6e5c:	b5f0      	push	{r4, r5, r6, r7, lr}
    6e5e:	46de      	mov	lr, fp
    6e60:	4657      	mov	r7, sl
    6e62:	464e      	mov	r6, r9
    6e64:	4645      	mov	r5, r8
    6e66:	b5e0      	push	{r5, r6, r7, lr}
    6e68:	b08f      	sub	sp, #60	; 0x3c
    6e6a:	9207      	str	r2, [sp, #28]
    6e6c:	2200      	movs	r2, #0
    6e6e:	9308      	str	r3, [sp, #32]
    6e70:	b243      	sxtb	r3, r0
    6e72:	9209      	str	r2, [sp, #36]	; 0x24
    6e74:	2b00      	cmp	r3, #0
    6e76:	da03      	bge.n	6e80 <drawTetromino+0x24>
    6e78:	237f      	movs	r3, #127	; 0x7f
    6e7a:	4018      	ands	r0, r3
    6e7c:	3b7e      	subs	r3, #126	; 0x7e
    6e7e:	9309      	str	r3, [sp, #36]	; 0x24
    6e80:	0084      	lsls	r4, r0, #2
    6e82:	1820      	adds	r0, r4, r0
    6e84:	4bdb      	ldr	r3, [pc, #876]	; (71f4 <drawTetromino+0x398>)
    6e86:	0040      	lsls	r0, r0, #1
    6e88:	181a      	adds	r2, r3, r0
    6e8a:	0014      	movs	r4, r2
    6e8c:	3424      	adds	r4, #36	; 0x24
    6e8e:	7824      	ldrb	r4, [r4, #0]
    6e90:	9406      	str	r4, [sp, #24]
    6e92:	2c00      	cmp	r4, #0
    6e94:	d100      	bne.n	6e98 <drawTetromino+0x3c>
    6e96:	e180      	b.n	719a <drawTetromino+0x33e>
    6e98:	3225      	adds	r2, #37	; 0x25
    6e9a:	7812      	ldrb	r2, [r2, #0]
    6e9c:	9205      	str	r2, [sp, #20]
    6e9e:	2a00      	cmp	r2, #0
    6ea0:	d100      	bne.n	6ea4 <drawTetromino+0x48>
    6ea2:	e17a      	b.n	719a <drawTetromino+0x33e>
    6ea4:	9d07      	ldr	r5, [sp, #28]
    6ea6:	0026      	movs	r6, r4
    6ea8:	46ac      	mov	ip, r5
    6eaa:	9f08      	ldr	r7, [sp, #32]
    6eac:	4466      	add	r6, ip
    6eae:	46bc      	mov	ip, r7
    6eb0:	4464      	add	r4, ip
    6eb2:	9502      	str	r5, [sp, #8]
    6eb4:	0025      	movs	r5, r4
    6eb6:	001c      	movs	r4, r3
    6eb8:	9b05      	ldr	r3, [sp, #20]
    6eba:	9701      	str	r7, [sp, #4]
    6ebc:	001a      	movs	r2, r3
    6ebe:	4462      	add	r2, ip
    6ec0:	920c      	str	r2, [sp, #48]	; 0x30
    6ec2:	3a01      	subs	r2, #1
    6ec4:	920a      	str	r2, [sp, #40]	; 0x28
    6ec6:	9a07      	ldr	r2, [sp, #28]
    6ec8:	2700      	movs	r7, #0
    6eca:	4694      	mov	ip, r2
    6ecc:	4463      	add	r3, ip
    6ece:	341c      	adds	r4, #28
    6ed0:	930d      	str	r3, [sp, #52]	; 0x34
    6ed2:	3b01      	subs	r3, #1
    6ed4:	1824      	adds	r4, r4, r0
    6ed6:	930b      	str	r3, [sp, #44]	; 0x2c
    6ed8:	9703      	str	r7, [sp, #12]
    6eda:	2902      	cmp	r1, #2
    6edc:	d100      	bne.n	6ee0 <drawTetromino+0x84>
    6ede:	e173      	b.n	71c8 <drawTetromino+0x36c>
    6ee0:	2903      	cmp	r1, #3
    6ee2:	d100      	bne.n	6ee6 <drawTetromino+0x8a>
    6ee4:	e16b      	b.n	71be <drawTetromino+0x362>
    6ee6:	2901      	cmp	r1, #1
    6ee8:	d100      	bne.n	6eec <drawTetromino+0x90>
    6eea:	e15d      	b.n	71a8 <drawTetromino+0x34c>
    6eec:	9802      	ldr	r0, [sp, #8]
    6eee:	9a08      	ldr	r2, [sp, #32]
    6ef0:	3d01      	subs	r5, #1
    6ef2:	3e01      	subs	r6, #1
    6ef4:	7823      	ldrb	r3, [r4, #0]
    6ef6:	2b00      	cmp	r3, #0
    6ef8:	d100      	bne.n	6efc <drawTetromino+0xa0>
    6efa:	e095      	b.n	7028 <drawTetromino+0x1cc>
    6efc:	3204      	adds	r2, #4
    6efe:	4694      	mov	ip, r2
    6f00:	4fbd      	ldr	r7, [pc, #756]	; (71f8 <drawTetromino+0x39c>)
    6f02:	0092      	lsls	r2, r2, #2
    6f04:	4462      	add	r2, ip
    6f06:	46bc      	mov	ip, r7
    6f08:	3007      	adds	r0, #7
    6f0a:	0192      	lsls	r2, r2, #6
    6f0c:	1812      	adds	r2, r2, r0
    6f0e:	4fbb      	ldr	r7, [pc, #748]	; (71fc <drawTetromino+0x3a0>)
    6f10:	0050      	lsls	r0, r2, #1
    6f12:	4460      	add	r0, ip
    6f14:	46bc      	mov	ip, r7
    6f16:	9f09      	ldr	r7, [sp, #36]	; 0x24
    6f18:	4462      	add	r2, ip
    6f1a:	2f00      	cmp	r7, #0
    6f1c:	d100      	bne.n	6f20 <drawTetromino+0xc4>
    6f1e:	e148      	b.n	71b2 <drawTetromino+0x356>
    6f20:	330f      	adds	r3, #15
    6f22:	011f      	lsls	r7, r3, #4
    6f24:	46b8      	mov	r8, r7
    6f26:	4fb6      	ldr	r7, [pc, #728]	; (7200 <drawTetromino+0x3a4>)
    6f28:	46bc      	mov	ip, r7
    6f2a:	4fb6      	ldr	r7, [pc, #728]	; (7204 <drawTetromino+0x3a8>)
    6f2c:	44c4      	add	ip, r8
    6f2e:	46b8      	mov	r8, r7
    6f30:	4667      	mov	r7, ip
    6f32:	00db      	lsls	r3, r3, #3
    6f34:	883f      	ldrh	r7, [r7, #0]
    6f36:	4443      	add	r3, r8
    6f38:	8007      	strh	r7, [r0, #0]
    6f3a:	9304      	str	r3, [sp, #16]
    6f3c:	781f      	ldrb	r7, [r3, #0]
    6f3e:	46b8      	mov	r8, r7
    6f40:	2704      	movs	r7, #4
    6f42:	46b9      	mov	r9, r7
    6f44:	44c8      	add	r8, r9
    6f46:	4647      	mov	r7, r8
    6f48:	7017      	strb	r7, [r2, #0]
    6f4a:	2750      	movs	r7, #80	; 0x50
    6f4c:	46b9      	mov	r9, r7
    6f4e:	4667      	mov	r7, ip
    6f50:	887f      	ldrh	r7, [r7, #2]
    6f52:	46b8      	mov	r8, r7
    6f54:	464f      	mov	r7, r9
    6f56:	4643      	mov	r3, r8
    6f58:	53c3      	strh	r3, [r0, r7]
    6f5a:	9b04      	ldr	r3, [sp, #16]
    6f5c:	785b      	ldrb	r3, [r3, #1]
    6f5e:	4698      	mov	r8, r3
    6f60:	2304      	movs	r3, #4
    6f62:	469a      	mov	sl, r3
    6f64:	44d0      	add	r8, sl
    6f66:	4647      	mov	r7, r8
    6f68:	3324      	adds	r3, #36	; 0x24
    6f6a:	54d7      	strb	r7, [r2, r3]
    6f6c:	3378      	adds	r3, #120	; 0x78
    6f6e:	469a      	mov	sl, r3
    6f70:	4663      	mov	r3, ip
    6f72:	889b      	ldrh	r3, [r3, #4]
    6f74:	4698      	mov	r8, r3
    6f76:	4653      	mov	r3, sl
    6f78:	4647      	mov	r7, r8
    6f7a:	52c7      	strh	r7, [r0, r3]
    6f7c:	9b04      	ldr	r3, [sp, #16]
    6f7e:	789b      	ldrb	r3, [r3, #2]
    6f80:	4698      	mov	r8, r3
    6f82:	2304      	movs	r3, #4
    6f84:	469b      	mov	fp, r3
    6f86:	44d8      	add	r8, fp
    6f88:	464b      	mov	r3, r9
    6f8a:	4647      	mov	r7, r8
    6f8c:	54d7      	strb	r7, [r2, r3]
    6f8e:	33a0      	adds	r3, #160	; 0xa0
    6f90:	4699      	mov	r9, r3
    6f92:	4663      	mov	r3, ip
    6f94:	88db      	ldrh	r3, [r3, #6]
    6f96:	4698      	mov	r8, r3
    6f98:	464b      	mov	r3, r9
    6f9a:	4647      	mov	r7, r8
    6f9c:	52c7      	strh	r7, [r0, r3]
    6f9e:	9b04      	ldr	r3, [sp, #16]
    6fa0:	78db      	ldrb	r3, [r3, #3]
    6fa2:	4698      	mov	r8, r3
    6fa4:	2304      	movs	r3, #4
    6fa6:	44d8      	add	r8, fp
    6fa8:	4647      	mov	r7, r8
    6faa:	3374      	adds	r3, #116	; 0x74
    6fac:	54d7      	strb	r7, [r2, r3]
    6fae:	4663      	mov	r3, ip
    6fb0:	891b      	ldrh	r3, [r3, #8]
    6fb2:	469b      	mov	fp, r3
    6fb4:	23a0      	movs	r3, #160	; 0xa0
    6fb6:	465f      	mov	r7, fp
    6fb8:	005b      	lsls	r3, r3, #1
    6fba:	52c7      	strh	r7, [r0, r3]
    6fbc:	9b04      	ldr	r3, [sp, #16]
    6fbe:	791b      	ldrb	r3, [r3, #4]
    6fc0:	4698      	mov	r8, r3
    6fc2:	2304      	movs	r3, #4
    6fc4:	469b      	mov	fp, r3
    6fc6:	44d8      	add	r8, fp
    6fc8:	4653      	mov	r3, sl
    6fca:	4647      	mov	r7, r8
    6fcc:	54d7      	strb	r7, [r2, r3]
    6fce:	4663      	mov	r3, ip
    6fd0:	895b      	ldrh	r3, [r3, #10]
    6fd2:	469a      	mov	sl, r3
    6fd4:	23c8      	movs	r3, #200	; 0xc8
    6fd6:	4657      	mov	r7, sl
    6fd8:	005b      	lsls	r3, r3, #1
    6fda:	52c7      	strh	r7, [r0, r3]
    6fdc:	9b04      	ldr	r3, [sp, #16]
    6fde:	795b      	ldrb	r3, [r3, #5]
    6fe0:	4698      	mov	r8, r3
    6fe2:	2304      	movs	r3, #4
    6fe4:	469a      	mov	sl, r3
    6fe6:	44d0      	add	r8, sl
    6fe8:	4647      	mov	r7, r8
    6fea:	33c4      	adds	r3, #196	; 0xc4
    6fec:	54d7      	strb	r7, [r2, r3]
    6fee:	4663      	mov	r3, ip
    6ff0:	899b      	ldrh	r3, [r3, #12]
    6ff2:	469a      	mov	sl, r3
    6ff4:	23f0      	movs	r3, #240	; 0xf0
    6ff6:	4657      	mov	r7, sl
    6ff8:	005b      	lsls	r3, r3, #1
    6ffa:	52c7      	strh	r7, [r0, r3]
    6ffc:	9b04      	ldr	r3, [sp, #16]
    6ffe:	799b      	ldrb	r3, [r3, #6]
    7000:	4698      	mov	r8, r3
    7002:	2304      	movs	r3, #4
    7004:	469a      	mov	sl, r3
    7006:	44d0      	add	r8, sl
    7008:	4647      	mov	r7, r8
    700a:	464b      	mov	r3, r9
    700c:	54d7      	strb	r7, [r2, r3]
    700e:	4663      	mov	r3, ip
    7010:	89db      	ldrh	r3, [r3, #14]
    7012:	4698      	mov	r8, r3
    7014:	238c      	movs	r3, #140	; 0x8c
    7016:	4647      	mov	r7, r8
    7018:	009b      	lsls	r3, r3, #2
    701a:	52c7      	strh	r7, [r0, r3]
    701c:	208c      	movs	r0, #140	; 0x8c
    701e:	9b04      	ldr	r3, [sp, #16]
    7020:	0040      	lsls	r0, r0, #1
    7022:	79db      	ldrb	r3, [r3, #7]
    7024:	3304      	adds	r3, #4
    7026:	5413      	strb	r3, [r2, r0]
    7028:	9b05      	ldr	r3, [sp, #20]
    702a:	2b01      	cmp	r3, #1
    702c:	d100      	bne.n	7030 <drawTetromino+0x1d4>
    702e:	e0a6      	b.n	717e <drawTetromino+0x322>
    7030:	2902      	cmp	r1, #2
    7032:	d100      	bne.n	7036 <drawTetromino+0x1da>
    7034:	e0d9      	b.n	71ea <drawTetromino+0x38e>
    7036:	2903      	cmp	r1, #3
    7038:	d100      	bne.n	703c <drawTetromino+0x1e0>
    703a:	e0d1      	b.n	71e0 <drawTetromino+0x384>
    703c:	2901      	cmp	r1, #1
    703e:	d100      	bne.n	7042 <drawTetromino+0x1e6>
    7040:	e0c9      	b.n	71d6 <drawTetromino+0x37a>
    7042:	9b02      	ldr	r3, [sp, #8]
    7044:	469c      	mov	ip, r3
    7046:	9b08      	ldr	r3, [sp, #32]
    7048:	1c5a      	adds	r2, r3, #1
    704a:	7923      	ldrb	r3, [r4, #4]
    704c:	2b00      	cmp	r3, #0
    704e:	d100      	bne.n	7052 <drawTetromino+0x1f6>
    7050:	e095      	b.n	717e <drawTetromino+0x322>
    7052:	3204      	adds	r2, #4
    7054:	0090      	lsls	r0, r2, #2
    7056:	1882      	adds	r2, r0, r2
    7058:	4660      	mov	r0, ip
    705a:	0192      	lsls	r2, r2, #6
    705c:	3007      	adds	r0, #7
    705e:	1812      	adds	r2, r2, r0
    7060:	0050      	lsls	r0, r2, #1
    7062:	4684      	mov	ip, r0
    7064:	4f65      	ldr	r7, [pc, #404]	; (71fc <drawTetromino+0x3a0>)
    7066:	4864      	ldr	r0, [pc, #400]	; (71f8 <drawTetromino+0x39c>)
    7068:	4460      	add	r0, ip
    706a:	46bc      	mov	ip, r7
    706c:	9f09      	ldr	r7, [sp, #36]	; 0x24
    706e:	4462      	add	r2, ip
    7070:	2f00      	cmp	r7, #0
    7072:	d100      	bne.n	7076 <drawTetromino+0x21a>
    7074:	e0ad      	b.n	71d2 <drawTetromino+0x376>
    7076:	330f      	adds	r3, #15
    7078:	011f      	lsls	r7, r3, #4
    707a:	46b8      	mov	r8, r7
    707c:	4f60      	ldr	r7, [pc, #384]	; (7200 <drawTetromino+0x3a4>)
    707e:	00db      	lsls	r3, r3, #3
    7080:	46bc      	mov	ip, r7
    7082:	4f60      	ldr	r7, [pc, #384]	; (7204 <drawTetromino+0x3a8>)
    7084:	44c4      	add	ip, r8
    7086:	46b8      	mov	r8, r7
    7088:	4667      	mov	r7, ip
    708a:	883f      	ldrh	r7, [r7, #0]
    708c:	4443      	add	r3, r8
    708e:	8007      	strh	r7, [r0, #0]
    7090:	9304      	str	r3, [sp, #16]
    7092:	781f      	ldrb	r7, [r3, #0]
    7094:	46b8      	mov	r8, r7
    7096:	2704      	movs	r7, #4
    7098:	46b9      	mov	r9, r7
    709a:	44c8      	add	r8, r9
    709c:	4647      	mov	r7, r8
    709e:	7017      	strb	r7, [r2, #0]
    70a0:	2750      	movs	r7, #80	; 0x50
    70a2:	46b9      	mov	r9, r7
    70a4:	4667      	mov	r7, ip
    70a6:	887f      	ldrh	r7, [r7, #2]
    70a8:	46b8      	mov	r8, r7
    70aa:	464f      	mov	r7, r9
    70ac:	4643      	mov	r3, r8
    70ae:	53c3      	strh	r3, [r0, r7]
    70b0:	9b04      	ldr	r3, [sp, #16]
    70b2:	785b      	ldrb	r3, [r3, #1]
    70b4:	4698      	mov	r8, r3
    70b6:	2304      	movs	r3, #4
    70b8:	469a      	mov	sl, r3
    70ba:	44d0      	add	r8, sl
    70bc:	4647      	mov	r7, r8
    70be:	3324      	adds	r3, #36	; 0x24
    70c0:	54d7      	strb	r7, [r2, r3]
    70c2:	3378      	adds	r3, #120	; 0x78
    70c4:	469a      	mov	sl, r3
    70c6:	4663      	mov	r3, ip
    70c8:	889b      	ldrh	r3, [r3, #4]
    70ca:	4698      	mov	r8, r3
    70cc:	4653      	mov	r3, sl
    70ce:	4647      	mov	r7, r8
    70d0:	52c7      	strh	r7, [r0, r3]
    70d2:	9b04      	ldr	r3, [sp, #16]
    70d4:	789b      	ldrb	r3, [r3, #2]
    70d6:	4698      	mov	r8, r3
    70d8:	2304      	movs	r3, #4
    70da:	469b      	mov	fp, r3
    70dc:	44d8      	add	r8, fp
    70de:	464b      	mov	r3, r9
    70e0:	4647      	mov	r7, r8
    70e2:	54d7      	strb	r7, [r2, r3]
    70e4:	33a0      	adds	r3, #160	; 0xa0
    70e6:	4699      	mov	r9, r3
    70e8:	4663      	mov	r3, ip
    70ea:	88db      	ldrh	r3, [r3, #6]
    70ec:	4698      	mov	r8, r3
    70ee:	464b      	mov	r3, r9
    70f0:	4647      	mov	r7, r8
    70f2:	52c7      	strh	r7, [r0, r3]
    70f4:	9b04      	ldr	r3, [sp, #16]
    70f6:	78db      	ldrb	r3, [r3, #3]
    70f8:	4698      	mov	r8, r3
    70fa:	2304      	movs	r3, #4
    70fc:	44d8      	add	r8, fp
    70fe:	4647      	mov	r7, r8
    7100:	3374      	adds	r3, #116	; 0x74
    7102:	54d7      	strb	r7, [r2, r3]
    7104:	4663      	mov	r3, ip
    7106:	891b      	ldrh	r3, [r3, #8]
    7108:	469b      	mov	fp, r3
    710a:	23a0      	movs	r3, #160	; 0xa0
    710c:	465f      	mov	r7, fp
    710e:	005b      	lsls	r3, r3, #1
    7110:	52c7      	strh	r7, [r0, r3]
    7112:	9b04      	ldr	r3, [sp, #16]
    7114:	791b      	ldrb	r3, [r3, #4]
    7116:	4698      	mov	r8, r3
    7118:	2304      	movs	r3, #4
    711a:	469b      	mov	fp, r3
    711c:	44d8      	add	r8, fp
    711e:	4653      	mov	r3, sl
    7120:	4647      	mov	r7, r8
    7122:	54d7      	strb	r7, [r2, r3]
    7124:	4663      	mov	r3, ip
    7126:	895b      	ldrh	r3, [r3, #10]
    7128:	469a      	mov	sl, r3
    712a:	23c8      	movs	r3, #200	; 0xc8
    712c:	4657      	mov	r7, sl
    712e:	005b      	lsls	r3, r3, #1
    7130:	52c7      	strh	r7, [r0, r3]
    7132:	9b04      	ldr	r3, [sp, #16]
    7134:	795b      	ldrb	r3, [r3, #5]
    7136:	4698      	mov	r8, r3
    7138:	2304      	movs	r3, #4
    713a:	469a      	mov	sl, r3
    713c:	44d0      	add	r8, sl
    713e:	4647      	mov	r7, r8
    7140:	33c4      	adds	r3, #196	; 0xc4
    7142:	54d7      	strb	r7, [r2, r3]
    7144:	4663      	mov	r3, ip
    7146:	899b      	ldrh	r3, [r3, #12]
    7148:	469a      	mov	sl, r3
    714a:	23f0      	movs	r3, #240	; 0xf0
    714c:	4657      	mov	r7, sl
    714e:	005b      	lsls	r3, r3, #1
    7150:	52c7      	strh	r7, [r0, r3]
    7152:	9b04      	ldr	r3, [sp, #16]
    7154:	799b      	ldrb	r3, [r3, #6]
    7156:	4698      	mov	r8, r3
    7158:	2304      	movs	r3, #4
    715a:	469a      	mov	sl, r3
    715c:	44d0      	add	r8, sl
    715e:	4647      	mov	r7, r8
    7160:	464b      	mov	r3, r9
    7162:	54d7      	strb	r7, [r2, r3]
    7164:	4663      	mov	r3, ip
    7166:	89db      	ldrh	r3, [r3, #14]
    7168:	4698      	mov	r8, r3
    716a:	238c      	movs	r3, #140	; 0x8c
    716c:	4647      	mov	r7, r8
    716e:	009b      	lsls	r3, r3, #2
    7170:	52c7      	strh	r7, [r0, r3]
    7172:	208c      	movs	r0, #140	; 0x8c
    7174:	9b04      	ldr	r3, [sp, #16]
    7176:	0040      	lsls	r0, r0, #1
    7178:	79db      	ldrb	r3, [r3, #7]
    717a:	3304      	adds	r3, #4
    717c:	5413      	strb	r3, [r2, r0]
    717e:	9b02      	ldr	r3, [sp, #8]
    7180:	9a03      	ldr	r2, [sp, #12]
    7182:	3301      	adds	r3, #1
    7184:	9302      	str	r3, [sp, #8]
    7186:	9b01      	ldr	r3, [sp, #4]
    7188:	3201      	adds	r2, #1
    718a:	3301      	adds	r3, #1
    718c:	9301      	str	r3, [sp, #4]
    718e:	9b06      	ldr	r3, [sp, #24]
    7190:	9203      	str	r2, [sp, #12]
    7192:	3401      	adds	r4, #1
    7194:	429a      	cmp	r2, r3
    7196:	da00      	bge.n	719a <drawTetromino+0x33e>
    7198:	e69f      	b.n	6eda <drawTetromino+0x7e>
    719a:	b00f      	add	sp, #60	; 0x3c
    719c:	bc3c      	pop	{r2, r3, r4, r5}
    719e:	4690      	mov	r8, r2
    71a0:	4699      	mov	r9, r3
    71a2:	46a2      	mov	sl, r4
    71a4:	46ab      	mov	fp, r5
    71a6:	bdf0      	pop	{r4, r5, r6, r7, pc}
    71a8:	3d01      	subs	r5, #1
    71aa:	002a      	movs	r2, r5
    71ac:	9807      	ldr	r0, [sp, #28]
    71ae:	3e01      	subs	r6, #1
    71b0:	e6a0      	b.n	6ef4 <drawTetromino+0x98>
    71b2:	3b01      	subs	r3, #1
    71b4:	011f      	lsls	r7, r3, #4
    71b6:	46bc      	mov	ip, r7
    71b8:	4f11      	ldr	r7, [pc, #68]	; (7200 <drawTetromino+0x3a4>)
    71ba:	46b8      	mov	r8, r7
    71bc:	e6b5      	b.n	6f2a <drawTetromino+0xce>
    71be:	980b      	ldr	r0, [sp, #44]	; 0x2c
    71c0:	9a01      	ldr	r2, [sp, #4]
    71c2:	3d01      	subs	r5, #1
    71c4:	3e01      	subs	r6, #1
    71c6:	e695      	b.n	6ef4 <drawTetromino+0x98>
    71c8:	3e01      	subs	r6, #1
    71ca:	0030      	movs	r0, r6
    71cc:	9a0a      	ldr	r2, [sp, #40]	; 0x28
    71ce:	3d01      	subs	r5, #1
    71d0:	e690      	b.n	6ef4 <drawTetromino+0x98>
    71d2:	3b01      	subs	r3, #1
    71d4:	e750      	b.n	7078 <drawTetromino+0x21c>
    71d6:	9b07      	ldr	r3, [sp, #28]
    71d8:	002a      	movs	r2, r5
    71da:	3301      	adds	r3, #1
    71dc:	469c      	mov	ip, r3
    71de:	e734      	b.n	704a <drawTetromino+0x1ee>
    71e0:	9b0d      	ldr	r3, [sp, #52]	; 0x34
    71e2:	9a01      	ldr	r2, [sp, #4]
    71e4:	3b02      	subs	r3, #2
    71e6:	469c      	mov	ip, r3
    71e8:	e72f      	b.n	704a <drawTetromino+0x1ee>
    71ea:	9b0c      	ldr	r3, [sp, #48]	; 0x30
    71ec:	46b4      	mov	ip, r6
    71ee:	1e9a      	subs	r2, r3, #2
    71f0:	e72b      	b.n	704a <drawTetromino+0x1ee>
    71f2:	46c0      	nop			; (mov r8, r8)
    71f4:	0001d9bc 	.word	0x0001d9bc
    71f8:	20000b40 	.word	0x20000b40
    71fc:	200059e0 	.word	0x200059e0
    7200:	0001e1e0 	.word	0x0001e1e0
    7204:	0001ddc0 	.word	0x0001ddc0

00007208 <canPutTetromino>:
    7208:	b5f0      	push	{r4, r5, r6, r7, lr}
    720a:	464e      	mov	r6, r9
    720c:	4645      	mov	r5, r8
    720e:	46de      	mov	lr, fp
    7210:	4657      	mov	r7, sl
    7212:	0084      	lsls	r4, r0, #2
    7214:	b5e0      	push	{r5, r6, r7, lr}
    7216:	1820      	adds	r0, r4, r0
    7218:	4e50      	ldr	r6, [pc, #320]	; (735c <canPutTetromino+0x154>)
    721a:	0040      	lsls	r0, r0, #1
    721c:	1834      	adds	r4, r6, r0
    721e:	0025      	movs	r5, r4
    7220:	3524      	adds	r5, #36	; 0x24
    7222:	782d      	ldrb	r5, [r5, #0]
    7224:	3425      	adds	r4, #37	; 0x25
    7226:	b087      	sub	sp, #28
    7228:	7824      	ldrb	r4, [r4, #0]
    722a:	2d00      	cmp	r5, #0
    722c:	d100      	bne.n	7230 <canPutTetromino+0x28>
    722e:	e079      	b.n	7324 <canPutTetromino+0x11c>
    7230:	361c      	adds	r6, #28
    7232:	1830      	adds	r0, r6, r0
    7234:	1956      	adds	r6, r2, r5
    7236:	9601      	str	r6, [sp, #4]
    7238:	195e      	adds	r6, r3, r5
    723a:	9602      	str	r6, [sp, #8]
    723c:	2600      	movs	r6, #0
    723e:	46b0      	mov	r8, r6
    7240:	4e47      	ldr	r6, [pc, #284]	; (7360 <canPutTetromino+0x158>)
    7242:	469c      	mov	ip, r3
    7244:	9603      	str	r6, [sp, #12]
    7246:	191e      	adds	r6, r3, r4
    7248:	46b2      	mov	sl, r6
    724a:	3e02      	subs	r6, #2
    724c:	9604      	str	r6, [sp, #16]
    724e:	1916      	adds	r6, r2, r4
    7250:	46b3      	mov	fp, r6
    7252:	3e02      	subs	r6, #2
    7254:	9605      	str	r6, [sp, #20]
    7256:	0016      	movs	r6, r2
    7258:	4642      	mov	r2, r8
    725a:	46a8      	mov	r8, r5
    725c:	0035      	movs	r5, r6
    725e:	2c00      	cmp	r4, #0
    7260:	d056      	beq.n	7310 <canPutTetromino+0x108>
    7262:	2902      	cmp	r1, #2
    7264:	d060      	beq.n	7328 <canPutTetromino+0x120>
    7266:	2903      	cmp	r1, #3
    7268:	d067      	beq.n	733a <canPutTetromino+0x132>
    726a:	2901      	cmp	r1, #1
    726c:	d061      	beq.n	7332 <canPutTetromino+0x12a>
    726e:	4667      	mov	r7, ip
    7270:	1956      	adds	r6, r2, r5
    7272:	2e09      	cmp	r6, #9
    7274:	d83a      	bhi.n	72ec <canPutTetromino+0xe4>
    7276:	2f13      	cmp	r7, #19
    7278:	d838      	bhi.n	72ec <canPutTetromino+0xe4>
    727a:	7803      	ldrb	r3, [r0, #0]
    727c:	2b00      	cmp	r3, #0
    727e:	d010      	beq.n	72a2 <canPutTetromino+0x9a>
    7280:	00bb      	lsls	r3, r7, #2
    7282:	19db      	adds	r3, r3, r7
    7284:	4f36      	ldr	r7, [pc, #216]	; (7360 <canPutTetromino+0x158>)
    7286:	46b9      	mov	r9, r7
    7288:	1077      	asrs	r7, r6, #1
    728a:	444b      	add	r3, r9
    728c:	5ddb      	ldrb	r3, [r3, r7]
    728e:	2701      	movs	r7, #1
    7290:	4237      	tst	r7, r6
    7292:	d133      	bne.n	72fc <canPutTetromino+0xf4>
    7294:	260f      	movs	r6, #15
    7296:	4033      	ands	r3, r6
    7298:	1e5e      	subs	r6, r3, #1
    729a:	41b3      	sbcs	r3, r6
    729c:	b2db      	uxtb	r3, r3
    729e:	2b00      	cmp	r3, #0
    72a0:	d124      	bne.n	72ec <canPutTetromino+0xe4>
    72a2:	2c01      	cmp	r4, #1
    72a4:	d034      	beq.n	7310 <canPutTetromino+0x108>
    72a6:	2902      	cmp	r1, #2
    72a8:	d054      	beq.n	7354 <canPutTetromino+0x14c>
    72aa:	2903      	cmp	r1, #3
    72ac:	d04e      	beq.n	734c <canPutTetromino+0x144>
    72ae:	2901      	cmp	r1, #1
    72b0:	d048      	beq.n	7344 <canPutTetromino+0x13c>
    72b2:	4663      	mov	r3, ip
    72b4:	1956      	adds	r6, r2, r5
    72b6:	3301      	adds	r3, #1
    72b8:	2e09      	cmp	r6, #9
    72ba:	d817      	bhi.n	72ec <canPutTetromino+0xe4>
    72bc:	2b13      	cmp	r3, #19
    72be:	d815      	bhi.n	72ec <canPutTetromino+0xe4>
    72c0:	7907      	ldrb	r7, [r0, #4]
    72c2:	2f00      	cmp	r7, #0
    72c4:	d010      	beq.n	72e8 <canPutTetromino+0xe0>
    72c6:	009f      	lsls	r7, r3, #2
    72c8:	18ff      	adds	r7, r7, r3
    72ca:	9b03      	ldr	r3, [sp, #12]
    72cc:	4699      	mov	r9, r3
    72ce:	1073      	asrs	r3, r6, #1
    72d0:	444f      	add	r7, r9
    72d2:	5cfb      	ldrb	r3, [r7, r3]
    72d4:	2701      	movs	r7, #1
    72d6:	4237      	tst	r7, r6
    72d8:	d115      	bne.n	7306 <canPutTetromino+0xfe>
    72da:	260f      	movs	r6, #15
    72dc:	4033      	ands	r3, r6
    72de:	1e5e      	subs	r6, r3, #1
    72e0:	41b3      	sbcs	r3, r6
    72e2:	b2db      	uxtb	r3, r3
    72e4:	2b00      	cmp	r3, #0
    72e6:	d101      	bne.n	72ec <canPutTetromino+0xe4>
    72e8:	2c02      	cmp	r4, #2
    72ea:	d011      	beq.n	7310 <canPutTetromino+0x108>
    72ec:	2000      	movs	r0, #0
    72ee:	b007      	add	sp, #28
    72f0:	bc3c      	pop	{r2, r3, r4, r5}
    72f2:	4690      	mov	r8, r2
    72f4:	4699      	mov	r9, r3
    72f6:	46a2      	mov	sl, r4
    72f8:	46ab      	mov	fp, r5
    72fa:	bdf0      	pop	{r4, r5, r6, r7, pc}
    72fc:	091b      	lsrs	r3, r3, #4
    72fe:	1e5e      	subs	r6, r3, #1
    7300:	41b3      	sbcs	r3, r6
    7302:	b2db      	uxtb	r3, r3
    7304:	e7cb      	b.n	729e <canPutTetromino+0x96>
    7306:	091b      	lsrs	r3, r3, #4
    7308:	1e5e      	subs	r6, r3, #1
    730a:	41b3      	sbcs	r3, r6
    730c:	b2db      	uxtb	r3, r3
    730e:	e7e9      	b.n	72e4 <canPutTetromino+0xdc>
    7310:	9b01      	ldr	r3, [sp, #4]
    7312:	3201      	adds	r2, #1
    7314:	3b01      	subs	r3, #1
    7316:	9301      	str	r3, [sp, #4]
    7318:	9b02      	ldr	r3, [sp, #8]
    731a:	3001      	adds	r0, #1
    731c:	3b01      	subs	r3, #1
    731e:	9302      	str	r3, [sp, #8]
    7320:	4542      	cmp	r2, r8
    7322:	db9c      	blt.n	725e <canPutTetromino+0x56>
    7324:	2001      	movs	r0, #1
    7326:	e7e2      	b.n	72ee <canPutTetromino+0xe6>
    7328:	9b01      	ldr	r3, [sp, #4]
    732a:	1e5e      	subs	r6, r3, #1
    732c:	4653      	mov	r3, sl
    732e:	1e5f      	subs	r7, r3, #1
    7330:	e79f      	b.n	7272 <canPutTetromino+0x6a>
    7332:	9b02      	ldr	r3, [sp, #8]
    7334:	002e      	movs	r6, r5
    7336:	1e5f      	subs	r7, r3, #1
    7338:	e79b      	b.n	7272 <canPutTetromino+0x6a>
    733a:	465b      	mov	r3, fp
    733c:	1e5e      	subs	r6, r3, #1
    733e:	4663      	mov	r3, ip
    7340:	18d7      	adds	r7, r2, r3
    7342:	e796      	b.n	7272 <canPutTetromino+0x6a>
    7344:	9b02      	ldr	r3, [sp, #8]
    7346:	1c6e      	adds	r6, r5, #1
    7348:	3b01      	subs	r3, #1
    734a:	e7b5      	b.n	72b8 <canPutTetromino+0xb0>
    734c:	4663      	mov	r3, ip
    734e:	9e05      	ldr	r6, [sp, #20]
    7350:	18d3      	adds	r3, r2, r3
    7352:	e7b1      	b.n	72b8 <canPutTetromino+0xb0>
    7354:	9b01      	ldr	r3, [sp, #4]
    7356:	1e5e      	subs	r6, r3, #1
    7358:	9b04      	ldr	r3, [sp, #16]
    735a:	e7ad      	b.n	72b8 <canPutTetromino+0xb0>
    735c:	0001d9bc 	.word	0x0001d9bc
    7360:	20000708 	.word	0x20000708

00007364 <removeFilledLines>:
    7364:	b5f0      	push	{r4, r5, r6, r7, lr}
    7366:	4657      	mov	r7, sl
    7368:	464e      	mov	r6, r9
    736a:	46de      	mov	lr, fp
    736c:	4645      	mov	r5, r8
    736e:	0849      	lsrs	r1, r1, #1
    7370:	b5e0      	push	{r5, r6, r7, lr}
    7372:	4682      	mov	sl, r0
    7374:	1c0e      	adds	r6, r1, #0
    7376:	2905      	cmp	r1, #5
    7378:	d900      	bls.n	737c <removeFilledLines+0x18>
    737a:	2605      	movs	r6, #5
    737c:	2201      	movs	r2, #1
    737e:	2500      	movs	r5, #0
    7380:	4693      	mov	fp, r2
    7382:	240f      	movs	r4, #15
    7384:	4b5d      	ldr	r3, [pc, #372]	; (74fc <removeFilledLines+0x198>)
    7386:	b2f6      	uxtb	r6, r6
    7388:	2900      	cmp	r1, #0
    738a:	d100      	bne.n	738e <removeFilledLines+0x2a>
    738c:	e09b      	b.n	74c6 <removeFilledLines+0x162>
    738e:	465a      	mov	r2, fp
    7390:	4650      	mov	r0, sl
    7392:	40aa      	lsls	r2, r5
    7394:	4210      	tst	r0, r2
    7396:	d100      	bne.n	739a <removeFilledLines+0x36>
    7398:	e095      	b.n	74c6 <removeFilledLines+0x162>
    739a:	789a      	ldrb	r2, [r3, #2]
    739c:	4690      	mov	r8, r2
    739e:	0912      	lsrs	r2, r2, #4
    73a0:	4691      	mov	r9, r2
    73a2:	2a0f      	cmp	r2, #15
    73a4:	d100      	bne.n	73a8 <removeFilledLines+0x44>
    73a6:	e099      	b.n	74dc <removeFilledLines+0x178>
    73a8:	4648      	mov	r0, r9
    73aa:	2200      	movs	r2, #0
    73ac:	2800      	cmp	r0, #0
    73ae:	d005      	beq.n	73bc <removeFilledLines+0x58>
    73b0:	3201      	adds	r2, #1
    73b2:	4694      	mov	ip, r2
    73b4:	44e1      	add	r9, ip
    73b6:	464a      	mov	r2, r9
    73b8:	0112      	lsls	r2, r2, #4
    73ba:	b252      	sxtb	r2, r2
    73bc:	4647      	mov	r7, r8
    73be:	4027      	ands	r7, r4
    73c0:	433a      	orrs	r2, r7
    73c2:	464f      	mov	r7, r9
    73c4:	43a2      	bics	r2, r4
    73c6:	433a      	orrs	r2, r7
    73c8:	709a      	strb	r2, [r3, #2]
    73ca:	2e01      	cmp	r6, #1
    73cc:	d07b      	beq.n	74c6 <removeFilledLines+0x162>
    73ce:	0027      	movs	r7, r4
    73d0:	2000      	movs	r0, #0
    73d2:	78da      	ldrb	r2, [r3, #3]
    73d4:	4684      	mov	ip, r0
    73d6:	4017      	ands	r7, r2
    73d8:	46b9      	mov	r9, r7
    73da:	2f0f      	cmp	r7, #15
    73dc:	d100      	bne.n	73e0 <removeFilledLines+0x7c>
    73de:	e081      	b.n	74e4 <removeFilledLines+0x180>
    73e0:	2f00      	cmp	r7, #0
    73e2:	d005      	beq.n	73f0 <removeFilledLines+0x8c>
    73e4:	2001      	movs	r0, #1
    73e6:	4684      	mov	ip, r0
    73e8:	44e1      	add	r9, ip
    73ea:	4648      	mov	r0, r9
    73ec:	b240      	sxtb	r0, r0
    73ee:	4684      	mov	ip, r0
    73f0:	4667      	mov	r7, ip
    73f2:	43a2      	bics	r2, r4
    73f4:	4317      	orrs	r7, r2
    73f6:	b27a      	sxtb	r2, r7
    73f8:	464f      	mov	r7, r9
    73fa:	4694      	mov	ip, r2
    73fc:	b2d2      	uxtb	r2, r2
    73fe:	4690      	mov	r8, r2
    7400:	70da      	strb	r2, [r3, #3]
    7402:	785a      	ldrb	r2, [r3, #1]
    7404:	013f      	lsls	r7, r7, #4
    7406:	4022      	ands	r2, r4
    7408:	433a      	orrs	r2, r7
    740a:	b252      	sxtb	r2, r2
    740c:	705a      	strb	r2, [r3, #1]
    740e:	2e02      	cmp	r6, #2
    7410:	d059      	beq.n	74c6 <removeFilledLines+0x162>
    7412:	4647      	mov	r7, r8
    7414:	2000      	movs	r0, #0
    7416:	093f      	lsrs	r7, r7, #4
    7418:	46b8      	mov	r8, r7
    741a:	4681      	mov	r9, r0
    741c:	2f0f      	cmp	r7, #15
    741e:	d063      	beq.n	74e8 <removeFilledLines+0x184>
    7420:	2f00      	cmp	r7, #0
    7422:	d006      	beq.n	7432 <removeFilledLines+0xce>
    7424:	2001      	movs	r0, #1
    7426:	4681      	mov	r9, r0
    7428:	44c8      	add	r8, r9
    742a:	4640      	mov	r0, r8
    742c:	0100      	lsls	r0, r0, #4
    742e:	b240      	sxtb	r0, r0
    7430:	4681      	mov	r9, r0
    7432:	4667      	mov	r7, ip
    7434:	4027      	ands	r7, r4
    7436:	46bc      	mov	ip, r7
    7438:	464f      	mov	r7, r9
    743a:	4660      	mov	r0, ip
    743c:	4307      	orrs	r7, r0
    743e:	4640      	mov	r0, r8
    7440:	43a2      	bics	r2, r4
    7442:	4302      	orrs	r2, r0
    7444:	70df      	strb	r7, [r3, #3]
    7446:	705a      	strb	r2, [r3, #1]
    7448:	2e03      	cmp	r6, #3
    744a:	d03c      	beq.n	74c6 <removeFilledLines+0x162>
    744c:	0027      	movs	r7, r4
    744e:	791a      	ldrb	r2, [r3, #4]
    7450:	4017      	ands	r7, r2
    7452:	46b9      	mov	r9, r7
    7454:	2f0f      	cmp	r7, #15
    7456:	d049      	beq.n	74ec <removeFilledLines+0x188>
    7458:	2000      	movs	r0, #0
    745a:	4684      	mov	ip, r0
    745c:	2f00      	cmp	r7, #0
    745e:	d005      	beq.n	746c <removeFilledLines+0x108>
    7460:	2001      	movs	r0, #1
    7462:	4684      	mov	ip, r0
    7464:	44e1      	add	r9, ip
    7466:	4648      	mov	r0, r9
    7468:	b240      	sxtb	r0, r0
    746a:	4684      	mov	ip, r0
    746c:	4667      	mov	r7, ip
    746e:	4648      	mov	r0, r9
    7470:	43a2      	bics	r2, r4
    7472:	4317      	orrs	r7, r2
    7474:	b27a      	sxtb	r2, r7
    7476:	4694      	mov	ip, r2
    7478:	b2d2      	uxtb	r2, r2
    747a:	4690      	mov	r8, r2
    747c:	711a      	strb	r2, [r3, #4]
    747e:	781a      	ldrb	r2, [r3, #0]
    7480:	0100      	lsls	r0, r0, #4
    7482:	4022      	ands	r2, r4
    7484:	4302      	orrs	r2, r0
    7486:	b252      	sxtb	r2, r2
    7488:	701a      	strb	r2, [r3, #0]
    748a:	2e05      	cmp	r6, #5
    748c:	d11b      	bne.n	74c6 <removeFilledLines+0x162>
    748e:	4640      	mov	r0, r8
    7490:	0900      	lsrs	r0, r0, #4
    7492:	4680      	mov	r8, r0
    7494:	280f      	cmp	r0, #15
    7496:	d02d      	beq.n	74f4 <removeFilledLines+0x190>
    7498:	2000      	movs	r0, #0
    749a:	4681      	mov	r9, r0
    749c:	4640      	mov	r0, r8
    749e:	2800      	cmp	r0, #0
    74a0:	d006      	beq.n	74b0 <removeFilledLines+0x14c>
    74a2:	2001      	movs	r0, #1
    74a4:	4681      	mov	r9, r0
    74a6:	44c8      	add	r8, r9
    74a8:	4640      	mov	r0, r8
    74aa:	0100      	lsls	r0, r0, #4
    74ac:	b240      	sxtb	r0, r0
    74ae:	4681      	mov	r9, r0
    74b0:	4667      	mov	r7, ip
    74b2:	4027      	ands	r7, r4
    74b4:	46bc      	mov	ip, r7
    74b6:	464f      	mov	r7, r9
    74b8:	4660      	mov	r0, ip
    74ba:	4307      	orrs	r7, r0
    74bc:	4640      	mov	r0, r8
    74be:	43a2      	bics	r2, r4
    74c0:	4302      	orrs	r2, r0
    74c2:	711f      	strb	r7, [r3, #4]
    74c4:	701a      	strb	r2, [r3, #0]
    74c6:	3501      	adds	r5, #1
    74c8:	3305      	adds	r3, #5
    74ca:	2d14      	cmp	r5, #20
    74cc:	d000      	beq.n	74d0 <removeFilledLines+0x16c>
    74ce:	e75b      	b.n	7388 <removeFilledLines+0x24>
    74d0:	bc3c      	pop	{r2, r3, r4, r5}
    74d2:	4690      	mov	r8, r2
    74d4:	4699      	mov	r9, r3
    74d6:	46a2      	mov	sl, r4
    74d8:	46ab      	mov	fp, r5
    74da:	bdf0      	pop	{r4, r5, r6, r7, pc}
    74dc:	2000      	movs	r0, #0
    74de:	2200      	movs	r2, #0
    74e0:	4681      	mov	r9, r0
    74e2:	e76b      	b.n	73bc <removeFilledLines+0x58>
    74e4:	4681      	mov	r9, r0
    74e6:	e783      	b.n	73f0 <removeFilledLines+0x8c>
    74e8:	4680      	mov	r8, r0
    74ea:	e7a2      	b.n	7432 <removeFilledLines+0xce>
    74ec:	2000      	movs	r0, #0
    74ee:	4684      	mov	ip, r0
    74f0:	4681      	mov	r9, r0
    74f2:	e7bb      	b.n	746c <removeFilledLines+0x108>
    74f4:	2000      	movs	r0, #0
    74f6:	4681      	mov	r9, r0
    74f8:	4680      	mov	r8, r0
    74fa:	e7d9      	b.n	74b0 <removeFilledLines+0x14c>
    74fc:	20000708 	.word	0x20000708

00007500 <updateTimeText>:
    7500:	b5f0      	push	{r4, r5, r6, r7, lr}
    7502:	46c6      	mov	lr, r8
    7504:	b500      	push	{lr}
    7506:	4b26      	ldr	r3, [pc, #152]	; (75a0 <updateTimeText+0xa0>)
    7508:	b082      	sub	sp, #8
    750a:	4798      	blx	r3
    750c:	4b25      	ldr	r3, [pc, #148]	; (75a4 <updateTimeText+0xa4>)
    750e:	4f26      	ldr	r7, [pc, #152]	; (75a8 <updateTimeText+0xa8>)
    7510:	4698      	mov	r8, r3
    7512:	691b      	ldr	r3, [r3, #16]
    7514:	2164      	movs	r1, #100	; 0x64
    7516:	1ac4      	subs	r4, r0, r3
    7518:	0020      	movs	r0, r4
    751a:	47b8      	blx	r7
    751c:	4d23      	ldr	r5, [pc, #140]	; (75ac <updateTimeText+0xac>)
    751e:	0006      	movs	r6, r0
    7520:	6aab      	ldr	r3, [r5, #40]	; 0x28
    7522:	4283      	cmp	r3, r0
    7524:	d025      	beq.n	7572 <updateTimeText+0x72>
    7526:	4643      	mov	r3, r8
    7528:	62a8      	str	r0, [r5, #40]	; 0x28
    752a:	789b      	ldrb	r3, [r3, #2]
    752c:	2b01      	cmp	r3, #1
    752e:	d024      	beq.n	757a <updateTimeText+0x7a>
    7530:	491f      	ldr	r1, [pc, #124]	; (75b0 <updateTimeText+0xb0>)
    7532:	0020      	movs	r0, r4
    7534:	47b8      	blx	r7
    7536:	21fa      	movs	r1, #250	; 0xfa
    7538:	4680      	mov	r8, r0
    753a:	0020      	movs	r0, r4
    753c:	0089      	lsls	r1, r1, #2
    753e:	47b8      	blx	r7
    7540:	4f1c      	ldr	r7, [pc, #112]	; (75b4 <updateTimeText+0xb4>)
    7542:	213c      	movs	r1, #60	; 0x3c
    7544:	47b8      	blx	r7
    7546:	0030      	movs	r0, r6
    7548:	000c      	movs	r4, r1
    754a:	210a      	movs	r1, #10
    754c:	47b8      	blx	r7
    754e:	9101      	str	r1, [sp, #4]
    7550:	9400      	str	r4, [sp, #0]
    7552:	4643      	mov	r3, r8
    7554:	4a18      	ldr	r2, [pc, #96]	; (75b8 <updateTimeText+0xb8>)
    7556:	2128      	movs	r1, #40	; 0x28
    7558:	4c18      	ldr	r4, [pc, #96]	; (75bc <updateTimeText+0xbc>)
    755a:	0028      	movs	r0, r5
    755c:	47a0      	blx	r4
    755e:	2300      	movs	r3, #0
    7560:	9301      	str	r3, [sp, #4]
    7562:	3301      	adds	r3, #1
    7564:	9300      	str	r3, [sp, #0]
    7566:	2215      	movs	r2, #21
    7568:	3307      	adds	r3, #7
    756a:	0029      	movs	r1, r5
    756c:	2000      	movs	r0, #0
    756e:	4c14      	ldr	r4, [pc, #80]	; (75c0 <updateTimeText+0xc0>)
    7570:	47a0      	blx	r4
    7572:	b002      	add	sp, #8
    7574:	bc04      	pop	{r2}
    7576:	4690      	mov	r8, r2
    7578:	bdf0      	pop	{r4, r5, r6, r7, pc}
    757a:	4b12      	ldr	r3, [pc, #72]	; (75c4 <updateTimeText+0xc4>)
    757c:	429c      	cmp	r4, r3
    757e:	d904      	bls.n	758a <updateTimeText+0x8a>
    7580:	2300      	movs	r3, #0
    7582:	2100      	movs	r1, #0
    7584:	2400      	movs	r4, #0
    7586:	4698      	mov	r8, r3
    7588:	e7e1      	b.n	754e <updateTimeText+0x4e>
    758a:	2196      	movs	r1, #150	; 0x96
    758c:	4b0e      	ldr	r3, [pc, #56]	; (75c8 <updateTimeText+0xc8>)
    758e:	0089      	lsls	r1, r1, #2
    7590:	1a1e      	subs	r6, r3, r0
    7592:	0030      	movs	r0, r6
    7594:	47b8      	blx	r7
    7596:	210a      	movs	r1, #10
    7598:	4680      	mov	r8, r0
    759a:	0030      	movs	r0, r6
    759c:	e7cf      	b.n	753e <updateTimeText+0x3e>
    759e:	46c0      	nop			; (mov r8, r8)
    75a0:	0000b33d 	.word	0x0000b33d
    75a4:	200006d4 	.word	0x200006d4
    75a8:	0000b985 	.word	0x0000b985
    75ac:	2000065c 	.word	0x2000065c
    75b0:	0000ea60 	.word	0x0000ea60
    75b4:	0000ba91 	.word	0x0000ba91
    75b8:	0001dbe4 	.word	0x0001dbe4
    75bc:	0000b069 	.word	0x0000b069
    75c0:	0000b765 	.word	0x0000b765
    75c4:	00049443 	.word	0x00049443
    75c8:	00000bb8 	.word	0x00000bb8

000075cc <drawNextTetromino>:
    75cc:	b5f0      	push	{r4, r5, r6, r7, lr}
    75ce:	46de      	mov	lr, fp
    75d0:	4657      	mov	r7, sl
    75d2:	464e      	mov	r6, r9
    75d4:	4645      	mov	r5, r8
    75d6:	23b8      	movs	r3, #184	; 0xb8
    75d8:	b5e0      	push	{r5, r6, r7, lr}
    75da:	4fd3      	ldr	r7, [pc, #844]	; (7928 <drawNextTetromino+0x35c>)
    75dc:	005b      	lsls	r3, r3, #1
    75de:	5cfa      	ldrb	r2, [r7, r3]
    75e0:	003b      	movs	r3, r7
    75e2:	3371      	adds	r3, #113	; 0x71
    75e4:	33ff      	adds	r3, #255	; 0xff
    75e6:	785b      	ldrb	r3, [r3, #1]
    75e8:	b097      	sub	sp, #92	; 0x5c
    75ea:	021b      	lsls	r3, r3, #8
    75ec:	4313      	orrs	r3, r2
    75ee:	001d      	movs	r5, r3
    75f0:	4bce      	ldr	r3, [pc, #824]	; (792c <drawNextTetromino+0x360>)
    75f2:	469a      	mov	sl, r3
    75f4:	23b8      	movs	r3, #184	; 0xb8
    75f6:	4652      	mov	r2, sl
    75f8:	5cd3      	ldrb	r3, [r2, r3]
    75fa:	4651      	mov	r1, sl
    75fc:	3304      	adds	r3, #4
    75fe:	b2db      	uxtb	r3, r3
    7600:	9308      	str	r3, [sp, #32]
    7602:	23b9      	movs	r3, #185	; 0xb9
    7604:	005b      	lsls	r3, r3, #1
    7606:	5cfa      	ldrb	r2, [r7, r3]
    7608:	003b      	movs	r3, r7
    760a:	3373      	adds	r3, #115	; 0x73
    760c:	33ff      	adds	r3, #255	; 0xff
    760e:	785b      	ldrb	r3, [r3, #1]
    7610:	4650      	mov	r0, sl
    7612:	021b      	lsls	r3, r3, #8
    7614:	4313      	orrs	r3, r2
    7616:	9301      	str	r3, [sp, #4]
    7618:	23b9      	movs	r3, #185	; 0xb9
    761a:	5ccb      	ldrb	r3, [r1, r3]
    761c:	4654      	mov	r4, sl
    761e:	3304      	adds	r3, #4
    7620:	b2d9      	uxtb	r1, r3
    7622:	23ba      	movs	r3, #186	; 0xba
    7624:	005b      	lsls	r3, r3, #1
    7626:	5cfa      	ldrb	r2, [r7, r3]
    7628:	003b      	movs	r3, r7
    762a:	3375      	adds	r3, #117	; 0x75
    762c:	33ff      	adds	r3, #255	; 0xff
    762e:	785b      	ldrb	r3, [r3, #1]
    7630:	9109      	str	r1, [sp, #36]	; 0x24
    7632:	021b      	lsls	r3, r3, #8
    7634:	4313      	orrs	r3, r2
    7636:	9302      	str	r3, [sp, #8]
    7638:	23ba      	movs	r3, #186	; 0xba
    763a:	5cc3      	ldrb	r3, [r0, r3]
    763c:	4656      	mov	r6, sl
    763e:	3304      	adds	r3, #4
    7640:	b2d8      	uxtb	r0, r3
    7642:	23bb      	movs	r3, #187	; 0xbb
    7644:	005b      	lsls	r3, r3, #1
    7646:	18f9      	adds	r1, r7, r3
    7648:	5cfa      	ldrb	r2, [r7, r3]
    764a:	784b      	ldrb	r3, [r1, #1]
    764c:	900a      	str	r0, [sp, #40]	; 0x28
    764e:	021b      	lsls	r3, r3, #8
    7650:	0019      	movs	r1, r3
    7652:	23bb      	movs	r3, #187	; 0xbb
    7654:	5ce3      	ldrb	r3, [r4, r3]
    7656:	4311      	orrs	r1, r2
    7658:	3304      	adds	r3, #4
    765a:	b2dc      	uxtb	r4, r3
    765c:	23bc      	movs	r3, #188	; 0xbc
    765e:	005b      	lsls	r3, r3, #1
    7660:	18f8      	adds	r0, r7, r3
    7662:	5cfa      	ldrb	r2, [r7, r3]
    7664:	7843      	ldrb	r3, [r0, #1]
    7666:	940b      	str	r4, [sp, #44]	; 0x2c
    7668:	021b      	lsls	r3, r3, #8
    766a:	0018      	movs	r0, r3
    766c:	23bc      	movs	r3, #188	; 0xbc
    766e:	5cf3      	ldrb	r3, [r6, r3]
    7670:	4310      	orrs	r0, r2
    7672:	3304      	adds	r3, #4
    7674:	b2de      	uxtb	r6, r3
    7676:	23bd      	movs	r3, #189	; 0xbd
    7678:	005b      	lsls	r3, r3, #1
    767a:	18fc      	adds	r4, r7, r3
    767c:	5cfa      	ldrb	r2, [r7, r3]
    767e:	7863      	ldrb	r3, [r4, #1]
    7680:	9103      	str	r1, [sp, #12]
    7682:	021b      	lsls	r3, r3, #8
    7684:	0019      	movs	r1, r3
    7686:	4654      	mov	r4, sl
    7688:	23bd      	movs	r3, #189	; 0xbd
    768a:	5ce3      	ldrb	r3, [r4, r3]
    768c:	4311      	orrs	r1, r2
    768e:	3304      	adds	r3, #4
    7690:	b2dc      	uxtb	r4, r3
    7692:	23be      	movs	r3, #190	; 0xbe
    7694:	005b      	lsls	r3, r3, #1
    7696:	9004      	str	r0, [sp, #16]
    7698:	960c      	str	r6, [sp, #48]	; 0x30
    769a:	9105      	str	r1, [sp, #20]
    769c:	940d      	str	r4, [sp, #52]	; 0x34
    769e:	18fc      	adds	r4, r7, r3
    76a0:	5cfa      	ldrb	r2, [r7, r3]
    76a2:	7863      	ldrb	r3, [r4, #1]
    76a4:	4656      	mov	r6, sl
    76a6:	021b      	lsls	r3, r3, #8
    76a8:	4313      	orrs	r3, r2
    76aa:	9306      	str	r3, [sp, #24]
    76ac:	23be      	movs	r3, #190	; 0xbe
    76ae:	5cf3      	ldrb	r3, [r6, r3]
    76b0:	9510      	str	r5, [sp, #64]	; 0x40
    76b2:	3304      	adds	r3, #4
    76b4:	b2de      	uxtb	r6, r3
    76b6:	23bf      	movs	r3, #191	; 0xbf
    76b8:	005b      	lsls	r3, r3, #1
    76ba:	18fc      	adds	r4, r7, r3
    76bc:	5cfa      	ldrb	r2, [r7, r3]
    76be:	7863      	ldrb	r3, [r4, #1]
    76c0:	960e      	str	r6, [sp, #56]	; 0x38
    76c2:	021b      	lsls	r3, r3, #8
    76c4:	001c      	movs	r4, r3
    76c6:	4656      	mov	r6, sl
    76c8:	23bf      	movs	r3, #191	; 0xbf
    76ca:	5cf3      	ldrb	r3, [r6, r3]
    76cc:	4314      	orrs	r4, r2
    76ce:	3304      	adds	r3, #4
    76d0:	b2de      	uxtb	r6, r3
    76d2:	960f      	str	r6, [sp, #60]	; 0x3c
    76d4:	002e      	movs	r6, r5
    76d6:	9407      	str	r4, [sp, #28]
    76d8:	4b95      	ldr	r3, [pc, #596]	; (7930 <drawNextTetromino+0x364>)
    76da:	4c96      	ldr	r4, [pc, #600]	; (7934 <drawNextTetromino+0x368>)
    76dc:	2205      	movs	r2, #5
    76de:	52e5      	strh	r5, [r4, r3]
    76e0:	042b      	lsls	r3, r5, #16
    76e2:	431e      	orrs	r6, r3
    76e4:	4b94      	ldr	r3, [pc, #592]	; (7938 <drawNextTetromino+0x36c>)
    76e6:	4d95      	ldr	r5, [pc, #596]	; (793c <drawNextTetromino+0x370>)
    76e8:	50e6      	str	r6, [r4, r3]
    76ea:	4b95      	ldr	r3, [pc, #596]	; (7940 <drawNextTetromino+0x374>)
    76ec:	46b3      	mov	fp, r6
    76ee:	50e6      	str	r6, [r4, r3]
    76f0:	9908      	ldr	r1, [sp, #32]
    76f2:	4e94      	ldr	r6, [pc, #592]	; (7944 <drawNextTetromino+0x378>)
    76f4:	0028      	movs	r0, r5
    76f6:	47b0      	blx	r6
    76f8:	9a01      	ldr	r2, [sp, #4]
    76fa:	4b93      	ldr	r3, [pc, #588]	; (7948 <drawNextTetromino+0x37c>)
    76fc:	0010      	movs	r0, r2
    76fe:	52e2      	strh	r2, [r4, r3]
    7700:	0413      	lsls	r3, r2, #16
    7702:	4318      	orrs	r0, r3
    7704:	4b91      	ldr	r3, [pc, #580]	; (794c <drawNextTetromino+0x380>)
    7706:	9011      	str	r0, [sp, #68]	; 0x44
    7708:	50e0      	str	r0, [r4, r3]
    770a:	3304      	adds	r3, #4
    770c:	50e0      	str	r0, [r4, r3]
    770e:	002b      	movs	r3, r5
    7710:	3328      	adds	r3, #40	; 0x28
    7712:	0018      	movs	r0, r3
    7714:	2205      	movs	r2, #5
    7716:	9909      	ldr	r1, [sp, #36]	; 0x24
    7718:	47b0      	blx	r6
    771a:	9a02      	ldr	r2, [sp, #8]
    771c:	4b8c      	ldr	r3, [pc, #560]	; (7950 <drawNextTetromino+0x384>)
    771e:	990a      	ldr	r1, [sp, #40]	; 0x28
    7720:	52e2      	strh	r2, [r4, r3]
    7722:	0413      	lsls	r3, r2, #16
    7724:	431a      	orrs	r2, r3
    7726:	4b8b      	ldr	r3, [pc, #556]	; (7954 <drawNextTetromino+0x388>)
    7728:	4691      	mov	r9, r2
    772a:	50e2      	str	r2, [r4, r3]
    772c:	4b8a      	ldr	r3, [pc, #552]	; (7958 <drawNextTetromino+0x38c>)
    772e:	50e2      	str	r2, [r4, r3]
    7730:	002b      	movs	r3, r5
    7732:	3350      	adds	r3, #80	; 0x50
    7734:	0018      	movs	r0, r3
    7736:	2205      	movs	r2, #5
    7738:	47b0      	blx	r6
    773a:	9a03      	ldr	r2, [sp, #12]
    773c:	4b87      	ldr	r3, [pc, #540]	; (795c <drawNextTetromino+0x390>)
    773e:	990b      	ldr	r1, [sp, #44]	; 0x2c
    7740:	52e2      	strh	r2, [r4, r3]
    7742:	0413      	lsls	r3, r2, #16
    7744:	431a      	orrs	r2, r3
    7746:	4b86      	ldr	r3, [pc, #536]	; (7960 <drawNextTetromino+0x394>)
    7748:	4690      	mov	r8, r2
    774a:	50e2      	str	r2, [r4, r3]
    774c:	4b85      	ldr	r3, [pc, #532]	; (7964 <drawNextTetromino+0x398>)
    774e:	50e2      	str	r2, [r4, r3]
    7750:	002b      	movs	r3, r5
    7752:	3378      	adds	r3, #120	; 0x78
    7754:	0018      	movs	r0, r3
    7756:	2205      	movs	r2, #5
    7758:	47b0      	blx	r6
    775a:	9804      	ldr	r0, [sp, #16]
    775c:	4b82      	ldr	r3, [pc, #520]	; (7968 <drawNextTetromino+0x39c>)
    775e:	2205      	movs	r2, #5
    7760:	52e0      	strh	r0, [r4, r3]
    7762:	0403      	lsls	r3, r0, #16
    7764:	4318      	orrs	r0, r3
    7766:	4b81      	ldr	r3, [pc, #516]	; (796c <drawNextTetromino+0x3a0>)
    7768:	9012      	str	r0, [sp, #72]	; 0x48
    776a:	50e0      	str	r0, [r4, r3]
    776c:	4b80      	ldr	r3, [pc, #512]	; (7970 <drawNextTetromino+0x3a4>)
    776e:	990c      	ldr	r1, [sp, #48]	; 0x30
    7770:	50e0      	str	r0, [r4, r3]
    7772:	002b      	movs	r3, r5
    7774:	33a0      	adds	r3, #160	; 0xa0
    7776:	0018      	movs	r0, r3
    7778:	47b0      	blx	r6
    777a:	9905      	ldr	r1, [sp, #20]
    777c:	4b7d      	ldr	r3, [pc, #500]	; (7974 <drawNextTetromino+0x3a8>)
    777e:	2205      	movs	r2, #5
    7780:	52e1      	strh	r1, [r4, r3]
    7782:	040b      	lsls	r3, r1, #16
    7784:	4319      	orrs	r1, r3
    7786:	4b7c      	ldr	r3, [pc, #496]	; (7978 <drawNextTetromino+0x3ac>)
    7788:	9113      	str	r1, [sp, #76]	; 0x4c
    778a:	50e1      	str	r1, [r4, r3]
    778c:	3304      	adds	r3, #4
    778e:	50e1      	str	r1, [r4, r3]
    7790:	002b      	movs	r3, r5
    7792:	33c8      	adds	r3, #200	; 0xc8
    7794:	0018      	movs	r0, r3
    7796:	990d      	ldr	r1, [sp, #52]	; 0x34
    7798:	47b0      	blx	r6
    779a:	9806      	ldr	r0, [sp, #24]
    779c:	4b77      	ldr	r3, [pc, #476]	; (797c <drawNextTetromino+0x3b0>)
    779e:	2205      	movs	r2, #5
    77a0:	52e0      	strh	r0, [r4, r3]
    77a2:	0403      	lsls	r3, r0, #16
    77a4:	4318      	orrs	r0, r3
    77a6:	4b76      	ldr	r3, [pc, #472]	; (7980 <drawNextTetromino+0x3b4>)
    77a8:	9014      	str	r0, [sp, #80]	; 0x50
    77aa:	50e0      	str	r0, [r4, r3]
    77ac:	4b75      	ldr	r3, [pc, #468]	; (7984 <drawNextTetromino+0x3b8>)
    77ae:	990e      	ldr	r1, [sp, #56]	; 0x38
    77b0:	50e0      	str	r0, [r4, r3]
    77b2:	002b      	movs	r3, r5
    77b4:	33f0      	adds	r3, #240	; 0xf0
    77b6:	0018      	movs	r0, r3
    77b8:	47b0      	blx	r6
    77ba:	9907      	ldr	r1, [sp, #28]
    77bc:	4b72      	ldr	r3, [pc, #456]	; (7988 <drawNextTetromino+0x3bc>)
    77be:	000a      	movs	r2, r1
    77c0:	52e1      	strh	r1, [r4, r3]
    77c2:	040b      	lsls	r3, r1, #16
    77c4:	431a      	orrs	r2, r3
    77c6:	4b71      	ldr	r3, [pc, #452]	; (798c <drawNextTetromino+0x3c0>)
    77c8:	9215      	str	r2, [sp, #84]	; 0x54
    77ca:	50e2      	str	r2, [r4, r3]
    77cc:	4b70      	ldr	r3, [pc, #448]	; (7990 <drawNextTetromino+0x3c4>)
    77ce:	990f      	ldr	r1, [sp, #60]	; 0x3c
    77d0:	50e2      	str	r2, [r4, r3]
    77d2:	002b      	movs	r3, r5
    77d4:	3319      	adds	r3, #25
    77d6:	33ff      	adds	r3, #255	; 0xff
    77d8:	0018      	movs	r0, r3
    77da:	2205      	movs	r2, #5
    77dc:	47b0      	blx	r6
    77de:	9810      	ldr	r0, [sp, #64]	; 0x40
    77e0:	4b6c      	ldr	r3, [pc, #432]	; (7994 <drawNextTetromino+0x3c8>)
    77e2:	2205      	movs	r2, #5
    77e4:	52e0      	strh	r0, [r4, r3]
    77e6:	4658      	mov	r0, fp
    77e8:	4b6b      	ldr	r3, [pc, #428]	; (7998 <drawNextTetromino+0x3cc>)
    77ea:	9908      	ldr	r1, [sp, #32]
    77ec:	50e0      	str	r0, [r4, r3]
    77ee:	4b6b      	ldr	r3, [pc, #428]	; (799c <drawNextTetromino+0x3d0>)
    77f0:	50e0      	str	r0, [r4, r3]
    77f2:	002b      	movs	r3, r5
    77f4:	3341      	adds	r3, #65	; 0x41
    77f6:	33ff      	adds	r3, #255	; 0xff
    77f8:	0018      	movs	r0, r3
    77fa:	47b0      	blx	r6
    77fc:	9801      	ldr	r0, [sp, #4]
    77fe:	4b68      	ldr	r3, [pc, #416]	; (79a0 <drawNextTetromino+0x3d4>)
    7800:	9a11      	ldr	r2, [sp, #68]	; 0x44
    7802:	52e0      	strh	r0, [r4, r3]
    7804:	4b67      	ldr	r3, [pc, #412]	; (79a4 <drawNextTetromino+0x3d8>)
    7806:	9909      	ldr	r1, [sp, #36]	; 0x24
    7808:	50e2      	str	r2, [r4, r3]
    780a:	3304      	adds	r3, #4
    780c:	50e2      	str	r2, [r4, r3]
    780e:	002b      	movs	r3, r5
    7810:	3369      	adds	r3, #105	; 0x69
    7812:	33ff      	adds	r3, #255	; 0xff
    7814:	0018      	movs	r0, r3
    7816:	2205      	movs	r2, #5
    7818:	47b0      	blx	r6
    781a:	9802      	ldr	r0, [sp, #8]
    781c:	4b62      	ldr	r3, [pc, #392]	; (79a8 <drawNextTetromino+0x3dc>)
    781e:	2205      	movs	r2, #5
    7820:	52e0      	strh	r0, [r4, r3]
    7822:	4648      	mov	r0, r9
    7824:	4b61      	ldr	r3, [pc, #388]	; (79ac <drawNextTetromino+0x3e0>)
    7826:	990a      	ldr	r1, [sp, #40]	; 0x28
    7828:	50e0      	str	r0, [r4, r3]
    782a:	4b61      	ldr	r3, [pc, #388]	; (79b0 <drawNextTetromino+0x3e4>)
    782c:	50e0      	str	r0, [r4, r3]
    782e:	002b      	movs	r3, r5
    7830:	3391      	adds	r3, #145	; 0x91
    7832:	33ff      	adds	r3, #255	; 0xff
    7834:	0018      	movs	r0, r3
    7836:	47b0      	blx	r6
    7838:	9903      	ldr	r1, [sp, #12]
    783a:	4b5e      	ldr	r3, [pc, #376]	; (79b4 <drawNextTetromino+0x3e8>)
    783c:	2205      	movs	r2, #5
    783e:	52e1      	strh	r1, [r4, r3]
    7840:	4641      	mov	r1, r8
    7842:	4b5d      	ldr	r3, [pc, #372]	; (79b8 <drawNextTetromino+0x3ec>)
    7844:	50e1      	str	r1, [r4, r3]
    7846:	4b5d      	ldr	r3, [pc, #372]	; (79bc <drawNextTetromino+0x3f0>)
    7848:	50e1      	str	r1, [r4, r3]
    784a:	002b      	movs	r3, r5
    784c:	33b9      	adds	r3, #185	; 0xb9
    784e:	33ff      	adds	r3, #255	; 0xff
    7850:	0018      	movs	r0, r3
    7852:	990b      	ldr	r1, [sp, #44]	; 0x2c
    7854:	47b0      	blx	r6
    7856:	9a04      	ldr	r2, [sp, #16]
    7858:	4b59      	ldr	r3, [pc, #356]	; (79c0 <drawNextTetromino+0x3f4>)
    785a:	990c      	ldr	r1, [sp, #48]	; 0x30
    785c:	52e2      	strh	r2, [r4, r3]
    785e:	9a12      	ldr	r2, [sp, #72]	; 0x48
    7860:	4b58      	ldr	r3, [pc, #352]	; (79c4 <drawNextTetromino+0x3f8>)
    7862:	50e2      	str	r2, [r4, r3]
    7864:	4b58      	ldr	r3, [pc, #352]	; (79c8 <drawNextTetromino+0x3fc>)
    7866:	50e2      	str	r2, [r4, r3]
    7868:	002b      	movs	r3, r5
    786a:	33e1      	adds	r3, #225	; 0xe1
    786c:	33ff      	adds	r3, #255	; 0xff
    786e:	0018      	movs	r0, r3
    7870:	2205      	movs	r2, #5
    7872:	47b0      	blx	r6
    7874:	9805      	ldr	r0, [sp, #20]
    7876:	4b55      	ldr	r3, [pc, #340]	; (79cc <drawNextTetromino+0x400>)
    7878:	9a13      	ldr	r2, [sp, #76]	; 0x4c
    787a:	52e0      	strh	r0, [r4, r3]
    787c:	4b54      	ldr	r3, [pc, #336]	; (79d0 <drawNextTetromino+0x404>)
    787e:	990d      	ldr	r1, [sp, #52]	; 0x34
    7880:	50e2      	str	r2, [r4, r3]
    7882:	3304      	adds	r3, #4
    7884:	50e2      	str	r2, [r4, r3]
    7886:	2382      	movs	r3, #130	; 0x82
    7888:	009b      	lsls	r3, r3, #2
    788a:	18e8      	adds	r0, r5, r3
    788c:	2205      	movs	r2, #5
    788e:	47b0      	blx	r6
    7890:	9806      	ldr	r0, [sp, #24]
    7892:	4b50      	ldr	r3, [pc, #320]	; (79d4 <drawNextTetromino+0x408>)
    7894:	9a14      	ldr	r2, [sp, #80]	; 0x50
    7896:	52e0      	strh	r0, [r4, r3]
    7898:	4b4f      	ldr	r3, [pc, #316]	; (79d8 <drawNextTetromino+0x40c>)
    789a:	990e      	ldr	r1, [sp, #56]	; 0x38
    789c:	50e2      	str	r2, [r4, r3]
    789e:	4b4f      	ldr	r3, [pc, #316]	; (79dc <drawNextTetromino+0x410>)
    78a0:	50e2      	str	r2, [r4, r3]
    78a2:	238c      	movs	r3, #140	; 0x8c
    78a4:	009b      	lsls	r3, r3, #2
    78a6:	18e8      	adds	r0, r5, r3
    78a8:	2205      	movs	r2, #5
    78aa:	47b0      	blx	r6
    78ac:	9807      	ldr	r0, [sp, #28]
    78ae:	4b4c      	ldr	r3, [pc, #304]	; (79e0 <drawNextTetromino+0x414>)
    78b0:	9a15      	ldr	r2, [sp, #84]	; 0x54
    78b2:	52e0      	strh	r0, [r4, r3]
    78b4:	4b4b      	ldr	r3, [pc, #300]	; (79e4 <drawNextTetromino+0x418>)
    78b6:	990f      	ldr	r1, [sp, #60]	; 0x3c
    78b8:	50e2      	str	r2, [r4, r3]
    78ba:	4b4b      	ldr	r3, [pc, #300]	; (79e8 <drawNextTetromino+0x41c>)
    78bc:	50e2      	str	r2, [r4, r3]
    78be:	2396      	movs	r3, #150	; 0x96
    78c0:	009b      	lsls	r3, r3, #2
    78c2:	18e8      	adds	r0, r5, r3
    78c4:	2205      	movs	r2, #5
    78c6:	47b0      	blx	r6
    78c8:	2325      	movs	r3, #37	; 0x25
    78ca:	2100      	movs	r1, #0
    78cc:	4a47      	ldr	r2, [pc, #284]	; (79ec <drawNextTetromino+0x420>)
    78ce:	5cd3      	ldrb	r3, [r2, r3]
    78d0:	9101      	str	r1, [sp, #4]
    78d2:	b25a      	sxtb	r2, r3
    78d4:	2a00      	cmp	r2, #0
    78d6:	da03      	bge.n	78e0 <drawNextTetromino+0x314>
    78d8:	227f      	movs	r2, #127	; 0x7f
    78da:	4013      	ands	r3, r2
    78dc:	3a7e      	subs	r2, #126	; 0x7e
    78de:	9201      	str	r2, [sp, #4]
    78e0:	0098      	lsls	r0, r3, #2
    78e2:	18c3      	adds	r3, r0, r3
    78e4:	4942      	ldr	r1, [pc, #264]	; (79f0 <drawNextTetromino+0x424>)
    78e6:	005b      	lsls	r3, r3, #1
    78e8:	18ca      	adds	r2, r1, r3
    78ea:	0010      	movs	r0, r2
    78ec:	3024      	adds	r0, #36	; 0x24
    78ee:	7805      	ldrb	r5, [r0, #0]
    78f0:	2d00      	cmp	r5, #0
    78f2:	d100      	bne.n	78f6 <drawNextTetromino+0x32a>
    78f4:	e184      	b.n	7c00 <drawNextTetromino+0x634>
    78f6:	3225      	adds	r2, #37	; 0x25
    78f8:	7816      	ldrb	r6, [r2, #0]
    78fa:	2e00      	cmp	r6, #0
    78fc:	d100      	bne.n	7900 <drawNextTetromino+0x334>
    78fe:	e17f      	b.n	7c00 <drawNextTetromino+0x634>
    7900:	311c      	adds	r1, #28
    7902:	18c8      	adds	r0, r1, r3
    7904:	23a0      	movs	r3, #160	; 0xa0
    7906:	2400      	movs	r4, #0
    7908:	469b      	mov	fp, r3
    790a:	493a      	ldr	r1, [pc, #232]	; (79f4 <drawNextTetromino+0x428>)
    790c:	4a3a      	ldr	r2, [pc, #232]	; (79f8 <drawNextTetromino+0x42c>)
    790e:	9502      	str	r5, [sp, #8]
    7910:	9603      	str	r6, [sp, #12]
    7912:	7803      	ldrb	r3, [r0, #0]
    7914:	2b00      	cmp	r3, #0
    7916:	d100      	bne.n	791a <drawNextTetromino+0x34e>
    7918:	e0dc      	b.n	7ad4 <drawNextTetromino+0x508>
    791a:	9d01      	ldr	r5, [sp, #4]
    791c:	2d00      	cmp	r5, #0
    791e:	d100      	bne.n	7922 <drawNextTetromino+0x356>
    7920:	e175      	b.n	7c0e <drawNextTetromino+0x642>
    7922:	330f      	adds	r3, #15
    7924:	e06a      	b.n	79fc <drawNextTetromino+0x430>
    7926:	46c0      	nop			; (mov r8, r8)
    7928:	0001e1e0 	.word	0x0001e1e0
    792c:	0001ddc0 	.word	0x0001ddc0
    7930:	0000232a 	.word	0x0000232a
    7934:	20000b40 	.word	0x20000b40
    7938:	0000232c 	.word	0x0000232c
    793c:	20006b75 	.word	0x20006b75
    7940:	00002330 	.word	0x00002330
    7944:	0000bd5d 	.word	0x0000bd5d
    7948:	0000237a 	.word	0x0000237a
    794c:	0000237c 	.word	0x0000237c
    7950:	000023ca 	.word	0x000023ca
    7954:	000023cc 	.word	0x000023cc
    7958:	000023d0 	.word	0x000023d0
    795c:	0000241a 	.word	0x0000241a
    7960:	0000241c 	.word	0x0000241c
    7964:	00002420 	.word	0x00002420
    7968:	0000246a 	.word	0x0000246a
    796c:	0000246c 	.word	0x0000246c
    7970:	00002470 	.word	0x00002470
    7974:	000024ba 	.word	0x000024ba
    7978:	000024bc 	.word	0x000024bc
    797c:	0000250a 	.word	0x0000250a
    7980:	0000250c 	.word	0x0000250c
    7984:	00002510 	.word	0x00002510
    7988:	0000255a 	.word	0x0000255a
    798c:	0000255c 	.word	0x0000255c
    7990:	00002560 	.word	0x00002560
    7994:	000025aa 	.word	0x000025aa
    7998:	000025ac 	.word	0x000025ac
    799c:	000025b0 	.word	0x000025b0
    79a0:	000025fa 	.word	0x000025fa
    79a4:	000025fc 	.word	0x000025fc
    79a8:	0000264a 	.word	0x0000264a
    79ac:	0000264c 	.word	0x0000264c
    79b0:	00002650 	.word	0x00002650
    79b4:	0000269a 	.word	0x0000269a
    79b8:	0000269c 	.word	0x0000269c
    79bc:	000026a0 	.word	0x000026a0
    79c0:	000026ea 	.word	0x000026ea
    79c4:	000026ec 	.word	0x000026ec
    79c8:	000026f0 	.word	0x000026f0
    79cc:	0000273a 	.word	0x0000273a
    79d0:	0000273c 	.word	0x0000273c
    79d4:	0000278a 	.word	0x0000278a
    79d8:	0000278c 	.word	0x0000278c
    79dc:	00002790 	.word	0x00002790
    79e0:	000027da 	.word	0x000027da
    79e4:	000027dc 	.word	0x000027dc
    79e8:	000027e0 	.word	0x000027e0
    79ec:	200006d4 	.word	0x200006d4
    79f0:	0001d9bc 	.word	0x0001d9bc
    79f4:	20002e6c 	.word	0x20002e6c
    79f8:	20006b76 	.word	0x20006b76
    79fc:	011d      	lsls	r5, r3, #4
    79fe:	46ac      	mov	ip, r5
    7a00:	44bc      	add	ip, r7
    7a02:	4665      	mov	r5, ip
    7a04:	882d      	ldrh	r5, [r5, #0]
    7a06:	00db      	lsls	r3, r3, #3
    7a08:	800d      	strh	r5, [r1, #0]
    7a0a:	4453      	add	r3, sl
    7a0c:	781d      	ldrb	r5, [r3, #0]
    7a0e:	46a8      	mov	r8, r5
    7a10:	2504      	movs	r5, #4
    7a12:	46a9      	mov	r9, r5
    7a14:	44c8      	add	r8, r9
    7a16:	4645      	mov	r5, r8
    7a18:	7015      	strb	r5, [r2, #0]
    7a1a:	4665      	mov	r5, ip
    7a1c:	886d      	ldrh	r5, [r5, #2]
    7a1e:	46a8      	mov	r8, r5
    7a20:	2550      	movs	r5, #80	; 0x50
    7a22:	4646      	mov	r6, r8
    7a24:	534e      	strh	r6, [r1, r5]
    7a26:	785e      	ldrb	r6, [r3, #1]
    7a28:	46b0      	mov	r8, r6
    7a2a:	2604      	movs	r6, #4
    7a2c:	44c8      	add	r8, r9
    7a2e:	4645      	mov	r5, r8
    7a30:	3624      	adds	r6, #36	; 0x24
    7a32:	5595      	strb	r5, [r2, r6]
    7a34:	4665      	mov	r5, ip
    7a36:	88ad      	ldrh	r5, [r5, #4]
    7a38:	46a8      	mov	r8, r5
    7a3a:	465d      	mov	r5, fp
    7a3c:	4646      	mov	r6, r8
    7a3e:	534e      	strh	r6, [r1, r5]
    7a40:	789d      	ldrb	r5, [r3, #2]
    7a42:	46a8      	mov	r8, r5
    7a44:	2504      	movs	r5, #4
    7a46:	44c8      	add	r8, r9
    7a48:	4646      	mov	r6, r8
    7a4a:	354c      	adds	r5, #76	; 0x4c
    7a4c:	5556      	strb	r6, [r2, r5]
    7a4e:	4665      	mov	r5, ip
    7a50:	88ed      	ldrh	r5, [r5, #6]
    7a52:	46a8      	mov	r8, r5
    7a54:	25f0      	movs	r5, #240	; 0xf0
    7a56:	4646      	mov	r6, r8
    7a58:	534e      	strh	r6, [r1, r5]
    7a5a:	78de      	ldrb	r6, [r3, #3]
    7a5c:	46b0      	mov	r8, r6
    7a5e:	2604      	movs	r6, #4
    7a60:	44c8      	add	r8, r9
    7a62:	4645      	mov	r5, r8
    7a64:	3674      	adds	r6, #116	; 0x74
    7a66:	5595      	strb	r5, [r2, r6]
    7a68:	4665      	mov	r5, ip
    7a6a:	892d      	ldrh	r5, [r5, #8]
    7a6c:	46a8      	mov	r8, r5
    7a6e:	25a0      	movs	r5, #160	; 0xa0
    7a70:	4646      	mov	r6, r8
    7a72:	006d      	lsls	r5, r5, #1
    7a74:	534e      	strh	r6, [r1, r5]
    7a76:	791d      	ldrb	r5, [r3, #4]
    7a78:	46a8      	mov	r8, r5
    7a7a:	44c8      	add	r8, r9
    7a7c:	4646      	mov	r6, r8
    7a7e:	465d      	mov	r5, fp
    7a80:	5556      	strb	r6, [r2, r5]
    7a82:	4665      	mov	r5, ip
    7a84:	896d      	ldrh	r5, [r5, #10]
    7a86:	46a8      	mov	r8, r5
    7a88:	25c8      	movs	r5, #200	; 0xc8
    7a8a:	4646      	mov	r6, r8
    7a8c:	006d      	lsls	r5, r5, #1
    7a8e:	534e      	strh	r6, [r1, r5]
    7a90:	795d      	ldrb	r5, [r3, #5]
    7a92:	46a8      	mov	r8, r5
    7a94:	2504      	movs	r5, #4
    7a96:	44c8      	add	r8, r9
    7a98:	4646      	mov	r6, r8
    7a9a:	35c4      	adds	r5, #196	; 0xc4
    7a9c:	5556      	strb	r6, [r2, r5]
    7a9e:	4665      	mov	r5, ip
    7aa0:	89ad      	ldrh	r5, [r5, #12]
    7aa2:	46a9      	mov	r9, r5
    7aa4:	25f0      	movs	r5, #240	; 0xf0
    7aa6:	464e      	mov	r6, r9
    7aa8:	006d      	lsls	r5, r5, #1
    7aaa:	534e      	strh	r6, [r1, r5]
    7aac:	799d      	ldrb	r5, [r3, #6]
    7aae:	46a8      	mov	r8, r5
    7ab0:	2504      	movs	r5, #4
    7ab2:	46a9      	mov	r9, r5
    7ab4:	44c8      	add	r8, r9
    7ab6:	4646      	mov	r6, r8
    7ab8:	35ec      	adds	r5, #236	; 0xec
    7aba:	5556      	strb	r6, [r2, r5]
    7abc:	4665      	mov	r5, ip
    7abe:	89ed      	ldrh	r5, [r5, #14]
    7ac0:	46a8      	mov	r8, r5
    7ac2:	258c      	movs	r5, #140	; 0x8c
    7ac4:	4646      	mov	r6, r8
    7ac6:	00ad      	lsls	r5, r5, #2
    7ac8:	534e      	strh	r6, [r1, r5]
    7aca:	79db      	ldrb	r3, [r3, #7]
    7acc:	3d19      	subs	r5, #25
    7ace:	3304      	adds	r3, #4
    7ad0:	3dff      	subs	r5, #255	; 0xff
    7ad2:	5553      	strb	r3, [r2, r5]
    7ad4:	9b03      	ldr	r3, [sp, #12]
    7ad6:	2b01      	cmp	r3, #1
    7ad8:	d100      	bne.n	7adc <drawNextTetromino+0x510>
    7ada:	e089      	b.n	7bf0 <drawNextTetromino+0x624>
    7adc:	7903      	ldrb	r3, [r0, #4]
    7ade:	2b00      	cmp	r3, #0
    7ae0:	d100      	bne.n	7ae4 <drawNextTetromino+0x518>
    7ae2:	e085      	b.n	7bf0 <drawNextTetromino+0x624>
    7ae4:	9d01      	ldr	r5, [sp, #4]
    7ae6:	2d00      	cmp	r5, #0
    7ae8:	d100      	bne.n	7aec <drawNextTetromino+0x520>
    7aea:	e092      	b.n	7c12 <drawNextTetromino+0x646>
    7aec:	330f      	adds	r3, #15
    7aee:	011d      	lsls	r5, r3, #4
    7af0:	46ac      	mov	ip, r5
    7af2:	44bc      	add	ip, r7
    7af4:	4665      	mov	r5, ip
    7af6:	882d      	ldrh	r5, [r5, #0]
    7af8:	00db      	lsls	r3, r3, #3
    7afa:	46a9      	mov	r9, r5
    7afc:	25a0      	movs	r5, #160	; 0xa0
    7afe:	464e      	mov	r6, r9
    7b00:	00ad      	lsls	r5, r5, #2
    7b02:	534e      	strh	r6, [r1, r5]
    7b04:	4453      	add	r3, sl
    7b06:	781d      	ldrb	r5, [r3, #0]
    7b08:	46a8      	mov	r8, r5
    7b0a:	2504      	movs	r5, #4
    7b0c:	46a9      	mov	r9, r5
    7b0e:	44c8      	add	r8, r9
    7b10:	4646      	mov	r6, r8
    7b12:	353d      	adds	r5, #61	; 0x3d
    7b14:	35ff      	adds	r5, #255	; 0xff
    7b16:	5556      	strb	r6, [r2, r5]
    7b18:	4665      	mov	r5, ip
    7b1a:	886d      	ldrh	r5, [r5, #2]
    7b1c:	46a9      	mov	r9, r5
    7b1e:	25b4      	movs	r5, #180	; 0xb4
    7b20:	464e      	mov	r6, r9
    7b22:	00ad      	lsls	r5, r5, #2
    7b24:	534e      	strh	r6, [r1, r5]
    7b26:	785d      	ldrb	r5, [r3, #1]
    7b28:	46a8      	mov	r8, r5
    7b2a:	2504      	movs	r5, #4
    7b2c:	46a9      	mov	r9, r5
    7b2e:	44c8      	add	r8, r9
    7b30:	4646      	mov	r6, r8
    7b32:	3565      	adds	r5, #101	; 0x65
    7b34:	35ff      	adds	r5, #255	; 0xff
    7b36:	5556      	strb	r6, [r2, r5]
    7b38:	4665      	mov	r5, ip
    7b3a:	88ad      	ldrh	r5, [r5, #4]
    7b3c:	46a9      	mov	r9, r5
    7b3e:	25c8      	movs	r5, #200	; 0xc8
    7b40:	464e      	mov	r6, r9
    7b42:	00ad      	lsls	r5, r5, #2
    7b44:	534e      	strh	r6, [r1, r5]
    7b46:	789d      	ldrb	r5, [r3, #2]
    7b48:	46a8      	mov	r8, r5
    7b4a:	2504      	movs	r5, #4
    7b4c:	46a9      	mov	r9, r5
    7b4e:	44c8      	add	r8, r9
    7b50:	4646      	mov	r6, r8
    7b52:	358d      	adds	r5, #141	; 0x8d
    7b54:	35ff      	adds	r5, #255	; 0xff
    7b56:	5556      	strb	r6, [r2, r5]
    7b58:	4665      	mov	r5, ip
    7b5a:	88ed      	ldrh	r5, [r5, #6]
    7b5c:	46a9      	mov	r9, r5
    7b5e:	25dc      	movs	r5, #220	; 0xdc
    7b60:	464e      	mov	r6, r9
    7b62:	00ad      	lsls	r5, r5, #2
    7b64:	534e      	strh	r6, [r1, r5]
    7b66:	78dd      	ldrb	r5, [r3, #3]
    7b68:	46a8      	mov	r8, r5
    7b6a:	2504      	movs	r5, #4
    7b6c:	46a9      	mov	r9, r5
    7b6e:	44c8      	add	r8, r9
    7b70:	4646      	mov	r6, r8
    7b72:	35b5      	adds	r5, #181	; 0xb5
    7b74:	35ff      	adds	r5, #255	; 0xff
    7b76:	5556      	strb	r6, [r2, r5]
    7b78:	4665      	mov	r5, ip
    7b7a:	892d      	ldrh	r5, [r5, #8]
    7b7c:	46a9      	mov	r9, r5
    7b7e:	25f0      	movs	r5, #240	; 0xf0
    7b80:	464e      	mov	r6, r9
    7b82:	00ad      	lsls	r5, r5, #2
    7b84:	534e      	strh	r6, [r1, r5]
    7b86:	791d      	ldrb	r5, [r3, #4]
    7b88:	46a8      	mov	r8, r5
    7b8a:	2504      	movs	r5, #4
    7b8c:	46a9      	mov	r9, r5
    7b8e:	44c8      	add	r8, r9
    7b90:	4646      	mov	r6, r8
    7b92:	35dd      	adds	r5, #221	; 0xdd
    7b94:	35ff      	adds	r5, #255	; 0xff
    7b96:	5556      	strb	r6, [r2, r5]
    7b98:	4665      	mov	r5, ip
    7b9a:	896d      	ldrh	r5, [r5, #10]
    7b9c:	46a9      	mov	r9, r5
    7b9e:	2582      	movs	r5, #130	; 0x82
    7ba0:	464e      	mov	r6, r9
    7ba2:	00ed      	lsls	r5, r5, #3
    7ba4:	534e      	strh	r6, [r1, r5]
    7ba6:	795d      	ldrb	r5, [r3, #5]
    7ba8:	46a8      	mov	r8, r5
    7baa:	2504      	movs	r5, #4
    7bac:	46a9      	mov	r9, r5
    7bae:	2582      	movs	r5, #130	; 0x82
    7bb0:	44c8      	add	r8, r9
    7bb2:	4646      	mov	r6, r8
    7bb4:	00ad      	lsls	r5, r5, #2
    7bb6:	5556      	strb	r6, [r2, r5]
    7bb8:	4665      	mov	r5, ip
    7bba:	89ad      	ldrh	r5, [r5, #12]
    7bbc:	46a9      	mov	r9, r5
    7bbe:	258c      	movs	r5, #140	; 0x8c
    7bc0:	464e      	mov	r6, r9
    7bc2:	00ed      	lsls	r5, r5, #3
    7bc4:	534e      	strh	r6, [r1, r5]
    7bc6:	799d      	ldrb	r5, [r3, #6]
    7bc8:	46a8      	mov	r8, r5
    7bca:	2504      	movs	r5, #4
    7bcc:	46a9      	mov	r9, r5
    7bce:	258c      	movs	r5, #140	; 0x8c
    7bd0:	44c8      	add	r8, r9
    7bd2:	4646      	mov	r6, r8
    7bd4:	00ad      	lsls	r5, r5, #2
    7bd6:	5556      	strb	r6, [r2, r5]
    7bd8:	4665      	mov	r5, ip
    7bda:	89ed      	ldrh	r5, [r5, #14]
    7bdc:	46a8      	mov	r8, r5
    7bde:	2596      	movs	r5, #150	; 0x96
    7be0:	4646      	mov	r6, r8
    7be2:	00ed      	lsls	r5, r5, #3
    7be4:	534e      	strh	r6, [r1, r5]
    7be6:	2596      	movs	r5, #150	; 0x96
    7be8:	79db      	ldrb	r3, [r3, #7]
    7bea:	00ad      	lsls	r5, r5, #2
    7bec:	3304      	adds	r3, #4
    7bee:	5553      	strb	r3, [r2, r5]
    7bf0:	9b02      	ldr	r3, [sp, #8]
    7bf2:	3401      	adds	r4, #1
    7bf4:	3001      	adds	r0, #1
    7bf6:	3102      	adds	r1, #2
    7bf8:	3201      	adds	r2, #1
    7bfa:	429c      	cmp	r4, r3
    7bfc:	da00      	bge.n	7c00 <drawNextTetromino+0x634>
    7bfe:	e688      	b.n	7912 <drawNextTetromino+0x346>
    7c00:	b017      	add	sp, #92	; 0x5c
    7c02:	bc3c      	pop	{r2, r3, r4, r5}
    7c04:	4690      	mov	r8, r2
    7c06:	4699      	mov	r9, r3
    7c08:	46a2      	mov	sl, r4
    7c0a:	46ab      	mov	fp, r5
    7c0c:	bdf0      	pop	{r4, r5, r6, r7, pc}
    7c0e:	3b01      	subs	r3, #1
    7c10:	e6f4      	b.n	79fc <drawNextTetromino+0x430>
    7c12:	3b01      	subs	r3, #1
    7c14:	e76b      	b.n	7aee <drawNextTetromino+0x522>
    7c16:	46c0      	nop			; (mov r8, r8)

00007c18 <putTetromino>:
    7c18:	b5f0      	push	{r4, r5, r6, r7, lr}
    7c1a:	464e      	mov	r6, r9
    7c1c:	4657      	mov	r7, sl
    7c1e:	46de      	mov	lr, fp
    7c20:	4645      	mov	r5, r8
    7c22:	b5e0      	push	{r5, r6, r7, lr}
    7c24:	4699      	mov	r9, r3
    7c26:	b08b      	sub	sp, #44	; 0x2c
    7c28:	0083      	lsls	r3, r0, #2
    7c2a:	1818      	adds	r0, r3, r0
    7c2c:	0016      	movs	r6, r2
    7c2e:	9201      	str	r2, [sp, #4]
    7c30:	4a44      	ldr	r2, [pc, #272]	; (7d44 <putTetromino+0x12c>)
    7c32:	0040      	lsls	r0, r0, #1
    7c34:	1813      	adds	r3, r2, r0
    7c36:	001c      	movs	r4, r3
    7c38:	3424      	adds	r4, #36	; 0x24
    7c3a:	7827      	ldrb	r7, [r4, #0]
    7c3c:	2f00      	cmp	r7, #0
    7c3e:	d072      	beq.n	7d26 <putTetromino+0x10e>
    7c40:	3325      	adds	r3, #37	; 0x25
    7c42:	781d      	ldrb	r5, [r3, #0]
    7c44:	2d00      	cmp	r5, #0
    7c46:	d06e      	beq.n	7d26 <putTetromino+0x10e>
    7c48:	464b      	mov	r3, r9
    7c4a:	3b01      	subs	r3, #1
    7c4c:	469c      	mov	ip, r3
    7c4e:	44ac      	add	ip, r5
    7c50:	9303      	str	r3, [sp, #12]
    7c52:	4663      	mov	r3, ip
    7c54:	9304      	str	r3, [sp, #16]
    7c56:	0033      	movs	r3, r6
    7c58:	3b01      	subs	r3, #1
    7c5a:	469c      	mov	ip, r3
    7c5c:	44ac      	add	ip, r5
    7c5e:	9305      	str	r3, [sp, #20]
    7c60:	4663      	mov	r3, ip
    7c62:	1810      	adds	r0, r2, r0
    7c64:	2201      	movs	r2, #1
    7c66:	301b      	adds	r0, #27
    7c68:	9002      	str	r0, [sp, #8]
    7c6a:	9306      	str	r3, [sp, #24]
    7c6c:	9801      	ldr	r0, [sp, #4]
    7c6e:	9b02      	ldr	r3, [sp, #8]
    7c70:	19c6      	adds	r6, r0, r7
    7c72:	4698      	mov	r8, r3
    7c74:	1ab6      	subs	r6, r6, r2
    7c76:	2300      	movs	r3, #0
    7c78:	46b3      	mov	fp, r6
    7c7a:	4490      	add	r8, r2
    7c7c:	9700      	str	r7, [sp, #0]
    7c7e:	2902      	cmp	r1, #2
    7c80:	d04d      	beq.n	7d1e <putTetromino+0x106>
    7c82:	2903      	cmp	r1, #3
    7c84:	d046      	beq.n	7d14 <putTetromino+0xfc>
    7c86:	2901      	cmp	r1, #1
    7c88:	d035      	beq.n	7cf6 <putTetromino+0xde>
    7c8a:	9805      	ldr	r0, [sp, #20]
    7c8c:	1884      	adds	r4, r0, r2
    7c8e:	4648      	mov	r0, r9
    7c90:	18c0      	adds	r0, r0, r3
    7c92:	2c09      	cmp	r4, #9
    7c94:	d826      	bhi.n	7ce4 <putTetromino+0xcc>
    7c96:	2813      	cmp	r0, #19
    7c98:	dc24      	bgt.n	7ce4 <putTetromino+0xcc>
    7c9a:	4647      	mov	r7, r8
    7c9c:	009e      	lsls	r6, r3, #2
    7c9e:	5dbe      	ldrb	r6, [r7, r6]
    7ca0:	9607      	str	r6, [sp, #28]
    7ca2:	2e00      	cmp	r6, #0
    7ca4:	d01e      	beq.n	7ce4 <putTetromino+0xcc>
    7ca6:	0086      	lsls	r6, r0, #2
    7ca8:	46b4      	mov	ip, r6
    7caa:	4682      	mov	sl, r0
    7cac:	9609      	str	r6, [sp, #36]	; 0x24
    7cae:	4e26      	ldr	r6, [pc, #152]	; (7d48 <putTetromino+0x130>)
    7cb0:	44e2      	add	sl, ip
    7cb2:	46b4      	mov	ip, r6
    7cb4:	44e2      	add	sl, ip
    7cb6:	4656      	mov	r6, sl
    7cb8:	1067      	asrs	r7, r4, #1
    7cba:	57f6      	ldrsb	r6, [r6, r7]
    7cbc:	9708      	str	r7, [sp, #32]
    7cbe:	46b2      	mov	sl, r6
    7cc0:	2601      	movs	r6, #1
    7cc2:	4226      	tst	r6, r4
    7cc4:	d136      	bne.n	7d34 <putTetromino+0x11c>
    7cc6:	240f      	movs	r4, #15
    7cc8:	4656      	mov	r6, sl
    7cca:	43a6      	bics	r6, r4
    7ccc:	0034      	movs	r4, r6
    7cce:	9e07      	ldr	r6, [sp, #28]
    7cd0:	4326      	orrs	r6, r4
    7cd2:	b2f6      	uxtb	r6, r6
    7cd4:	9c09      	ldr	r4, [sp, #36]	; 0x24
    7cd6:	46a4      	mov	ip, r4
    7cd8:	4c1b      	ldr	r4, [pc, #108]	; (7d48 <putTetromino+0x130>)
    7cda:	4460      	add	r0, ip
    7cdc:	46a4      	mov	ip, r4
    7cde:	9c08      	ldr	r4, [sp, #32]
    7ce0:	4460      	add	r0, ip
    7ce2:	5506      	strb	r6, [r0, r4]
    7ce4:	3301      	adds	r3, #1
    7ce6:	42ab      	cmp	r3, r5
    7ce8:	dbc9      	blt.n	7c7e <putTetromino+0x66>
    7cea:	9f00      	ldr	r7, [sp, #0]
    7cec:	1c53      	adds	r3, r2, #1
    7cee:	4297      	cmp	r7, r2
    7cf0:	dd19      	ble.n	7d26 <putTetromino+0x10e>
    7cf2:	001a      	movs	r2, r3
    7cf4:	e7ba      	b.n	7c6c <putTetromino+0x54>
    7cf6:	9801      	ldr	r0, [sp, #4]
    7cf8:	9e00      	ldr	r6, [sp, #0]
    7cfa:	181c      	adds	r4, r3, r0
    7cfc:	46b4      	mov	ip, r6
    7cfe:	4648      	mov	r0, r9
    7d00:	4460      	add	r0, ip
    7d02:	1a80      	subs	r0, r0, r2
    7d04:	2c09      	cmp	r4, #9
    7d06:	d8ed      	bhi.n	7ce4 <putTetromino+0xcc>
    7d08:	2800      	cmp	r0, #0
    7d0a:	dac4      	bge.n	7c96 <putTetromino+0x7e>
    7d0c:	3301      	adds	r3, #1
    7d0e:	42ab      	cmp	r3, r5
    7d10:	dbb5      	blt.n	7c7e <putTetromino+0x66>
    7d12:	e7ea      	b.n	7cea <putTetromino+0xd2>
    7d14:	9806      	ldr	r0, [sp, #24]
    7d16:	1ac4      	subs	r4, r0, r3
    7d18:	9803      	ldr	r0, [sp, #12]
    7d1a:	1880      	adds	r0, r0, r2
    7d1c:	e7b9      	b.n	7c92 <putTetromino+0x7a>
    7d1e:	9804      	ldr	r0, [sp, #16]
    7d20:	465c      	mov	r4, fp
    7d22:	1ac0      	subs	r0, r0, r3
    7d24:	e7ee      	b.n	7d04 <putTetromino+0xec>
    7d26:	b00b      	add	sp, #44	; 0x2c
    7d28:	bc3c      	pop	{r2, r3, r4, r5}
    7d2a:	4690      	mov	r8, r2
    7d2c:	4699      	mov	r9, r3
    7d2e:	46a2      	mov	sl, r4
    7d30:	46ab      	mov	fp, r5
    7d32:	bdf0      	pop	{r4, r5, r6, r7, pc}
    7d34:	9c07      	ldr	r4, [sp, #28]
    7d36:	4657      	mov	r7, sl
    7d38:	0126      	lsls	r6, r4, #4
    7d3a:	240f      	movs	r4, #15
    7d3c:	403c      	ands	r4, r7
    7d3e:	4326      	orrs	r6, r4
    7d40:	b2f6      	uxtb	r6, r6
    7d42:	e7c7      	b.n	7cd4 <putTetromino+0xbc>
    7d44:	0001d9bc 	.word	0x0001d9bc
    7d48:	20000708 	.word	0x20000708

00007d4c <drawMenu>:
    7d4c:	23f0      	movs	r3, #240	; 0xf0
    7d4e:	4ae0      	ldr	r2, [pc, #896]	; (80d0 <drawMenu+0x384>)
    7d50:	b5f0      	push	{r4, r5, r6, r7, lr}
    7d52:	5cd3      	ldrb	r3, [r2, r3]
    7d54:	32f0      	adds	r2, #240	; 0xf0
    7d56:	7851      	ldrb	r1, [r2, #1]
    7d58:	4657      	mov	r7, sl
    7d5a:	464e      	mov	r6, r9
    7d5c:	4645      	mov	r5, r8
    7d5e:	46de      	mov	lr, fp
    7d60:	0209      	lsls	r1, r1, #8
    7d62:	4319      	orrs	r1, r3
    7d64:	2378      	movs	r3, #120	; 0x78
    7d66:	b5e0      	push	{r5, r6, r7, lr}
    7d68:	4ada      	ldr	r2, [pc, #872]	; (80d4 <drawMenu+0x388>)
    7d6a:	b097      	sub	sp, #92	; 0x5c
    7d6c:	5cd3      	ldrb	r3, [r2, r3]
    7d6e:	4ad8      	ldr	r2, [pc, #864]	; (80d0 <drawMenu+0x384>)
    7d70:	3304      	adds	r3, #4
    7d72:	b2db      	uxtb	r3, r3
    7d74:	930f      	str	r3, [sp, #60]	; 0x3c
    7d76:	23f2      	movs	r3, #242	; 0xf2
    7d78:	5cd3      	ldrb	r3, [r2, r3]
    7d7a:	32f2      	adds	r2, #242	; 0xf2
    7d7c:	7852      	ldrb	r2, [r2, #1]
    7d7e:	0005      	movs	r5, r0
    7d80:	0212      	lsls	r2, r2, #8
    7d82:	431a      	orrs	r2, r3
    7d84:	2379      	movs	r3, #121	; 0x79
    7d86:	48d3      	ldr	r0, [pc, #844]	; (80d4 <drawMenu+0x388>)
    7d88:	4cd2      	ldr	r4, [pc, #840]	; (80d4 <drawMenu+0x388>)
    7d8a:	5cc3      	ldrb	r3, [r0, r3]
    7d8c:	48d0      	ldr	r0, [pc, #832]	; (80d0 <drawMenu+0x384>)
    7d8e:	3304      	adds	r3, #4
    7d90:	b2db      	uxtb	r3, r3
    7d92:	930b      	str	r3, [sp, #44]	; 0x2c
    7d94:	23f4      	movs	r3, #244	; 0xf4
    7d96:	5cc0      	ldrb	r0, [r0, r3]
    7d98:	4bcd      	ldr	r3, [pc, #820]	; (80d0 <drawMenu+0x384>)
    7d9a:	33f4      	adds	r3, #244	; 0xf4
    7d9c:	785b      	ldrb	r3, [r3, #1]
    7d9e:	021b      	lsls	r3, r3, #8
    7da0:	4303      	orrs	r3, r0
    7da2:	207a      	movs	r0, #122	; 0x7a
    7da4:	5c20      	ldrb	r0, [r4, r0]
    7da6:	4cca      	ldr	r4, [pc, #808]	; (80d0 <drawMenu+0x384>)
    7da8:	3004      	adds	r0, #4
    7daa:	b2c0      	uxtb	r0, r0
    7dac:	900a      	str	r0, [sp, #40]	; 0x28
    7dae:	20f6      	movs	r0, #246	; 0xf6
    7db0:	5c24      	ldrb	r4, [r4, r0]
    7db2:	48c7      	ldr	r0, [pc, #796]	; (80d0 <drawMenu+0x384>)
    7db4:	9312      	str	r3, [sp, #72]	; 0x48
    7db6:	30f6      	adds	r0, #246	; 0xf6
    7db8:	7840      	ldrb	r0, [r0, #1]
    7dba:	0200      	lsls	r0, r0, #8
    7dbc:	4320      	orrs	r0, r4
    7dbe:	4684      	mov	ip, r0
    7dc0:	207b      	movs	r0, #123	; 0x7b
    7dc2:	4cc4      	ldr	r4, [pc, #784]	; (80d4 <drawMenu+0x388>)
    7dc4:	5c20      	ldrb	r0, [r4, r0]
    7dc6:	4cc2      	ldr	r4, [pc, #776]	; (80d0 <drawMenu+0x384>)
    7dc8:	3004      	adds	r0, #4
    7dca:	b2c0      	uxtb	r0, r0
    7dcc:	9011      	str	r0, [sp, #68]	; 0x44
    7dce:	20f8      	movs	r0, #248	; 0xf8
    7dd0:	5c24      	ldrb	r4, [r4, r0]
    7dd2:	48bf      	ldr	r0, [pc, #764]	; (80d0 <drawMenu+0x384>)
    7dd4:	30f8      	adds	r0, #248	; 0xf8
    7dd6:	7840      	ldrb	r0, [r0, #1]
    7dd8:	4ebd      	ldr	r6, [pc, #756]	; (80d0 <drawMenu+0x384>)
    7dda:	0200      	lsls	r0, r0, #8
    7ddc:	4320      	orrs	r0, r4
    7dde:	9007      	str	r0, [sp, #28]
    7de0:	207c      	movs	r0, #124	; 0x7c
    7de2:	4cbc      	ldr	r4, [pc, #752]	; (80d4 <drawMenu+0x388>)
    7de4:	36fa      	adds	r6, #250	; 0xfa
    7de6:	5c20      	ldrb	r0, [r4, r0]
    7de8:	4fb9      	ldr	r7, [pc, #740]	; (80d0 <drawMenu+0x384>)
    7dea:	3004      	adds	r0, #4
    7dec:	b2c4      	uxtb	r4, r0
    7dee:	20fa      	movs	r0, #250	; 0xfa
    7df0:	9410      	str	r4, [sp, #64]	; 0x40
    7df2:	4cb7      	ldr	r4, [pc, #732]	; (80d0 <drawMenu+0x384>)
    7df4:	37fc      	adds	r7, #252	; 0xfc
    7df6:	5c24      	ldrb	r4, [r4, r0]
    7df8:	7870      	ldrb	r0, [r6, #1]
    7dfa:	0200      	lsls	r0, r0, #8
    7dfc:	0006      	movs	r6, r0
    7dfe:	207d      	movs	r0, #125	; 0x7d
    7e00:	4326      	orrs	r6, r4
    7e02:	4cb4      	ldr	r4, [pc, #720]	; (80d4 <drawMenu+0x388>)
    7e04:	9606      	str	r6, [sp, #24]
    7e06:	5c20      	ldrb	r0, [r4, r0]
    7e08:	4eb1      	ldr	r6, [pc, #708]	; (80d0 <drawMenu+0x384>)
    7e0a:	3004      	adds	r0, #4
    7e0c:	b2c4      	uxtb	r4, r0
    7e0e:	20fc      	movs	r0, #252	; 0xfc
    7e10:	940e      	str	r4, [sp, #56]	; 0x38
    7e12:	4caf      	ldr	r4, [pc, #700]	; (80d0 <drawMenu+0x384>)
    7e14:	36fe      	adds	r6, #254	; 0xfe
    7e16:	5c24      	ldrb	r4, [r4, r0]
    7e18:	7878      	ldrb	r0, [r7, #1]
    7e1a:	0200      	lsls	r0, r0, #8
    7e1c:	0007      	movs	r7, r0
    7e1e:	207e      	movs	r0, #126	; 0x7e
    7e20:	4327      	orrs	r7, r4
    7e22:	4cac      	ldr	r4, [pc, #688]	; (80d4 <drawMenu+0x388>)
    7e24:	003b      	movs	r3, r7
    7e26:	5c20      	ldrb	r0, [r4, r0]
    7e28:	9713      	str	r7, [sp, #76]	; 0x4c
    7e2a:	3004      	adds	r0, #4
    7e2c:	b2c4      	uxtb	r4, r0
    7e2e:	20fe      	movs	r0, #254	; 0xfe
    7e30:	940d      	str	r4, [sp, #52]	; 0x34
    7e32:	4ca7      	ldr	r4, [pc, #668]	; (80d0 <drawMenu+0x384>)
    7e34:	5c24      	ldrb	r4, [r4, r0]
    7e36:	7870      	ldrb	r0, [r6, #1]
    7e38:	4ea6      	ldr	r6, [pc, #664]	; (80d4 <drawMenu+0x388>)
    7e3a:	0200      	lsls	r0, r0, #8
    7e3c:	4304      	orrs	r4, r0
    7e3e:	207f      	movs	r0, #127	; 0x7f
    7e40:	5c30      	ldrb	r0, [r6, r0]
    7e42:	3004      	adds	r0, #4
    7e44:	b2c6      	uxtb	r6, r0
    7e46:	960c      	str	r6, [sp, #48]	; 0x30
    7e48:	2d00      	cmp	r5, #0
    7e4a:	d100      	bne.n	7e4e <drawMenu+0x102>
    7e4c:	e16c      	b.n	8128 <drawMenu+0x3dc>
    7e4e:	27a0      	movs	r7, #160	; 0xa0
    7e50:	427f      	negs	r7, r7
    7e52:	46ba      	mov	sl, r7
    7e54:	3f50      	subs	r7, #80	; 0x50
    7e56:	46b9      	mov	r9, r7
    7e58:	4f9f      	ldr	r7, [pc, #636]	; (80d8 <drawMenu+0x38c>)
    7e5a:	4da0      	ldr	r5, [pc, #640]	; (80dc <drawMenu+0x390>)
    7e5c:	46b8      	mov	r8, r7
    7e5e:	9503      	str	r5, [sp, #12]
    7e60:	4d9f      	ldr	r5, [pc, #636]	; (80e0 <drawMenu+0x394>)
    7e62:	2650      	movs	r6, #80	; 0x50
    7e64:	44a8      	add	r8, r5
    7e66:	4640      	mov	r0, r8
    7e68:	9013      	str	r0, [sp, #76]	; 0x4c
    7e6a:	489e      	ldr	r0, [pc, #632]	; (80e4 <drawMenu+0x398>)
    7e6c:	002f      	movs	r7, r5
    7e6e:	4680      	mov	r8, r0
    7e70:	44a8      	add	r8, r5
    7e72:	4640      	mov	r0, r8
    7e74:	9004      	str	r0, [sp, #16]
    7e76:	489c      	ldr	r0, [pc, #624]	; (80e8 <drawMenu+0x39c>)
    7e78:	3f91      	subs	r7, #145	; 0x91
    7e7a:	9002      	str	r0, [sp, #8]
    7e7c:	4660      	mov	r0, ip
    7e7e:	0400      	lsls	r0, r0, #16
    7e80:	9005      	str	r0, [sp, #20]
    7e82:	9807      	ldr	r0, [sp, #28]
    7e84:	46b3      	mov	fp, r6
    7e86:	0400      	lsls	r0, r0, #16
    7e88:	9009      	str	r0, [sp, #36]	; 0x24
    7e8a:	9806      	ldr	r0, [sp, #24]
    7e8c:	3fff      	subs	r7, #255	; 0xff
    7e8e:	0400      	lsls	r0, r0, #16
    7e90:	9008      	str	r0, [sp, #32]
    7e92:	0418      	lsls	r0, r3, #16
    7e94:	9007      	str	r0, [sp, #28]
    7e96:	0420      	lsls	r0, r4, #16
    7e98:	9b12      	ldr	r3, [sp, #72]	; 0x48
    7e9a:	9006      	str	r0, [sp, #24]
    7e9c:	0408      	lsls	r0, r1, #16
    7e9e:	4308      	orrs	r0, r1
    7ea0:	0411      	lsls	r1, r2, #16
    7ea2:	4311      	orrs	r1, r2
    7ea4:	041a      	lsls	r2, r3, #16
    7ea6:	431a      	orrs	r2, r3
    7ea8:	003b      	movs	r3, r7
    7eaa:	9014      	str	r0, [sp, #80]	; 0x50
    7eac:	9813      	ldr	r0, [sp, #76]	; 0x4c
    7eae:	44ab      	add	fp, r5
    7eb0:	002e      	movs	r6, r5
    7eb2:	465f      	mov	r7, fp
    7eb4:	4680      	mov	r8, r0
    7eb6:	469b      	mov	fp, r3
    7eb8:	3e50      	subs	r6, #80	; 0x50
    7eba:	44aa      	add	sl, r5
    7ebc:	44a9      	add	r9, r5
    7ebe:	9115      	str	r1, [sp, #84]	; 0x54
    7ec0:	9212      	str	r2, [sp, #72]	; 0x48
    7ec2:	4b8a      	ldr	r3, [pc, #552]	; (80ec <drawMenu+0x3a0>)
    7ec4:	9a14      	ldr	r2, [sp, #80]	; 0x50
    7ec6:	18ec      	adds	r4, r5, r3
    7ec8:	9b04      	ldr	r3, [sp, #16]
    7eca:	c404      	stmia	r4!, {r2}
    7ecc:	42a3      	cmp	r3, r4
    7ece:	d1fc      	bne.n	7eca <drawMenu+0x17e>
    7ed0:	9803      	ldr	r0, [sp, #12]
    7ed2:	2228      	movs	r2, #40	; 0x28
    7ed4:	3819      	subs	r0, #25
    7ed6:	9b02      	ldr	r3, [sp, #8]
    7ed8:	990f      	ldr	r1, [sp, #60]	; 0x3c
    7eda:	38ff      	subs	r0, #255	; 0xff
    7edc:	4798      	blx	r3
    7ede:	465b      	mov	r3, fp
    7ee0:	9a15      	ldr	r2, [sp, #84]	; 0x54
    7ee2:	c404      	stmia	r4!, {r2}
    7ee4:	42a3      	cmp	r3, r4
    7ee6:	d1fc      	bne.n	7ee2 <drawMenu+0x196>
    7ee8:	9803      	ldr	r0, [sp, #12]
    7eea:	2228      	movs	r2, #40	; 0x28
    7eec:	469b      	mov	fp, r3
    7eee:	990b      	ldr	r1, [sp, #44]	; 0x2c
    7ef0:	9b02      	ldr	r3, [sp, #8]
    7ef2:	38f0      	subs	r0, #240	; 0xf0
    7ef4:	4798      	blx	r3
    7ef6:	4643      	mov	r3, r8
    7ef8:	9a12      	ldr	r2, [sp, #72]	; 0x48
    7efa:	c404      	stmia	r4!, {r2}
    7efc:	42a3      	cmp	r3, r4
    7efe:	d1fc      	bne.n	7efa <drawMenu+0x1ae>
    7f00:	9803      	ldr	r0, [sp, #12]
    7f02:	2228      	movs	r2, #40	; 0x28
    7f04:	4698      	mov	r8, r3
    7f06:	990a      	ldr	r1, [sp, #40]	; 0x28
    7f08:	9b02      	ldr	r3, [sp, #8]
    7f0a:	38c8      	subs	r0, #200	; 0xc8
    7f0c:	4798      	blx	r3
    7f0e:	9a05      	ldr	r2, [sp, #20]
    7f10:	0c13      	lsrs	r3, r2, #16
    7f12:	4313      	orrs	r3, r2
    7f14:	464a      	mov	r2, r9
    7f16:	c408      	stmia	r4!, {r3}
    7f18:	42a2      	cmp	r2, r4
    7f1a:	d1fc      	bne.n	7f16 <drawMenu+0x1ca>
    7f1c:	9803      	ldr	r0, [sp, #12]
    7f1e:	9b02      	ldr	r3, [sp, #8]
    7f20:	4691      	mov	r9, r2
    7f22:	9911      	ldr	r1, [sp, #68]	; 0x44
    7f24:	2228      	movs	r2, #40	; 0x28
    7f26:	38a0      	subs	r0, #160	; 0xa0
    7f28:	4798      	blx	r3
    7f2a:	9a09      	ldr	r2, [sp, #36]	; 0x24
    7f2c:	0c13      	lsrs	r3, r2, #16
    7f2e:	4313      	orrs	r3, r2
    7f30:	4652      	mov	r2, sl
    7f32:	c408      	stmia	r4!, {r3}
    7f34:	42a2      	cmp	r2, r4
    7f36:	d1fc      	bne.n	7f32 <drawMenu+0x1e6>
    7f38:	9803      	ldr	r0, [sp, #12]
    7f3a:	9b02      	ldr	r3, [sp, #8]
    7f3c:	4692      	mov	sl, r2
    7f3e:	9910      	ldr	r1, [sp, #64]	; 0x40
    7f40:	2228      	movs	r2, #40	; 0x28
    7f42:	3878      	subs	r0, #120	; 0x78
    7f44:	4798      	blx	r3
    7f46:	9a08      	ldr	r2, [sp, #32]
    7f48:	0c13      	lsrs	r3, r2, #16
    7f4a:	4313      	orrs	r3, r2
    7f4c:	c408      	stmia	r4!, {r3}
    7f4e:	42b4      	cmp	r4, r6
    7f50:	d1fc      	bne.n	7f4c <drawMenu+0x200>
    7f52:	0034      	movs	r4, r6
    7f54:	9803      	ldr	r0, [sp, #12]
    7f56:	2228      	movs	r2, #40	; 0x28
    7f58:	9b02      	ldr	r3, [sp, #8]
    7f5a:	990e      	ldr	r1, [sp, #56]	; 0x38
    7f5c:	3850      	subs	r0, #80	; 0x50
    7f5e:	4798      	blx	r3
    7f60:	9a07      	ldr	r2, [sp, #28]
    7f62:	0c13      	lsrs	r3, r2, #16
    7f64:	4313      	orrs	r3, r2
    7f66:	c408      	stmia	r4!, {r3}
    7f68:	42a5      	cmp	r5, r4
    7f6a:	d1fc      	bne.n	7f66 <drawMenu+0x21a>
    7f6c:	9803      	ldr	r0, [sp, #12]
    7f6e:	2228      	movs	r2, #40	; 0x28
    7f70:	9b02      	ldr	r3, [sp, #8]
    7f72:	990d      	ldr	r1, [sp, #52]	; 0x34
    7f74:	3828      	subs	r0, #40	; 0x28
    7f76:	4798      	blx	r3
    7f78:	9a06      	ldr	r2, [sp, #24]
    7f7a:	0c13      	lsrs	r3, r2, #16
    7f7c:	4313      	orrs	r3, r2
    7f7e:	c408      	stmia	r4!, {r3}
    7f80:	42a7      	cmp	r7, r4
    7f82:	d1fc      	bne.n	7f7e <drawMenu+0x232>
    7f84:	2228      	movs	r2, #40	; 0x28
    7f86:	990c      	ldr	r1, [sp, #48]	; 0x30
    7f88:	9803      	ldr	r0, [sp, #12]
    7f8a:	9c02      	ldr	r4, [sp, #8]
    7f8c:	47a0      	blx	r4
    7f8e:	9b03      	ldr	r3, [sp, #12]
    7f90:	3341      	adds	r3, #65	; 0x41
    7f92:	33ff      	adds	r3, #255	; 0xff
    7f94:	9303      	str	r3, [sp, #12]
    7f96:	23a0      	movs	r3, #160	; 0xa0
    7f98:	009b      	lsls	r3, r3, #2
    7f9a:	469c      	mov	ip, r3
    7f9c:	9b04      	ldr	r3, [sp, #16]
    7f9e:	4465      	add	r5, ip
    7fa0:	4463      	add	r3, ip
    7fa2:	9304      	str	r3, [sp, #16]
    7fa4:	4b52      	ldr	r3, [pc, #328]	; (80f0 <drawMenu+0x3a4>)
    7fa6:	4467      	add	r7, ip
    7fa8:	4466      	add	r6, ip
    7faa:	44e2      	add	sl, ip
    7fac:	44e1      	add	r9, ip
    7fae:	44e0      	add	r8, ip
    7fb0:	44e3      	add	fp, ip
    7fb2:	42ab      	cmp	r3, r5
    7fb4:	d185      	bne.n	7ec2 <drawMenu+0x176>
    7fb6:	4b4f      	ldr	r3, [pc, #316]	; (80f4 <drawMenu+0x3a8>)
    7fb8:	4e4f      	ldr	r6, [pc, #316]	; (80f8 <drawMenu+0x3ac>)
    7fba:	9306      	str	r3, [sp, #24]
    7fbc:	4d4f      	ldr	r5, [pc, #316]	; (80fc <drawMenu+0x3b0>)
    7fbe:	9b06      	ldr	r3, [sp, #24]
    7fc0:	7972      	ldrb	r2, [r6, #5]
    7fc2:	4c4f      	ldr	r4, [pc, #316]	; (8100 <drawMenu+0x3b4>)
    7fc4:	0152      	lsls	r2, r2, #5
    7fc6:	3364      	adds	r3, #100	; 0x64
    7fc8:	189b      	adds	r3, r3, r2
    7fca:	2128      	movs	r1, #40	; 0x28
    7fcc:	4a4d      	ldr	r2, [pc, #308]	; (8104 <drawMenu+0x3b8>)
    7fce:	4f4e      	ldr	r7, [pc, #312]	; (8108 <drawMenu+0x3bc>)
    7fd0:	0020      	movs	r0, r4
    7fd2:	47b8      	blx	r7
    7fd4:	4b4d      	ldr	r3, [pc, #308]	; (810c <drawMenu+0x3c0>)
    7fd6:	0020      	movs	r0, r4
    7fd8:	4698      	mov	r8, r3
    7fda:	46b9      	mov	r9, r7
    7fdc:	4798      	blx	r3
    7fde:	2728      	movs	r7, #40	; 0x28
    7fe0:	7e33      	ldrb	r3, [r6, #24]
    7fe2:	1a3a      	subs	r2, r7, r0
    7fe4:	4259      	negs	r1, r3
    7fe6:	4159      	adcs	r1, r3
    7fe8:	9101      	str	r1, [sp, #4]
    7fea:	1e59      	subs	r1, r3, #1
    7fec:	418b      	sbcs	r3, r1
    7fee:	0852      	lsrs	r2, r2, #1
    7ff0:	b2d2      	uxtb	r2, r2
    7ff2:	9300      	str	r3, [sp, #0]
    7ff4:	0021      	movs	r1, r4
    7ff6:	230b      	movs	r3, #11
    7ff8:	2000      	movs	r0, #0
    7ffa:	47a8      	blx	r5
    7ffc:	79b3      	ldrb	r3, [r6, #6]
    7ffe:	4a44      	ldr	r2, [pc, #272]	; (8110 <drawMenu+0x3c4>)
    8000:	015b      	lsls	r3, r3, #5
    8002:	189b      	adds	r3, r3, r2
    8004:	2128      	movs	r1, #40	; 0x28
    8006:	4a43      	ldr	r2, [pc, #268]	; (8114 <drawMenu+0x3c8>)
    8008:	0020      	movs	r0, r4
    800a:	47c8      	blx	r9
    800c:	0020      	movs	r0, r4
    800e:	47c0      	blx	r8
    8010:	7e33      	ldrb	r3, [r6, #24]
    8012:	1a3a      	subs	r2, r7, r0
    8014:	3b01      	subs	r3, #1
    8016:	4259      	negs	r1, r3
    8018:	4159      	adcs	r1, r3
    801a:	9101      	str	r1, [sp, #4]
    801c:	1e59      	subs	r1, r3, #1
    801e:	418b      	sbcs	r3, r1
    8020:	0852      	lsrs	r2, r2, #1
    8022:	b2d2      	uxtb	r2, r2
    8024:	9300      	str	r3, [sp, #0]
    8026:	0021      	movs	r1, r4
    8028:	230d      	movs	r3, #13
    802a:	2000      	movs	r0, #0
    802c:	47a8      	blx	r5
    802e:	7ab3      	ldrb	r3, [r6, #10]
    8030:	4a39      	ldr	r2, [pc, #228]	; (8118 <drawMenu+0x3cc>)
    8032:	015b      	lsls	r3, r3, #5
    8034:	189b      	adds	r3, r3, r2
    8036:	2128      	movs	r1, #40	; 0x28
    8038:	4a38      	ldr	r2, [pc, #224]	; (811c <drawMenu+0x3d0>)
    803a:	0020      	movs	r0, r4
    803c:	47c8      	blx	r9
    803e:	0020      	movs	r0, r4
    8040:	47c0      	blx	r8
    8042:	7e33      	ldrb	r3, [r6, #24]
    8044:	1a3a      	subs	r2, r7, r0
    8046:	3b02      	subs	r3, #2
    8048:	4259      	negs	r1, r3
    804a:	4159      	adcs	r1, r3
    804c:	9101      	str	r1, [sp, #4]
    804e:	1e59      	subs	r1, r3, #1
    8050:	418b      	sbcs	r3, r1
    8052:	0852      	lsrs	r2, r2, #1
    8054:	b2d2      	uxtb	r2, r2
    8056:	9300      	str	r3, [sp, #0]
    8058:	0021      	movs	r1, r4
    805a:	230f      	movs	r3, #15
    805c:	2000      	movs	r0, #0
    805e:	47a8      	blx	r5
    8060:	4a2f      	ldr	r2, [pc, #188]	; (8120 <drawMenu+0x3d4>)
    8062:	2128      	movs	r1, #40	; 0x28
    8064:	0020      	movs	r0, r4
    8066:	47c8      	blx	r9
    8068:	0020      	movs	r0, r4
    806a:	47c0      	blx	r8
    806c:	7e33      	ldrb	r3, [r6, #24]
    806e:	1a3a      	subs	r2, r7, r0
    8070:	3b03      	subs	r3, #3
    8072:	4259      	negs	r1, r3
    8074:	4159      	adcs	r1, r3
    8076:	9101      	str	r1, [sp, #4]
    8078:	1e59      	subs	r1, r3, #1
    807a:	418b      	sbcs	r3, r1
    807c:	0852      	lsrs	r2, r2, #1
    807e:	b2d2      	uxtb	r2, r2
    8080:	9300      	str	r3, [sp, #0]
    8082:	0021      	movs	r1, r4
    8084:	2311      	movs	r3, #17
    8086:	2000      	movs	r0, #0
    8088:	47a8      	blx	r5
    808a:	4a26      	ldr	r2, [pc, #152]	; (8124 <drawMenu+0x3d8>)
    808c:	2128      	movs	r1, #40	; 0x28
    808e:	0020      	movs	r0, r4
    8090:	47c8      	blx	r9
    8092:	0020      	movs	r0, r4
    8094:	47c0      	blx	r8
    8096:	7e33      	ldrb	r3, [r6, #24]
    8098:	1a3a      	subs	r2, r7, r0
    809a:	3b04      	subs	r3, #4
    809c:	4259      	negs	r1, r3
    809e:	4159      	adcs	r1, r3
    80a0:	9101      	str	r1, [sp, #4]
    80a2:	1e59      	subs	r1, r3, #1
    80a4:	418b      	sbcs	r3, r1
    80a6:	0852      	lsrs	r2, r2, #1
    80a8:	9300      	str	r3, [sp, #0]
    80aa:	b2d2      	uxtb	r2, r2
    80ac:	2315      	movs	r3, #21
    80ae:	0021      	movs	r1, r4
    80b0:	2000      	movs	r0, #0
    80b2:	47a8      	blx	r5
    80b4:	7833      	ldrb	r3, [r6, #0]
    80b6:	2b09      	cmp	r3, #9
    80b8:	d100      	bne.n	80bc <drawMenu+0x370>
    80ba:	e1cc      	b.n	8456 <drawMenu+0x70a>
    80bc:	2b0c      	cmp	r3, #12
    80be:	d100      	bne.n	80c2 <drawMenu+0x376>
    80c0:	e19c      	b.n	83fc <drawMenu+0x6b0>
    80c2:	b017      	add	sp, #92	; 0x5c
    80c4:	bc3c      	pop	{r2, r3, r4, r5}
    80c6:	4690      	mov	r8, r2
    80c8:	4699      	mov	r9, r3
    80ca:	46a2      	mov	sl, r4
    80cc:	46ab      	mov	fp, r5
    80ce:	bdf0      	pop	{r4, r5, r6, r7, pc}
    80d0:	0001e1e0 	.word	0x0001e1e0
    80d4:	0001ddc0 	.word	0x0001ddc0
    80d8:	fffffec0 	.word	0xfffffec0
    80dc:	20006778 	.word	0x20006778
    80e0:	20002670 	.word	0x20002670
    80e4:	fffffe20 	.word	0xfffffe20
    80e8:	0000bd5d 	.word	0x0000bd5d
    80ec:	fffffdd0 	.word	0xfffffdd0
    80f0:	20004bf0 	.word	0x20004bf0
    80f4:	0001d9bc 	.word	0x0001d9bc
    80f8:	200006d4 	.word	0x200006d4
    80fc:	0000b765 	.word	0x0000b765
    8100:	2000065c 	.word	0x2000065c
    8104:	0001dca4 	.word	0x0001dca4
    8108:	0000b069 	.word	0x0000b069
    810c:	0000be05 	.word	0x0000be05
    8110:	0001da80 	.word	0x0001da80
    8114:	0001dcb0 	.word	0x0001dcb0
    8118:	0001db00 	.word	0x0001db00
    811c:	0001dcc8 	.word	0x0001dcc8
    8120:	0001dcdc 	.word	0x0001dcdc
    8124:	0001dcec 	.word	0x0001dcec
    8128:	2650      	movs	r6, #80	; 0x50
    812a:	46b0      	mov	r8, r6
    812c:	4de5      	ldr	r5, [pc, #916]	; (84c4 <drawMenu+0x778>)
    812e:	4be6      	ldr	r3, [pc, #920]	; (84c8 <drawMenu+0x77c>)
    8130:	44a8      	add	r8, r5
    8132:	4646      	mov	r6, r8
    8134:	9604      	str	r6, [sp, #16]
    8136:	2650      	movs	r6, #80	; 0x50
    8138:	9302      	str	r3, [sp, #8]
    813a:	4663      	mov	r3, ip
    813c:	4276      	negs	r6, r6
    813e:	46b3      	mov	fp, r6
    8140:	19b6      	adds	r6, r6, r6
    8142:	46b0      	mov	r8, r6
    8144:	3e50      	subs	r6, #80	; 0x50
    8146:	46b2      	mov	sl, r6
    8148:	4ee0      	ldr	r6, [pc, #896]	; (84cc <drawMenu+0x780>)
    814a:	041b      	lsls	r3, r3, #16
    814c:	46b1      	mov	r9, r6
    814e:	002e      	movs	r6, r5
    8150:	9305      	str	r3, [sp, #20]
    8152:	9b07      	ldr	r3, [sp, #28]
    8154:	3ee1      	subs	r6, #225	; 0xe1
    8156:	041b      	lsls	r3, r3, #16
    8158:	9309      	str	r3, [sp, #36]	; 0x24
    815a:	9b06      	ldr	r3, [sp, #24]
    815c:	3eff      	subs	r6, #255	; 0xff
    815e:	041b      	lsls	r3, r3, #16
    8160:	9308      	str	r3, [sp, #32]
    8162:	9b13      	ldr	r3, [sp, #76]	; 0x4c
    8164:	002f      	movs	r7, r5
    8166:	041b      	lsls	r3, r3, #16
    8168:	9307      	str	r3, [sp, #28]
    816a:	0423      	lsls	r3, r4, #16
    816c:	9306      	str	r3, [sp, #24]
    816e:	040c      	lsls	r4, r1, #16
    8170:	9b12      	ldr	r3, [sp, #72]	; 0x48
    8172:	430c      	orrs	r4, r1
    8174:	0411      	lsls	r1, r2, #16
    8176:	4311      	orrs	r1, r2
    8178:	041a      	lsls	r2, r3, #16
    817a:	431a      	orrs	r2, r3
    817c:	0033      	movs	r3, r6
    817e:	44a8      	add	r8, r5
    8180:	4646      	mov	r6, r8
    8182:	4698      	mov	r8, r3
    8184:	48d2      	ldr	r0, [pc, #840]	; (84d0 <drawMenu+0x784>)
    8186:	3f41      	subs	r7, #65	; 0x41
    8188:	9003      	str	r0, [sp, #12]
    818a:	48d2      	ldr	r0, [pc, #840]	; (84d4 <drawMenu+0x788>)
    818c:	44ab      	add	fp, r5
    818e:	1828      	adds	r0, r5, r0
    8190:	44aa      	add	sl, r5
    8192:	3fff      	subs	r7, #255	; 0xff
    8194:	44a9      	add	r9, r5
    8196:	9413      	str	r4, [sp, #76]	; 0x4c
    8198:	9114      	str	r1, [sp, #80]	; 0x50
    819a:	9212      	str	r2, [sp, #72]	; 0x48
    819c:	4643      	mov	r3, r8
    819e:	9a13      	ldr	r2, [sp, #76]	; 0x4c
    81a0:	c004      	stmia	r0!, {r2}
    81a2:	4298      	cmp	r0, r3
    81a4:	d1fc      	bne.n	81a0 <drawMenu+0x454>
    81a6:	4698      	mov	r8, r3
    81a8:	9803      	ldr	r0, [sp, #12]
    81aa:	2228      	movs	r2, #40	; 0x28
    81ac:	3819      	subs	r0, #25
    81ae:	9b02      	ldr	r3, [sp, #8]
    81b0:	990f      	ldr	r1, [sp, #60]	; 0x3c
    81b2:	38ff      	subs	r0, #255	; 0xff
    81b4:	4798      	blx	r3
    81b6:	4644      	mov	r4, r8
    81b8:	464b      	mov	r3, r9
    81ba:	9a14      	ldr	r2, [sp, #80]	; 0x50
    81bc:	c404      	stmia	r4!, {r2}
    81be:	42a3      	cmp	r3, r4
    81c0:	d1fc      	bne.n	81bc <drawMenu+0x470>
    81c2:	9803      	ldr	r0, [sp, #12]
    81c4:	4699      	mov	r9, r3
    81c6:	2228      	movs	r2, #40	; 0x28
    81c8:	9b02      	ldr	r3, [sp, #8]
    81ca:	990b      	ldr	r1, [sp, #44]	; 0x2c
    81cc:	38f0      	subs	r0, #240	; 0xf0
    81ce:	4798      	blx	r3
    81d0:	9b12      	ldr	r3, [sp, #72]	; 0x48
    81d2:	c408      	stmia	r4!, {r3}
    81d4:	42bc      	cmp	r4, r7
    81d6:	d1fc      	bne.n	81d2 <drawMenu+0x486>
    81d8:	9803      	ldr	r0, [sp, #12]
    81da:	2228      	movs	r2, #40	; 0x28
    81dc:	9b02      	ldr	r3, [sp, #8]
    81de:	990a      	ldr	r1, [sp, #40]	; 0x28
    81e0:	38c8      	subs	r0, #200	; 0xc8
    81e2:	4798      	blx	r3
    81e4:	9a05      	ldr	r2, [sp, #20]
    81e6:	003c      	movs	r4, r7
    81e8:	0c13      	lsrs	r3, r2, #16
    81ea:	4313      	orrs	r3, r2
    81ec:	4652      	mov	r2, sl
    81ee:	c408      	stmia	r4!, {r3}
    81f0:	42a2      	cmp	r2, r4
    81f2:	d1fc      	bne.n	81ee <drawMenu+0x4a2>
    81f4:	9803      	ldr	r0, [sp, #12]
    81f6:	9b02      	ldr	r3, [sp, #8]
    81f8:	4692      	mov	sl, r2
    81fa:	9911      	ldr	r1, [sp, #68]	; 0x44
    81fc:	2228      	movs	r2, #40	; 0x28
    81fe:	38a0      	subs	r0, #160	; 0xa0
    8200:	4798      	blx	r3
    8202:	9a09      	ldr	r2, [sp, #36]	; 0x24
    8204:	0c13      	lsrs	r3, r2, #16
    8206:	4313      	orrs	r3, r2
    8208:	c408      	stmia	r4!, {r3}
    820a:	42b4      	cmp	r4, r6
    820c:	d1fc      	bne.n	8208 <drawMenu+0x4bc>
    820e:	9803      	ldr	r0, [sp, #12]
    8210:	2228      	movs	r2, #40	; 0x28
    8212:	9910      	ldr	r1, [sp, #64]	; 0x40
    8214:	9b02      	ldr	r3, [sp, #8]
    8216:	3878      	subs	r0, #120	; 0x78
    8218:	4798      	blx	r3
    821a:	9b08      	ldr	r3, [sp, #32]
    821c:	4659      	mov	r1, fp
    821e:	0c1a      	lsrs	r2, r3, #16
    8220:	431a      	orrs	r2, r3
    8222:	0033      	movs	r3, r6
    8224:	c304      	stmia	r3!, {r2}
    8226:	428b      	cmp	r3, r1
    8228:	d1fc      	bne.n	8224 <drawMenu+0x4d8>
    822a:	468b      	mov	fp, r1
    822c:	9803      	ldr	r0, [sp, #12]
    822e:	2228      	movs	r2, #40	; 0x28
    8230:	9b02      	ldr	r3, [sp, #8]
    8232:	990e      	ldr	r1, [sp, #56]	; 0x38
    8234:	3850      	subs	r0, #80	; 0x50
    8236:	4798      	blx	r3
    8238:	9b07      	ldr	r3, [sp, #28]
    823a:	0c1a      	lsrs	r2, r3, #16
    823c:	431a      	orrs	r2, r3
    823e:	465b      	mov	r3, fp
    8240:	c304      	stmia	r3!, {r2}
    8242:	42ab      	cmp	r3, r5
    8244:	d1fc      	bne.n	8240 <drawMenu+0x4f4>
    8246:	9803      	ldr	r0, [sp, #12]
    8248:	2228      	movs	r2, #40	; 0x28
    824a:	990d      	ldr	r1, [sp, #52]	; 0x34
    824c:	9b02      	ldr	r3, [sp, #8]
    824e:	3828      	subs	r0, #40	; 0x28
    8250:	4798      	blx	r3
    8252:	9b06      	ldr	r3, [sp, #24]
    8254:	9904      	ldr	r1, [sp, #16]
    8256:	0c1a      	lsrs	r2, r3, #16
    8258:	431a      	orrs	r2, r3
    825a:	002b      	movs	r3, r5
    825c:	c304      	stmia	r3!, {r2}
    825e:	4299      	cmp	r1, r3
    8260:	d1fc      	bne.n	825c <drawMenu+0x510>
    8262:	2228      	movs	r2, #40	; 0x28
    8264:	990c      	ldr	r1, [sp, #48]	; 0x30
    8266:	9803      	ldr	r0, [sp, #12]
    8268:	9c02      	ldr	r4, [sp, #8]
    826a:	47a0      	blx	r4
    826c:	9b03      	ldr	r3, [sp, #12]
    826e:	3341      	adds	r3, #65	; 0x41
    8270:	33ff      	adds	r3, #255	; 0xff
    8272:	9303      	str	r3, [sp, #12]
    8274:	23a0      	movs	r3, #160	; 0xa0
    8276:	009b      	lsls	r3, r3, #2
    8278:	469c      	mov	ip, r3
    827a:	9b04      	ldr	r3, [sp, #16]
    827c:	4465      	add	r5, ip
    827e:	4463      	add	r3, ip
    8280:	9304      	str	r3, [sp, #16]
    8282:	4b95      	ldr	r3, [pc, #596]	; (84d8 <drawMenu+0x78c>)
    8284:	44e3      	add	fp, ip
    8286:	4466      	add	r6, ip
    8288:	44e2      	add	sl, ip
    828a:	4467      	add	r7, ip
    828c:	44e1      	add	r9, ip
    828e:	44e0      	add	r8, ip
    8290:	42ab      	cmp	r3, r5
    8292:	d002      	beq.n	829a <drawMenu+0x54e>
    8294:	4b8f      	ldr	r3, [pc, #572]	; (84d4 <drawMenu+0x788>)
    8296:	18e8      	adds	r0, r5, r3
    8298:	e780      	b.n	819c <drawMenu+0x450>
    829a:	4b90      	ldr	r3, [pc, #576]	; (84dc <drawMenu+0x790>)
    829c:	9305      	str	r3, [sp, #20]
    829e:	2319      	movs	r3, #25
    82a0:	4698      	mov	r8, r3
    82a2:	4b8f      	ldr	r3, [pc, #572]	; (84e0 <drawMenu+0x794>)
    82a4:	9306      	str	r3, [sp, #24]
    82a6:	4b8f      	ldr	r3, [pc, #572]	; (84e4 <drawMenu+0x798>)
    82a8:	3348      	adds	r3, #72	; 0x48
    82aa:	9307      	str	r3, [sp, #28]
    82ac:	23f0      	movs	r3, #240	; 0xf0
    82ae:	4699      	mov	r9, r3
    82b0:	4642      	mov	r2, r8
    82b2:	9b06      	ldr	r3, [sp, #24]
    82b4:	2407      	movs	r4, #7
    82b6:	5c9b      	ldrb	r3, [r3, r2]
    82b8:	9402      	str	r4, [sp, #8]
    82ba:	469a      	mov	sl, r3
    82bc:	4b8a      	ldr	r3, [pc, #552]	; (84e8 <drawMenu+0x79c>)
    82be:	1a99      	subs	r1, r3, r2
    82c0:	2250      	movs	r2, #80	; 0x50
    82c2:	9b05      	ldr	r3, [sp, #20]
    82c4:	4693      	mov	fp, r2
    82c6:	0018      	movs	r0, r3
    82c8:	4458      	add	r0, fp
    82ca:	4684      	mov	ip, r0
    82cc:	4640      	mov	r0, r8
    82ce:	9a07      	ldr	r2, [sp, #28]
    82d0:	001e      	movs	r6, r3
    82d2:	1a17      	subs	r7, r2, r0
    82d4:	0018      	movs	r0, r3
    82d6:	4643      	mov	r3, r8
    82d8:	109b      	asrs	r3, r3, #2
    82da:	011a      	lsls	r2, r3, #4
    82dc:	00db      	lsls	r3, r3, #3
    82de:	9303      	str	r3, [sp, #12]
    82e0:	003b      	movs	r3, r7
    82e2:	36a0      	adds	r6, #160	; 0xa0
    82e4:	4667      	mov	r7, ip
    82e6:	9204      	str	r2, [sp, #16]
    82e8:	469c      	mov	ip, r3
    82ea:	e057      	b.n	839c <drawMenu+0x650>
    82ec:	4643      	mov	r3, r8
    82ee:	2b05      	cmp	r3, #5
    82f0:	d800      	bhi.n	82f4 <drawMenu+0x5a8>
    82f2:	e122      	b.n	853a <drawMenu+0x7ee>
    82f4:	9b03      	ldr	r3, [sp, #12]
    82f6:	9a04      	ldr	r2, [sp, #16]
    82f8:	4d7c      	ldr	r5, [pc, #496]	; (84ec <drawMenu+0x7a0>)
    82fa:	4664      	mov	r4, ip
    82fc:	46ab      	mov	fp, r5
    82fe:	4d7c      	ldr	r5, [pc, #496]	; (84f0 <drawMenu+0x7a4>)
    8300:	445a      	add	r2, fp
    8302:	46ab      	mov	fp, r5
    8304:	8815      	ldrh	r5, [r2, #0]
    8306:	445b      	add	r3, fp
    8308:	8005      	strh	r5, [r0, #0]
    830a:	781d      	ldrb	r5, [r3, #0]
    830c:	3504      	adds	r5, #4
    830e:	700d      	strb	r5, [r1, #0]
    8310:	8855      	ldrh	r5, [r2, #2]
    8312:	803d      	strh	r5, [r7, #0]
    8314:	785d      	ldrb	r5, [r3, #1]
    8316:	3504      	adds	r5, #4
    8318:	7025      	strb	r5, [r4, #0]
    831a:	2450      	movs	r4, #80	; 0x50
    831c:	8895      	ldrh	r5, [r2, #4]
    831e:	8035      	strh	r5, [r6, #0]
    8320:	789d      	ldrb	r5, [r3, #2]
    8322:	3504      	adds	r5, #4
    8324:	550d      	strb	r5, [r1, r4]
    8326:	464c      	mov	r4, r9
    8328:	88d5      	ldrh	r5, [r2, #6]
    832a:	5305      	strh	r5, [r0, r4]
    832c:	2478      	movs	r4, #120	; 0x78
    832e:	78dd      	ldrb	r5, [r3, #3]
    8330:	3504      	adds	r5, #4
    8332:	550d      	strb	r5, [r1, r4]
    8334:	25a0      	movs	r5, #160	; 0xa0
    8336:	8914      	ldrh	r4, [r2, #8]
    8338:	006d      	lsls	r5, r5, #1
    833a:	5344      	strh	r4, [r0, r5]
    833c:	24a0      	movs	r4, #160	; 0xa0
    833e:	791d      	ldrb	r5, [r3, #4]
    8340:	3504      	adds	r5, #4
    8342:	550d      	strb	r5, [r1, r4]
    8344:	25c8      	movs	r5, #200	; 0xc8
    8346:	8954      	ldrh	r4, [r2, #10]
    8348:	006d      	lsls	r5, r5, #1
    834a:	5344      	strh	r4, [r0, r5]
    834c:	24c8      	movs	r4, #200	; 0xc8
    834e:	795d      	ldrb	r5, [r3, #5]
    8350:	3504      	adds	r5, #4
    8352:	550d      	strb	r5, [r1, r4]
    8354:	25f0      	movs	r5, #240	; 0xf0
    8356:	8994      	ldrh	r4, [r2, #12]
    8358:	006d      	lsls	r5, r5, #1
    835a:	5344      	strh	r4, [r0, r5]
    835c:	464c      	mov	r4, r9
    835e:	799d      	ldrb	r5, [r3, #6]
    8360:	3504      	adds	r5, #4
    8362:	550d      	strb	r5, [r1, r4]
    8364:	89d5      	ldrh	r5, [r2, #14]
    8366:	228c      	movs	r2, #140	; 0x8c
    8368:	0092      	lsls	r2, r2, #2
    836a:	5285      	strh	r5, [r0, r2]
    836c:	79db      	ldrb	r3, [r3, #7]
    836e:	3a19      	subs	r2, #25
    8370:	3304      	adds	r3, #4
    8372:	3aff      	subs	r2, #255	; 0xff
    8374:	548b      	strb	r3, [r1, r2]
    8376:	23a0      	movs	r3, #160	; 0xa0
    8378:	009b      	lsls	r3, r3, #2
    837a:	469b      	mov	fp, r3
    837c:	3b41      	subs	r3, #65	; 0x41
    837e:	3bff      	subs	r3, #255	; 0xff
    8380:	4458      	add	r0, fp
    8382:	445f      	add	r7, fp
    8384:	469b      	mov	fp, r3
    8386:	3341      	adds	r3, #65	; 0x41
    8388:	33ff      	adds	r3, #255	; 0xff
    838a:	44dc      	add	ip, fp
    838c:	469b      	mov	fp, r3
    838e:	9b02      	ldr	r3, [sp, #8]
    8390:	3141      	adds	r1, #65	; 0x41
    8392:	31ff      	adds	r1, #255	; 0xff
    8394:	445e      	add	r6, fp
    8396:	3b01      	subs	r3, #1
    8398:	9302      	str	r3, [sp, #8]
    839a:	d308      	bcc.n	83ae <drawMenu+0x662>
    839c:	2301      	movs	r3, #1
    839e:	9a02      	ldr	r2, [sp, #8]
    83a0:	4093      	lsls	r3, r2
    83a2:	4652      	mov	r2, sl
    83a4:	421a      	tst	r2, r3
    83a6:	d1a1      	bne.n	82ec <drawMenu+0x5a0>
    83a8:	2378      	movs	r3, #120	; 0x78
    83aa:	22f0      	movs	r2, #240	; 0xf0
    83ac:	e7a4      	b.n	82f8 <drawMenu+0x5ac>
    83ae:	2301      	movs	r3, #1
    83b0:	425b      	negs	r3, r3
    83b2:	469c      	mov	ip, r3
    83b4:	9b05      	ldr	r3, [sp, #20]
    83b6:	44e0      	add	r8, ip
    83b8:	3302      	adds	r3, #2
    83ba:	9305      	str	r3, [sp, #20]
    83bc:	4643      	mov	r3, r8
    83be:	2b00      	cmp	r3, #0
    83c0:	d000      	beq.n	83c4 <drawMenu+0x678>
    83c2:	e775      	b.n	82b0 <drawMenu+0x564>
    83c4:	4e4b      	ldr	r6, [pc, #300]	; (84f4 <drawMenu+0x7a8>)
    83c6:	7bb4      	ldrb	r4, [r6, #14]
    83c8:	2c01      	cmp	r4, #1
    83ca:	d100      	bne.n	83ce <drawMenu+0x682>
    83cc:	e0a4      	b.n	8518 <drawMenu+0x7cc>
    83ce:	2c00      	cmp	r4, #0
    83d0:	d06e      	beq.n	84b0 <drawMenu+0x764>
    83d2:	2cff      	cmp	r4, #255	; 0xff
    83d4:	d000      	beq.n	83d8 <drawMenu+0x68c>
    83d6:	e5f1      	b.n	7fbc <drawMenu+0x270>
    83d8:	2401      	movs	r4, #1
    83da:	9301      	str	r3, [sp, #4]
    83dc:	9400      	str	r4, [sp, #0]
    83de:	2308      	movs	r3, #8
    83e0:	220f      	movs	r2, #15
    83e2:	4945      	ldr	r1, [pc, #276]	; (84f8 <drawMenu+0x7ac>)
    83e4:	2000      	movs	r0, #0
    83e6:	4d45      	ldr	r5, [pc, #276]	; (84fc <drawMenu+0x7b0>)
    83e8:	47a8      	blx	r5
    83ea:	4643      	mov	r3, r8
    83ec:	9400      	str	r4, [sp, #0]
    83ee:	9301      	str	r3, [sp, #4]
    83f0:	2207      	movs	r2, #7
    83f2:	2309      	movs	r3, #9
    83f4:	4942      	ldr	r1, [pc, #264]	; (8500 <drawMenu+0x7b4>)
    83f6:	2000      	movs	r0, #0
    83f8:	47a8      	blx	r5
    83fa:	e5e0      	b.n	7fbe <drawMenu+0x272>
    83fc:	4a41      	ldr	r2, [pc, #260]	; (8504 <drawMenu+0x7b8>)
    83fe:	2128      	movs	r1, #40	; 0x28
    8400:	0020      	movs	r0, r4
    8402:	47c8      	blx	r9
    8404:	0020      	movs	r0, r4
    8406:	47c0      	blx	r8
    8408:	2228      	movs	r2, #40	; 0x28
    840a:	2300      	movs	r3, #0
    840c:	1a12      	subs	r2, r2, r0
    840e:	9301      	str	r3, [sp, #4]
    8410:	0852      	lsrs	r2, r2, #1
    8412:	3301      	adds	r3, #1
    8414:	0021      	movs	r1, r4
    8416:	9300      	str	r3, [sp, #0]
    8418:	b2d2      	uxtb	r2, r2
    841a:	3314      	adds	r3, #20
    841c:	2000      	movs	r0, #0
    841e:	47a8      	blx	r5
    8420:	7e33      	ldrb	r3, [r6, #24]
    8422:	2000      	movs	r0, #0
    8424:	3b07      	subs	r3, #7
    8426:	425a      	negs	r2, r3
    8428:	415a      	adcs	r2, r3
    842a:	9201      	str	r2, [sp, #4]
    842c:	1e5a      	subs	r2, r3, #1
    842e:	4193      	sbcs	r3, r2
    8430:	4935      	ldr	r1, [pc, #212]	; (8508 <drawMenu+0x7bc>)
    8432:	9300      	str	r3, [sp, #0]
    8434:	220e      	movs	r2, #14
    8436:	2317      	movs	r3, #23
    8438:	47a8      	blx	r5
    843a:	7e33      	ldrb	r3, [r6, #24]
    843c:	2000      	movs	r0, #0
    843e:	3b08      	subs	r3, #8
    8440:	425a      	negs	r2, r3
    8442:	415a      	adcs	r2, r3
    8444:	9201      	str	r2, [sp, #4]
    8446:	1e5a      	subs	r2, r3, #1
    8448:	4193      	sbcs	r3, r2
    844a:	4930      	ldr	r1, [pc, #192]	; (850c <drawMenu+0x7c0>)
    844c:	9300      	str	r3, [sp, #0]
    844e:	2217      	movs	r2, #23
    8450:	2317      	movs	r3, #23
    8452:	47a8      	blx	r5
    8454:	e635      	b.n	80c2 <drawMenu+0x376>
    8456:	4a2e      	ldr	r2, [pc, #184]	; (8510 <drawMenu+0x7c4>)
    8458:	2128      	movs	r1, #40	; 0x28
    845a:	0020      	movs	r0, r4
    845c:	47c8      	blx	r9
    845e:	0020      	movs	r0, r4
    8460:	47c0      	blx	r8
    8462:	2300      	movs	r3, #0
    8464:	1a3a      	subs	r2, r7, r0
    8466:	9301      	str	r3, [sp, #4]
    8468:	0852      	lsrs	r2, r2, #1
    846a:	3301      	adds	r3, #1
    846c:	0021      	movs	r1, r4
    846e:	b2d2      	uxtb	r2, r2
    8470:	9300      	str	r3, [sp, #0]
    8472:	2000      	movs	r0, #0
    8474:	3310      	adds	r3, #16
    8476:	47a8      	blx	r5
    8478:	7e33      	ldrb	r3, [r6, #24]
    847a:	2000      	movs	r0, #0
    847c:	3b05      	subs	r3, #5
    847e:	425a      	negs	r2, r3
    8480:	415a      	adcs	r2, r3
    8482:	9201      	str	r2, [sp, #4]
    8484:	1e5a      	subs	r2, r3, #1
    8486:	4193      	sbcs	r3, r2
    8488:	491f      	ldr	r1, [pc, #124]	; (8508 <drawMenu+0x7bc>)
    848a:	9300      	str	r3, [sp, #0]
    848c:	220e      	movs	r2, #14
    848e:	2313      	movs	r3, #19
    8490:	47a8      	blx	r5
    8492:	7e33      	ldrb	r3, [r6, #24]
    8494:	2000      	movs	r0, #0
    8496:	3b06      	subs	r3, #6
    8498:	425a      	negs	r2, r3
    849a:	415a      	adcs	r2, r3
    849c:	9201      	str	r2, [sp, #4]
    849e:	1e5a      	subs	r2, r3, #1
    84a0:	4193      	sbcs	r3, r2
    84a2:	491a      	ldr	r1, [pc, #104]	; (850c <drawMenu+0x7c0>)
    84a4:	9300      	str	r3, [sp, #0]
    84a6:	2217      	movs	r2, #23
    84a8:	2313      	movs	r3, #19
    84aa:	47a8      	blx	r5
    84ac:	7833      	ldrb	r3, [r6, #0]
    84ae:	e605      	b.n	80bc <drawMenu+0x370>
    84b0:	9301      	str	r3, [sp, #4]
    84b2:	2301      	movs	r3, #1
    84b4:	220c      	movs	r2, #12
    84b6:	9300      	str	r3, [sp, #0]
    84b8:	4916      	ldr	r1, [pc, #88]	; (8514 <drawMenu+0x7c8>)
    84ba:	3307      	adds	r3, #7
    84bc:	2000      	movs	r0, #0
    84be:	4d0f      	ldr	r5, [pc, #60]	; (84fc <drawMenu+0x7b0>)
    84c0:	47a8      	blx	r5
    84c2:	e57c      	b.n	7fbe <drawMenu+0x272>
    84c4:	20000d70 	.word	0x20000d70
    84c8:	0000bd5d 	.word	0x0000bd5d
    84cc:	fffffe70 	.word	0xfffffe70
    84d0:	20005af8 	.word	0x20005af8
    84d4:	fffffdd0 	.word	0xfffffdd0
    84d8:	20004bf0 	.word	0x20004bf0
    84dc:	20000b4e 	.word	0x20000b4e
    84e0:	0001d9bc 	.word	0x0001d9bc
    84e4:	200059e0 	.word	0x200059e0
    84e8:	20005a00 	.word	0x20005a00
    84ec:	0001e1e0 	.word	0x0001e1e0
    84f0:	0001ddc0 	.word	0x0001ddc0
    84f4:	200006d4 	.word	0x200006d4
    84f8:	0001dc7c 	.word	0x0001dc7c
    84fc:	0000b765 	.word	0x0000b765
    8500:	0001dc88 	.word	0x0001dc88
    8504:	0001dd30 	.word	0x0001dd30
    8508:	0001dd24 	.word	0x0001dd24
    850c:	0001dd28 	.word	0x0001dd28
    8510:	0001dd0c 	.word	0x0001dd0c
    8514:	0001dc34 	.word	0x0001dc34
    8518:	9301      	str	r3, [sp, #4]
    851a:	9400      	str	r4, [sp, #0]
    851c:	2308      	movs	r3, #8
    851e:	220e      	movs	r2, #14
    8520:	4907      	ldr	r1, [pc, #28]	; (8540 <drawMenu+0x7f4>)
    8522:	2000      	movs	r0, #0
    8524:	4d07      	ldr	r5, [pc, #28]	; (8544 <drawMenu+0x7f8>)
    8526:	47a8      	blx	r5
    8528:	4643      	mov	r3, r8
    852a:	9400      	str	r4, [sp, #0]
    852c:	9301      	str	r3, [sp, #4]
    852e:	2204      	movs	r2, #4
    8530:	2309      	movs	r3, #9
    8532:	4905      	ldr	r1, [pc, #20]	; (8548 <drawMenu+0x7fc>)
    8534:	2000      	movs	r0, #0
    8536:	47a8      	blx	r5
    8538:	e541      	b.n	7fbe <drawMenu+0x272>
    853a:	2300      	movs	r3, #0
    853c:	001a      	movs	r2, r3
    853e:	e6db      	b.n	82f8 <drawMenu+0x5ac>
    8540:	0001dc48 	.word	0x0001dc48
    8544:	0000b765 	.word	0x0000b765
    8548:	0001dc58 	.word	0x0001dc58

0000854c <tetrisInit>:
    854c:	b570      	push	{r4, r5, r6, lr}
    854e:	2500      	movs	r5, #0
    8550:	4b1a      	ldr	r3, [pc, #104]	; (85bc <tetrisInit+0x70>)
    8552:	4a1b      	ldr	r2, [pc, #108]	; (85c0 <tetrisInit+0x74>)
    8554:	601d      	str	r5, [r3, #0]
    8556:	605a      	str	r2, [r3, #4]
    8558:	4a1a      	ldr	r2, [pc, #104]	; (85c4 <tetrisInit+0x78>)
    855a:	21d8      	movs	r1, #216	; 0xd8
    855c:	611a      	str	r2, [r3, #16]
    855e:	4a1a      	ldr	r2, [pc, #104]	; (85c8 <tetrisInit+0x7c>)
    8560:	481a      	ldr	r0, [pc, #104]	; (85cc <tetrisInit+0x80>)
    8562:	615a      	str	r2, [r3, #20]
    8564:	4a1a      	ldr	r2, [pc, #104]	; (85d0 <tetrisInit+0x84>)
    8566:	609a      	str	r2, [r3, #8]
    8568:	4a1a      	ldr	r2, [pc, #104]	; (85d4 <tetrisInit+0x88>)
    856a:	60da      	str	r2, [r3, #12]
    856c:	4a1a      	ldr	r2, [pc, #104]	; (85d8 <tetrisInit+0x8c>)
    856e:	619a      	str	r2, [r3, #24]
    8570:	4a1a      	ldr	r2, [pc, #104]	; (85dc <tetrisInit+0x90>)
    8572:	61da      	str	r2, [r3, #28]
    8574:	4a1a      	ldr	r2, [pc, #104]	; (85e0 <tetrisInit+0x94>)
    8576:	621a      	str	r2, [r3, #32]
    8578:	4a1a      	ldr	r2, [pc, #104]	; (85e4 <tetrisInit+0x98>)
    857a:	625a      	str	r2, [r3, #36]	; 0x24
    857c:	4a1a      	ldr	r2, [pc, #104]	; (85e8 <tetrisInit+0x9c>)
    857e:	629a      	str	r2, [r3, #40]	; 0x28
    8580:	4a1a      	ldr	r2, [pc, #104]	; (85ec <tetrisInit+0xa0>)
    8582:	62da      	str	r2, [r3, #44]	; 0x2c
    8584:	4a1a      	ldr	r2, [pc, #104]	; (85f0 <tetrisInit+0xa4>)
    8586:	631a      	str	r2, [r3, #48]	; 0x30
    8588:	4a1a      	ldr	r2, [pc, #104]	; (85f4 <tetrisInit+0xa8>)
    858a:	635a      	str	r2, [r3, #52]	; 0x34
    858c:	4a1a      	ldr	r2, [pc, #104]	; (85f8 <tetrisInit+0xac>)
    858e:	639a      	str	r2, [r3, #56]	; 0x38
    8590:	4a1a      	ldr	r2, [pc, #104]	; (85fc <tetrisInit+0xb0>)
    8592:	63da      	str	r2, [r3, #60]	; 0x3c
    8594:	2210      	movs	r2, #16
    8596:	4b1a      	ldr	r3, [pc, #104]	; (8600 <tetrisInit+0xb4>)
    8598:	4798      	blx	r3
    859a:	2308      	movs	r3, #8
    859c:	4c19      	ldr	r4, [pc, #100]	; (8604 <tetrisInit+0xb8>)
    859e:	2000      	movs	r0, #0
    85a0:	7023      	strb	r3, [r4, #0]
    85a2:	4b19      	ldr	r3, [pc, #100]	; (8608 <tetrisInit+0xbc>)
    85a4:	4798      	blx	r3
    85a6:	2301      	movs	r3, #1
    85a8:	2231      	movs	r2, #49	; 0x31
    85aa:	7123      	strb	r3, [r4, #4]
    85ac:	54a3      	strb	r3, [r4, r2]
    85ae:	8123      	strh	r3, [r4, #8]
    85b0:	23c0      	movs	r3, #192	; 0xc0
    85b2:	049b      	lsls	r3, r3, #18
    85b4:	6225      	str	r5, [r4, #32]
    85b6:	61e5      	str	r5, [r4, #28]
    85b8:	60e3      	str	r3, [r4, #12]
    85ba:	bd70      	pop	{r4, r5, r6, pc}
    85bc:	200049c0 	.word	0x200049c0
    85c0:	0000c0cf 	.word	0x0000c0cf
    85c4:	c0cf0000 	.word	0xc0cf0000
    85c8:	c0cfc0cf 	.word	0xc0cfc0cf
    85cc:	0001de80 	.word	0x0001de80
    85d0:	c0c8c0c8 	.word	0xc0c8c0c8
    85d4:	80088008 	.word	0x80088008
    85d8:	40474047 	.word	0x40474047
    85dc:	40c740c7 	.word	0x40c740c7
    85e0:	40c040c0 	.word	0x40c040c0
    85e4:	800f800f 	.word	0x800f800f
    85e8:	00070007 	.word	0x00070007
    85ec:	00040004 	.word	0x00040004
    85f0:	000b000b 	.word	0x000b000b
    85f4:	40404040 	.word	0x40404040
    85f8:	80008000 	.word	0x80008000
    85fc:	c085c085 	.word	0xc085c085
    8600:	0000b4e1 	.word	0x0000b4e1
    8604:	200006d4 	.word	0x200006d4
    8608:	00007d4d 	.word	0x00007d4d

0000860c <tetrisTask>:
    860c:	b5f0      	push	{r4, r5, r6, r7, lr}
    860e:	4657      	mov	r7, sl
    8610:	46de      	mov	lr, fp
    8612:	464e      	mov	r6, r9
    8614:	4645      	mov	r5, r8
    8616:	b5e0      	push	{r5, r6, r7, lr}
    8618:	4fcd      	ldr	r7, [pc, #820]	; (8950 <tetrisTask+0x344>)
    861a:	b08d      	sub	sp, #52	; 0x34
    861c:	783c      	ldrb	r4, [r7, #0]
    861e:	9002      	str	r0, [sp, #8]
    8620:	0023      	movs	r3, r4
    8622:	3b08      	subs	r3, #8
    8624:	2b01      	cmp	r3, #1
    8626:	d93d      	bls.n	86a4 <tetrisTask+0x98>
    8628:	2c0c      	cmp	r4, #12
    862a:	d042      	beq.n	86b2 <tetrisTask+0xa6>
    862c:	2c0b      	cmp	r4, #11
    862e:	d10e      	bne.n	864e <tetrisTask+0x42>
    8630:	9b02      	ldr	r3, [sp, #8]
    8632:	3301      	adds	r3, #1
    8634:	b29b      	uxth	r3, r3
    8636:	2b01      	cmp	r3, #1
    8638:	d800      	bhi.n	863c <tetrisTask+0x30>
    863a:	e1d0      	b.n	89de <tetrisTask+0x3d2>
    863c:	79bb      	ldrb	r3, [r7, #6]
    863e:	07db      	lsls	r3, r3, #31
    8640:	d401      	bmi.n	8646 <tetrisTask+0x3a>
    8642:	f000 fe5a 	bl	92fa <tetrisTask+0xcee>
    8646:	230a      	movs	r3, #10
    8648:	240a      	movs	r4, #10
    864a:	703b      	strb	r3, [r7, #0]
    864c:	e31a      	b.n	8c84 <tetrisTask+0x678>
    864e:	4bc1      	ldr	r3, [pc, #772]	; (8954 <tetrisTask+0x348>)
    8650:	4798      	blx	r3
    8652:	7bbb      	ldrb	r3, [r7, #14]
    8654:	2b01      	cmp	r3, #1
    8656:	d124      	bne.n	86a2 <tetrisTask+0x96>
    8658:	78bb      	ldrb	r3, [r7, #2]
    865a:	2b01      	cmp	r3, #1
    865c:	d101      	bne.n	8662 <tetrisTask+0x56>
    865e:	f000 fe68 	bl	9332 <tetrisTask+0xd26>
    8662:	4bbd      	ldr	r3, [pc, #756]	; (8958 <tetrisTask+0x34c>)
    8664:	4798      	blx	r3
    8666:	78bb      	ldrb	r3, [r7, #2]
    8668:	2b01      	cmp	r3, #1
    866a:	d801      	bhi.n	8670 <tetrisTask+0x64>
    866c:	f000 fc40 	bl	8ef0 <tetrisTask+0x8e4>
    8670:	2b02      	cmp	r3, #2
    8672:	d101      	bne.n	8678 <tetrisTask+0x6c>
    8674:	f000 fbf3 	bl	8e5e <tetrisTask+0x852>
    8678:	2600      	movs	r6, #0
    867a:	2500      	movs	r5, #0
    867c:	232c      	movs	r3, #44	; 0x2c
    867e:	4cb7      	ldr	r4, [pc, #732]	; (895c <tetrisTask+0x350>)
    8680:	5ce3      	ldrb	r3, [r4, r3]
    8682:	42ab      	cmp	r3, r5
    8684:	d00b      	beq.n	869e <tetrisTask+0x92>
    8686:	793b      	ldrb	r3, [r7, #4]
    8688:	4698      	mov	r8, r3
    868a:	4bb5      	ldr	r3, [pc, #724]	; (8960 <tetrisTask+0x354>)
    868c:	4798      	blx	r3
    868e:	4bb5      	ldr	r3, [pc, #724]	; (8964 <tetrisTask+0x358>)
    8690:	0001      	movs	r1, r0
    8692:	4640      	mov	r0, r8
    8694:	4798      	blx	r3
    8696:	4bb4      	ldr	r3, [pc, #720]	; (8968 <tetrisTask+0x35c>)
    8698:	b2c8      	uxtb	r0, r1
    869a:	0029      	movs	r1, r5
    869c:	4798      	blx	r3
    869e:	232c      	movs	r3, #44	; 0x2c
    86a0:	54e6      	strb	r6, [r4, r3]
    86a2:	783c      	ldrb	r4, [r7, #0]
    86a4:	2c0c      	cmp	r4, #12
    86a6:	d900      	bls.n	86aa <tetrisTask+0x9e>
    86a8:	e3bb      	b.n	8e22 <tetrisTask+0x816>
    86aa:	4ab0      	ldr	r2, [pc, #704]	; (896c <tetrisTask+0x360>)
    86ac:	00a3      	lsls	r3, r4, #2
    86ae:	58d3      	ldr	r3, [r2, r3]
    86b0:	469f      	mov	pc, r3
    86b2:	9b02      	ldr	r3, [sp, #8]
    86b4:	2b61      	cmp	r3, #97	; 0x61
    86b6:	d101      	bne.n	86bc <tetrisTask+0xb0>
    86b8:	f000 fd15 	bl	90e6 <tetrisTask+0xada>
    86bc:	2b64      	cmp	r3, #100	; 0x64
    86be:	d101      	bne.n	86c4 <tetrisTask+0xb8>
    86c0:	f000 fc0b 	bl	8eda <tetrisTask+0x8ce>
    86c4:	2b20      	cmp	r3, #32
    86c6:	d101      	bne.n	86cc <tetrisTask+0xc0>
    86c8:	f000 fc24 	bl	8f14 <tetrisTask+0x908>
    86cc:	4ba8      	ldr	r3, [pc, #672]	; (8970 <tetrisTask+0x364>)
    86ce:	2001      	movs	r0, #1
    86d0:	4798      	blx	r3
    86d2:	9b02      	ldr	r3, [sp, #8]
    86d4:	2b6d      	cmp	r3, #109	; 0x6d
    86d6:	d000      	beq.n	86da <tetrisTask+0xce>
    86d8:	e17d      	b.n	89d6 <tetrisTask+0x3ca>
    86da:	783c      	ldrb	r4, [r7, #0]
    86dc:	2c08      	cmp	r4, #8
    86de:	d000      	beq.n	86e2 <tetrisTask+0xd6>
    86e0:	e2d4      	b.n	8c8c <tetrisTask+0x680>
    86e2:	4ba4      	ldr	r3, [pc, #656]	; (8974 <tetrisTask+0x368>)
    86e4:	4798      	blx	r3
    86e6:	697a      	ldr	r2, [r7, #20]
    86e8:	693b      	ldr	r3, [r7, #16]
    86ea:	1a9b      	subs	r3, r3, r2
    86ec:	181b      	adds	r3, r3, r0
    86ee:	613b      	str	r3, [r7, #16]
    86f0:	787b      	ldrb	r3, [r7, #1]
    86f2:	703b      	strb	r3, [r7, #0]
    86f4:	4ba0      	ldr	r3, [pc, #640]	; (8978 <tetrisTask+0x36c>)
    86f6:	4798      	blx	r3
    86f8:	4b97      	ldr	r3, [pc, #604]	; (8958 <tetrisTask+0x34c>)
    86fa:	4798      	blx	r3
    86fc:	4c97      	ldr	r4, [pc, #604]	; (895c <tetrisTask+0x350>)
    86fe:	4e9f      	ldr	r6, [pc, #636]	; (897c <tetrisTask+0x370>)
    8700:	7bfb      	ldrb	r3, [r7, #15]
    8702:	4a9f      	ldr	r2, [pc, #636]	; (8980 <tetrisTask+0x374>)
    8704:	2128      	movs	r1, #40	; 0x28
    8706:	0020      	movs	r0, r4
    8708:	47b0      	blx	r6
    870a:	2300      	movs	r3, #0
    870c:	4698      	mov	r8, r3
    870e:	9301      	str	r3, [sp, #4]
    8710:	3301      	adds	r3, #1
    8712:	4699      	mov	r9, r3
    8714:	4d9b      	ldr	r5, [pc, #620]	; (8984 <tetrisTask+0x378>)
    8716:	9300      	str	r3, [sp, #0]
    8718:	2215      	movs	r2, #21
    871a:	3303      	adds	r3, #3
    871c:	0021      	movs	r1, r4
    871e:	2000      	movs	r0, #0
    8720:	47a8      	blx	r5
    8722:	69fb      	ldr	r3, [r7, #28]
    8724:	4a98      	ldr	r2, [pc, #608]	; (8988 <tetrisTask+0x37c>)
    8726:	2128      	movs	r1, #40	; 0x28
    8728:	0020      	movs	r0, r4
    872a:	47b0      	blx	r6
    872c:	4643      	mov	r3, r8
    872e:	9301      	str	r3, [sp, #4]
    8730:	464b      	mov	r3, r9
    8732:	220d      	movs	r2, #13
    8734:	9300      	str	r3, [sp, #0]
    8736:	0021      	movs	r1, r4
    8738:	2000      	movs	r0, #0
    873a:	47a8      	blx	r5
    873c:	6a3b      	ldr	r3, [r7, #32]
    873e:	4a93      	ldr	r2, [pc, #588]	; (898c <tetrisTask+0x380>)
    8740:	2128      	movs	r1, #40	; 0x28
    8742:	0020      	movs	r0, r4
    8744:	47b0      	blx	r6
    8746:	4643      	mov	r3, r8
    8748:	9301      	str	r3, [sp, #4]
    874a:	464b      	mov	r3, r9
    874c:	221c      	movs	r2, #28
    874e:	9300      	str	r3, [sp, #0]
    8750:	0021      	movs	r1, r4
    8752:	2000      	movs	r0, #0
    8754:	47a8      	blx	r5
    8756:	793b      	ldrb	r3, [r7, #4]
    8758:	4a8d      	ldr	r2, [pc, #564]	; (8990 <tetrisTask+0x384>)
    875a:	2128      	movs	r1, #40	; 0x28
    875c:	0020      	movs	r0, r4
    875e:	47b0      	blx	r6
    8760:	4643      	mov	r3, r8
    8762:	9301      	str	r3, [sp, #4]
    8764:	464b      	mov	r3, r9
    8766:	2201      	movs	r2, #1
    8768:	9300      	str	r3, [sp, #0]
    876a:	0021      	movs	r1, r4
    876c:	2000      	movs	r0, #0
    876e:	47a8      	blx	r5
    8770:	78bb      	ldrb	r3, [r7, #2]
    8772:	2b02      	cmp	r3, #2
    8774:	d100      	bne.n	8778 <tetrisTask+0x16c>
    8776:	e360      	b.n	8e3a <tetrisTask+0x82e>
    8778:	893a      	ldrh	r2, [r7, #8]
    877a:	89bb      	ldrh	r3, [r7, #12]
    877c:	2128      	movs	r1, #40	; 0x28
    877e:	9200      	str	r2, [sp, #0]
    8780:	0020      	movs	r0, r4
    8782:	4a84      	ldr	r2, [pc, #528]	; (8994 <tetrisTask+0x388>)
    8784:	47b0      	blx	r6
    8786:	2300      	movs	r3, #0
    8788:	9301      	str	r3, [sp, #4]
    878a:	3301      	adds	r3, #1
    878c:	9300      	str	r3, [sp, #0]
    878e:	2215      	movs	r2, #21
    8790:	3305      	adds	r3, #5
    8792:	0021      	movs	r1, r4
    8794:	2000      	movs	r0, #0
    8796:	47a8      	blx	r5
    8798:	78bb      	ldrb	r3, [r7, #2]
    879a:	2b01      	cmp	r3, #1
    879c:	d800      	bhi.n	87a0 <tetrisTask+0x194>
    879e:	e2f5      	b.n	8d8c <tetrisTask+0x780>
    87a0:	2b02      	cmp	r3, #2
    87a2:	d000      	beq.n	87a6 <tetrisTask+0x19a>
    87a4:	e2f5      	b.n	8d92 <tetrisTask+0x786>
    87a6:	2650      	movs	r6, #80	; 0x50
    87a8:	2550      	movs	r5, #80	; 0x50
    87aa:	4b6d      	ldr	r3, [pc, #436]	; (8960 <tetrisTask+0x354>)
    87ac:	793f      	ldrb	r7, [r7, #4]
    87ae:	4798      	blx	r3
    87b0:	4b6c      	ldr	r3, [pc, #432]	; (8964 <tetrisTask+0x358>)
    87b2:	0001      	movs	r1, r0
    87b4:	0038      	movs	r0, r7
    87b6:	4798      	blx	r3
    87b8:	4b6b      	ldr	r3, [pc, #428]	; (8968 <tetrisTask+0x35c>)
    87ba:	b2c8      	uxtb	r0, r1
    87bc:	0029      	movs	r1, r5
    87be:	4798      	blx	r3
    87c0:	232c      	movs	r3, #44	; 0x2c
    87c2:	54e6      	strb	r6, [r4, r3]
    87c4:	4b74      	ldr	r3, [pc, #464]	; (8998 <tetrisTask+0x38c>)
    87c6:	4798      	blx	r3
    87c8:	e109      	b.n	89de <tetrisTask+0x3d2>
    87ca:	2328      	movs	r3, #40	; 0x28
    87cc:	5efd      	ldrsh	r5, [r7, r3]
    87ce:	2326      	movs	r3, #38	; 0x26
    87d0:	56fb      	ldrsb	r3, [r7, r3]
    87d2:	b2ac      	uxth	r4, r5
    87d4:	4699      	mov	r9, r3
    87d6:	232a      	movs	r3, #42	; 0x2a
    87d8:	5cfb      	ldrb	r3, [r7, r3]
    87da:	469a      	mov	sl, r3
    87dc:	2330      	movs	r3, #48	; 0x30
    87de:	5cfb      	ldrb	r3, [r7, r3]
    87e0:	2b00      	cmp	r3, #0
    87e2:	d100      	bne.n	87e6 <tetrisTask+0x1da>
    87e4:	e34b      	b.n	8e7e <tetrisTask+0x872>
    87e6:	2380      	movs	r3, #128	; 0x80
    87e8:	005b      	lsls	r3, r3, #1
    87ea:	18e4      	adds	r4, r4, r3
    87ec:	2324      	movs	r3, #36	; 0x24
    87ee:	b224      	sxth	r4, r4
    87f0:	853c      	strh	r4, [r7, #40]	; 0x28
    87f2:	4698      	mov	r8, r3
    87f4:	5cfb      	ldrb	r3, [r7, r3]
    87f6:	4e69      	ldr	r6, [pc, #420]	; (899c <tetrisTask+0x390>)
    87f8:	469b      	mov	fp, r3
    87fa:	1223      	asrs	r3, r4, #8
    87fc:	9303      	str	r3, [sp, #12]
    87fe:	464a      	mov	r2, r9
    8800:	b25b      	sxtb	r3, r3
    8802:	4651      	mov	r1, sl
    8804:	4658      	mov	r0, fp
    8806:	001c      	movs	r4, r3
    8808:	9604      	str	r6, [sp, #16]
    880a:	47b0      	blx	r6
    880c:	2800      	cmp	r0, #0
    880e:	d101      	bne.n	8814 <tetrisTask+0x208>
    8810:	f000 fca4 	bl	915c <tetrisTask+0xb50>
    8814:	2330      	movs	r3, #48	; 0x30
    8816:	2200      	movs	r2, #0
    8818:	54fa      	strb	r2, [r7, r3]
    881a:	9b02      	ldr	r3, [sp, #8]
    881c:	3b2b      	subs	r3, #43	; 0x2b
    881e:	b29b      	uxth	r3, r3
    8820:	2b4c      	cmp	r3, #76	; 0x4c
    8822:	d901      	bls.n	8828 <tetrisTask+0x21c>
    8824:	f000 fd37 	bl	9296 <tetrisTask+0xc8a>
    8828:	4a5d      	ldr	r2, [pc, #372]	; (89a0 <tetrisTask+0x394>)
    882a:	009b      	lsls	r3, r3, #2
    882c:	58d3      	ldr	r3, [r2, r3]
    882e:	469f      	mov	pc, r3
    8830:	2328      	movs	r3, #40	; 0x28
    8832:	5efd      	ldrsh	r5, [r7, r3]
    8834:	2324      	movs	r3, #36	; 0x24
    8836:	1c6c      	adds	r4, r5, #1
    8838:	34ff      	adds	r4, #255	; 0xff
    883a:	b224      	sxth	r4, r4
    883c:	853c      	strh	r4, [r7, #40]	; 0x28
    883e:	4699      	mov	r9, r3
    8840:	5cfb      	ldrb	r3, [r7, r3]
    8842:	469a      	mov	sl, r3
    8844:	232a      	movs	r3, #42	; 0x2a
    8846:	469b      	mov	fp, r3
    8848:	5cfb      	ldrb	r3, [r7, r3]
    884a:	4650      	mov	r0, sl
    884c:	4698      	mov	r8, r3
    884e:	2326      	movs	r3, #38	; 0x26
    8850:	56fe      	ldrsb	r6, [r7, r3]
    8852:	4641      	mov	r1, r8
    8854:	1223      	asrs	r3, r4, #8
    8856:	0032      	movs	r2, r6
    8858:	4c50      	ldr	r4, [pc, #320]	; (899c <tetrisTask+0x390>)
    885a:	9303      	str	r3, [sp, #12]
    885c:	47a0      	blx	r4
    885e:	2800      	cmp	r0, #0
    8860:	d100      	bne.n	8864 <tetrisTask+0x258>
    8862:	e323      	b.n	8eac <tetrisTask+0x8a0>
    8864:	9b03      	ldr	r3, [sp, #12]
    8866:	0032      	movs	r2, r6
    8868:	4641      	mov	r1, r8
    886a:	4650      	mov	r0, sl
    886c:	4c4d      	ldr	r4, [pc, #308]	; (89a4 <tetrisTask+0x398>)
    886e:	47a0      	blx	r4
    8870:	e0ad      	b.n	89ce <tetrisTask+0x3c2>
    8872:	4d4d      	ldr	r5, [pc, #308]	; (89a8 <tetrisTask+0x39c>)
    8874:	2000      	movs	r0, #0
    8876:	002b      	movs	r3, r5
    8878:	2400      	movs	r4, #0
    887a:	210f      	movs	r1, #15
    887c:	2601      	movs	r6, #1
    887e:	781a      	ldrb	r2, [r3, #0]
    8880:	4211      	tst	r1, r2
    8882:	d018      	beq.n	88b6 <tetrisTask+0x2aa>
    8884:	0912      	lsrs	r2, r2, #4
    8886:	d016      	beq.n	88b6 <tetrisTask+0x2aa>
    8888:	785a      	ldrb	r2, [r3, #1]
    888a:	4211      	tst	r1, r2
    888c:	d013      	beq.n	88b6 <tetrisTask+0x2aa>
    888e:	0912      	lsrs	r2, r2, #4
    8890:	d011      	beq.n	88b6 <tetrisTask+0x2aa>
    8892:	789a      	ldrb	r2, [r3, #2]
    8894:	4211      	tst	r1, r2
    8896:	d00e      	beq.n	88b6 <tetrisTask+0x2aa>
    8898:	0912      	lsrs	r2, r2, #4
    889a:	d00c      	beq.n	88b6 <tetrisTask+0x2aa>
    889c:	78da      	ldrb	r2, [r3, #3]
    889e:	4211      	tst	r1, r2
    88a0:	d009      	beq.n	88b6 <tetrisTask+0x2aa>
    88a2:	0912      	lsrs	r2, r2, #4
    88a4:	d007      	beq.n	88b6 <tetrisTask+0x2aa>
    88a6:	791a      	ldrb	r2, [r3, #4]
    88a8:	4211      	tst	r1, r2
    88aa:	d004      	beq.n	88b6 <tetrisTask+0x2aa>
    88ac:	0912      	lsrs	r2, r2, #4
    88ae:	d002      	beq.n	88b6 <tetrisTask+0x2aa>
    88b0:	0032      	movs	r2, r6
    88b2:	4082      	lsls	r2, r0
    88b4:	4314      	orrs	r4, r2
    88b6:	3001      	adds	r0, #1
    88b8:	3305      	adds	r3, #5
    88ba:	2814      	cmp	r0, #20
    88bc:	d1df      	bne.n	887e <tetrisTask+0x272>
    88be:	2200      	movs	r2, #0
    88c0:	2100      	movs	r1, #0
    88c2:	2001      	movs	r0, #1
    88c4:	62fc      	str	r4, [r7, #44]	; 0x2c
    88c6:	0003      	movs	r3, r0
    88c8:	4093      	lsls	r3, r2
    88ca:	4023      	ands	r3, r4
    88cc:	1e5e      	subs	r6, r3, #1
    88ce:	41b3      	sbcs	r3, r6
    88d0:	3201      	adds	r2, #1
    88d2:	18c9      	adds	r1, r1, r3
    88d4:	2a20      	cmp	r2, #32
    88d6:	d1f6      	bne.n	88c6 <tetrisTask+0x2ba>
    88d8:	69fb      	ldr	r3, [r7, #28]
    88da:	2902      	cmp	r1, #2
    88dc:	d101      	bne.n	88e2 <tetrisTask+0x2d6>
    88de:	f000 fcd0 	bl	9282 <tetrisTask+0xc76>
    88e2:	dc00      	bgt.n	88e6 <tetrisTask+0x2da>
    88e4:	e1f6      	b.n	8cd4 <tetrisTask+0x6c8>
    88e6:	2903      	cmp	r1, #3
    88e8:	d100      	bne.n	88ec <tetrisTask+0x2e0>
    88ea:	e36d      	b.n	8fc8 <tetrisTask+0x9bc>
    88ec:	2904      	cmp	r1, #4
    88ee:	d102      	bne.n	88f6 <tetrisTask+0x2ea>
    88f0:	33f5      	adds	r3, #245	; 0xf5
    88f2:	33ff      	adds	r3, #255	; 0xff
    88f4:	61fb      	str	r3, [r7, #28]
    88f6:	6a3a      	ldr	r2, [r7, #32]
    88f8:	429a      	cmp	r2, r3
    88fa:	d200      	bcs.n	88fe <tetrisTask+0x2f2>
    88fc:	623b      	str	r3, [r7, #32]
    88fe:	89bb      	ldrh	r3, [r7, #12]
    8900:	1859      	adds	r1, r3, r1
    8902:	893b      	ldrh	r3, [r7, #8]
    8904:	b289      	uxth	r1, r1
    8906:	81b9      	strh	r1, [r7, #12]
    8908:	428b      	cmp	r3, r1
    890a:	d900      	bls.n	890e <tetrisTask+0x302>
    890c:	e29d      	b.n	8e4a <tetrisTask+0x83e>
    890e:	78bb      	ldrb	r3, [r7, #2]
    8910:	2b02      	cmp	r3, #2
    8912:	d100      	bne.n	8916 <tetrisTask+0x30a>
    8914:	e299      	b.n	8e4a <tetrisTask+0x83e>
    8916:	2302      	movs	r3, #2
    8918:	4698      	mov	r8, r3
    891a:	4c24      	ldr	r4, [pc, #144]	; (89ac <tetrisTask+0x3a0>)
    891c:	73bb      	strb	r3, [r7, #14]
    891e:	62fc      	str	r4, [r7, #44]	; 0x2c
    8920:	2305      	movs	r3, #5
    8922:	703b      	strb	r3, [r7, #0]
    8924:	3b04      	subs	r3, #4
    8926:	469a      	mov	sl, r3
    8928:	4b21      	ldr	r3, [pc, #132]	; (89b0 <tetrisTask+0x3a4>)
    892a:	2600      	movs	r6, #0
    892c:	4699      	mov	r9, r3
    892e:	e003      	b.n	8938 <tetrisTask+0x32c>
    8930:	3601      	adds	r6, #1
    8932:	2e14      	cmp	r6, #20
    8934:	d100      	bne.n	8938 <tetrisTask+0x32c>
    8936:	e37b      	b.n	9030 <tetrisTask+0xa24>
    8938:	4653      	mov	r3, sl
    893a:	40b3      	lsls	r3, r6
    893c:	421c      	tst	r4, r3
    893e:	d0f7      	beq.n	8930 <tetrisTask+0x324>
    8940:	00b0      	lsls	r0, r6, #2
    8942:	1980      	adds	r0, r0, r6
    8944:	1940      	adds	r0, r0, r5
    8946:	2205      	movs	r2, #5
    8948:	2188      	movs	r1, #136	; 0x88
    894a:	47c8      	blx	r9
    894c:	e7f0      	b.n	8930 <tetrisTask+0x324>
    894e:	46c0      	nop			; (mov r8, r8)
    8950:	200006d4 	.word	0x200006d4
    8954:	00006799 	.word	0x00006799
    8958:	00007501 	.word	0x00007501
    895c:	2000065c 	.word	0x2000065c
    8960:	000061d5 	.word	0x000061d5
    8964:	0000ba91 	.word	0x0000ba91
    8968:	000063ed 	.word	0x000063ed
    896c:	0001d854 	.word	0x0001d854
    8970:	00007d4d 	.word	0x00007d4d
    8974:	0000b33d 	.word	0x0000b33d
    8978:	00006a4d 	.word	0x00006a4d
    897c:	0000b069 	.word	0x0000b069
    8980:	0001db94 	.word	0x0001db94
    8984:	0000b765 	.word	0x0000b765
    8988:	0001dba0 	.word	0x0001dba0
    898c:	0001dbb0 	.word	0x0001dbb0
    8990:	0001dbbc 	.word	0x0001dbbc
    8994:	0001dbc8 	.word	0x0001dbc8
    8998:	000075cd 	.word	0x000075cd
    899c:	00007209 	.word	0x00007209
    89a0:	0001d888 	.word	0x0001d888
    89a4:	00006e5d 	.word	0x00006e5d
    89a8:	20000708 	.word	0x20000708
    89ac:	000fffff 	.word	0x000fffff
    89b0:	0000bd5d 	.word	0x0000bd5d
    89b4:	242b      	movs	r4, #43	; 0x2b
    89b6:	5d39      	ldrb	r1, [r7, r4]
    89b8:	4bd7      	ldr	r3, [pc, #860]	; (8d18 <tetrisTask+0x70c>)
    89ba:	3101      	adds	r1, #1
    89bc:	b2c9      	uxtb	r1, r1
    89be:	6af8      	ldr	r0, [r7, #44]	; 0x2c
    89c0:	5539      	strb	r1, [r7, r4]
    89c2:	4798      	blx	r3
    89c4:	5d3b      	ldrb	r3, [r7, r4]
    89c6:	2b14      	cmp	r3, #20
    89c8:	d101      	bne.n	89ce <tetrisTask+0x3c2>
    89ca:	f000 fc28 	bl	921e <tetrisTask+0xc12>
    89ce:	9b02      	ldr	r3, [sp, #8]
    89d0:	2b6d      	cmp	r3, #109	; 0x6d
    89d2:	d100      	bne.n	89d6 <tetrisTask+0x3ca>
    89d4:	e681      	b.n	86da <tetrisTask+0xce>
    89d6:	9b02      	ldr	r3, [sp, #8]
    89d8:	2b4d      	cmp	r3, #77	; 0x4d
    89da:	d100      	bne.n	89de <tetrisTask+0x3d2>
    89dc:	e67d      	b.n	86da <tetrisTask+0xce>
    89de:	b00d      	add	sp, #52	; 0x34
    89e0:	bc3c      	pop	{r2, r3, r4, r5}
    89e2:	4690      	mov	r8, r2
    89e4:	4699      	mov	r9, r3
    89e6:	46a2      	mov	sl, r4
    89e8:	46ab      	mov	fp, r5
    89ea:	bdf0      	pop	{r4, r5, r6, r7, pc}
    89ec:	2300      	movs	r3, #0
    89ee:	61fb      	str	r3, [r7, #28]
    89f0:	713b      	strb	r3, [r7, #4]
    89f2:	3301      	adds	r3, #1
    89f4:	2201      	movs	r2, #1
    89f6:	73ba      	strb	r2, [r7, #14]
    89f8:	2200      	movs	r2, #0
    89fa:	78f9      	ldrb	r1, [r7, #3]
    89fc:	81ba      	strh	r2, [r7, #12]
    89fe:	2903      	cmp	r1, #3
    8a00:	d100      	bne.n	8a04 <tetrisTask+0x3f8>
    8a02:	e2f1      	b.n	8fe8 <tetrisTask+0x9dc>
    8a04:	08e2      	lsrs	r2, r4, #3
    8a06:	3103      	adds	r1, #3
    8a08:	1852      	adds	r2, r2, r1
    8a0a:	b2d2      	uxtb	r2, r2
    8a0c:	2a06      	cmp	r2, #6
    8a0e:	d900      	bls.n	8a12 <tetrisTask+0x406>
    8a10:	e219      	b.n	8e46 <tetrisTask+0x83a>
    8a12:	73fa      	strb	r2, [r7, #15]
    8a14:	813b      	strh	r3, [r7, #8]
    8a16:	4bc1      	ldr	r3, [pc, #772]	; (8d1c <tetrisTask+0x710>)
    8a18:	4798      	blx	r3
    8a1a:	4bc1      	ldr	r3, [pc, #772]	; (8d20 <tetrisTask+0x714>)
    8a1c:	6138      	str	r0, [r7, #16]
    8a1e:	4798      	blx	r3
    8a20:	4bc0      	ldr	r3, [pc, #768]	; (8d24 <tetrisTask+0x718>)
    8a22:	2264      	movs	r2, #100	; 0x64
    8a24:	2100      	movs	r1, #0
    8a26:	48c0      	ldr	r0, [pc, #768]	; (8d28 <tetrisTask+0x71c>)
    8a28:	4798      	blx	r3
    8a2a:	793b      	ldrb	r3, [r7, #4]
    8a2c:	2b04      	cmp	r3, #4
    8a2e:	d900      	bls.n	8a32 <tetrisTask+0x426>
    8a30:	e1b5      	b.n	8d9e <tetrisTask+0x792>
    8a32:	4bbe      	ldr	r3, [pc, #760]	; (8d2c <tetrisTask+0x720>)
    8a34:	4698      	mov	r8, r3
    8a36:	4bbe      	ldr	r3, [pc, #760]	; (8d30 <tetrisTask+0x724>)
    8a38:	469b      	mov	fp, r3
    8a3a:	2301      	movs	r3, #1
    8a3c:	703b      	strb	r3, [r7, #0]
    8a3e:	4bb7      	ldr	r3, [pc, #732]	; (8d1c <tetrisTask+0x710>)
    8a40:	4798      	blx	r3
    8a42:	2380      	movs	r3, #128	; 0x80
    8a44:	49bb      	ldr	r1, [pc, #748]	; (8d34 <tetrisTask+0x728>)
    8a46:	059b      	lsls	r3, r3, #22
    8a48:	cb04      	ldmia	r3!, {r2}
    8a4a:	1880      	adds	r0, r0, r2
    8a4c:	428b      	cmp	r3, r1
    8a4e:	d1fb      	bne.n	8a48 <tetrisTask+0x43c>
    8a50:	4bb9      	ldr	r3, [pc, #740]	; (8d38 <tetrisTask+0x72c>)
    8a52:	4798      	blx	r3
    8a54:	47c0      	blx	r8
    8a56:	2107      	movs	r1, #7
    8a58:	47d8      	blx	fp
    8a5a:	2325      	movs	r3, #37	; 0x25
    8a5c:	4cb7      	ldr	r4, [pc, #732]	; (8d3c <tetrisTask+0x730>)
    8a5e:	54f9      	strb	r1, [r7, r3]
    8a60:	4eb7      	ldr	r6, [pc, #732]	; (8d40 <tetrisTask+0x734>)
    8a62:	7bfb      	ldrb	r3, [r7, #15]
    8a64:	4ab7      	ldr	r2, [pc, #732]	; (8d44 <tetrisTask+0x738>)
    8a66:	2128      	movs	r1, #40	; 0x28
    8a68:	0020      	movs	r0, r4
    8a6a:	47b0      	blx	r6
    8a6c:	2300      	movs	r3, #0
    8a6e:	4698      	mov	r8, r3
    8a70:	9301      	str	r3, [sp, #4]
    8a72:	3301      	adds	r3, #1
    8a74:	4699      	mov	r9, r3
    8a76:	4db4      	ldr	r5, [pc, #720]	; (8d48 <tetrisTask+0x73c>)
    8a78:	9300      	str	r3, [sp, #0]
    8a7a:	2215      	movs	r2, #21
    8a7c:	3303      	adds	r3, #3
    8a7e:	0021      	movs	r1, r4
    8a80:	2000      	movs	r0, #0
    8a82:	47a8      	blx	r5
    8a84:	69fb      	ldr	r3, [r7, #28]
    8a86:	4ab1      	ldr	r2, [pc, #708]	; (8d4c <tetrisTask+0x740>)
    8a88:	2128      	movs	r1, #40	; 0x28
    8a8a:	0020      	movs	r0, r4
    8a8c:	47b0      	blx	r6
    8a8e:	4643      	mov	r3, r8
    8a90:	9301      	str	r3, [sp, #4]
    8a92:	464b      	mov	r3, r9
    8a94:	220d      	movs	r2, #13
    8a96:	9300      	str	r3, [sp, #0]
    8a98:	0021      	movs	r1, r4
    8a9a:	2000      	movs	r0, #0
    8a9c:	47a8      	blx	r5
    8a9e:	6a3b      	ldr	r3, [r7, #32]
    8aa0:	4aab      	ldr	r2, [pc, #684]	; (8d50 <tetrisTask+0x744>)
    8aa2:	2128      	movs	r1, #40	; 0x28
    8aa4:	0020      	movs	r0, r4
    8aa6:	47b0      	blx	r6
    8aa8:	4643      	mov	r3, r8
    8aaa:	9301      	str	r3, [sp, #4]
    8aac:	464b      	mov	r3, r9
    8aae:	221c      	movs	r2, #28
    8ab0:	9300      	str	r3, [sp, #0]
    8ab2:	0021      	movs	r1, r4
    8ab4:	2000      	movs	r0, #0
    8ab6:	47a8      	blx	r5
    8ab8:	793b      	ldrb	r3, [r7, #4]
    8aba:	4aa6      	ldr	r2, [pc, #664]	; (8d54 <tetrisTask+0x748>)
    8abc:	2128      	movs	r1, #40	; 0x28
    8abe:	0020      	movs	r0, r4
    8ac0:	47b0      	blx	r6
    8ac2:	4643      	mov	r3, r8
    8ac4:	9301      	str	r3, [sp, #4]
    8ac6:	464b      	mov	r3, r9
    8ac8:	2201      	movs	r2, #1
    8aca:	9300      	str	r3, [sp, #0]
    8acc:	0021      	movs	r1, r4
    8ace:	2000      	movs	r0, #0
    8ad0:	47a8      	blx	r5
    8ad2:	78bb      	ldrb	r3, [r7, #2]
    8ad4:	2b02      	cmp	r3, #2
    8ad6:	d100      	bne.n	8ada <tetrisTask+0x4ce>
    8ad8:	e298      	b.n	900c <tetrisTask+0xa00>
    8ada:	893a      	ldrh	r2, [r7, #8]
    8adc:	89bb      	ldrh	r3, [r7, #12]
    8ade:	2128      	movs	r1, #40	; 0x28
    8ae0:	9200      	str	r2, [sp, #0]
    8ae2:	0020      	movs	r0, r4
    8ae4:	4a9c      	ldr	r2, [pc, #624]	; (8d58 <tetrisTask+0x74c>)
    8ae6:	47b0      	blx	r6
    8ae8:	2300      	movs	r3, #0
    8aea:	9301      	str	r3, [sp, #4]
    8aec:	3301      	adds	r3, #1
    8aee:	9300      	str	r3, [sp, #0]
    8af0:	2215      	movs	r2, #21
    8af2:	3305      	adds	r3, #5
    8af4:	0021      	movs	r1, r4
    8af6:	2000      	movs	r0, #0
    8af8:	47a8      	blx	r5
    8afa:	78bb      	ldrb	r3, [r7, #2]
    8afc:	2b01      	cmp	r3, #1
    8afe:	d800      	bhi.n	8b02 <tetrisTask+0x4f6>
    8b00:	e274      	b.n	8fec <tetrisTask+0x9e0>
    8b02:	2b02      	cmp	r3, #2
    8b04:	d000      	beq.n	8b08 <tetrisTask+0x4fc>
    8b06:	e147      	b.n	8d98 <tetrisTask+0x78c>
    8b08:	2650      	movs	r6, #80	; 0x50
    8b0a:	2550      	movs	r5, #80	; 0x50
    8b0c:	793b      	ldrb	r3, [r7, #4]
    8b0e:	4698      	mov	r8, r3
    8b10:	4b92      	ldr	r3, [pc, #584]	; (8d5c <tetrisTask+0x750>)
    8b12:	4798      	blx	r3
    8b14:	4b92      	ldr	r3, [pc, #584]	; (8d60 <tetrisTask+0x754>)
    8b16:	0001      	movs	r1, r0
    8b18:	4640      	mov	r0, r8
    8b1a:	4798      	blx	r3
    8b1c:	4b91      	ldr	r3, [pc, #580]	; (8d64 <tetrisTask+0x758>)
    8b1e:	b2c8      	uxtb	r0, r1
    8b20:	0029      	movs	r1, r5
    8b22:	4798      	blx	r3
    8b24:	232c      	movs	r3, #44	; 0x2c
    8b26:	54e6      	strb	r6, [r4, r3]
    8b28:	e751      	b.n	89ce <tetrisTask+0x3c2>
    8b2a:	2324      	movs	r3, #36	; 0x24
    8b2c:	4698      	mov	r8, r3
    8b2e:	2400      	movs	r4, #0
    8b30:	262a      	movs	r6, #42	; 0x2a
    8b32:	2525      	movs	r5, #37	; 0x25
    8b34:	4642      	mov	r2, r8
    8b36:	55bc      	strb	r4, [r7, r6]
    8b38:	62fc      	str	r4, [r7, #44]	; 0x2c
    8b3a:	5d7b      	ldrb	r3, [r7, r5]
    8b3c:	54bb      	strb	r3, [r7, r2]
    8b3e:	4b7b      	ldr	r3, [pc, #492]	; (8d2c <tetrisTask+0x720>)
    8b40:	4798      	blx	r3
    8b42:	4b7b      	ldr	r3, [pc, #492]	; (8d30 <tetrisTask+0x724>)
    8b44:	2107      	movs	r1, #7
    8b46:	4798      	blx	r3
    8b48:	2305      	movs	r3, #5
    8b4a:	2200      	movs	r2, #0
    8b4c:	5579      	strb	r1, [r7, r5]
    8b4e:	3501      	adds	r5, #1
    8b50:	557b      	strb	r3, [r7, r5]
    8b52:	3b03      	subs	r3, #3
    8b54:	703b      	strb	r3, [r7, #0]
    8b56:	332e      	adds	r3, #46	; 0x2e
    8b58:	54fa      	strb	r2, [r7, r3]
    8b5a:	4b83      	ldr	r3, [pc, #524]	; (8d68 <tetrisTask+0x75c>)
    8b5c:	853c      	strh	r4, [r7, #40]	; 0x28
    8b5e:	4798      	blx	r3
    8b60:	4643      	mov	r3, r8
    8b62:	5cfb      	ldrb	r3, [r7, r3]
    8b64:	5dbe      	ldrb	r6, [r7, r6]
    8b66:	4699      	mov	r9, r3
    8b68:	577b      	ldrsb	r3, [r7, r5]
    8b6a:	4c80      	ldr	r4, [pc, #512]	; (8d6c <tetrisTask+0x760>)
    8b6c:	469b      	mov	fp, r3
    8b6e:	0031      	movs	r1, r6
    8b70:	2300      	movs	r3, #0
    8b72:	465a      	mov	r2, fp
    8b74:	4648      	mov	r0, r9
    8b76:	9404      	str	r4, [sp, #16]
    8b78:	47a0      	blx	r4
    8b7a:	2800      	cmp	r0, #0
    8b7c:	d100      	bne.n	8b80 <tetrisTask+0x574>
    8b7e:	e183      	b.n	8e88 <tetrisTask+0x87c>
    8b80:	2328      	movs	r3, #40	; 0x28
    8b82:	5efc      	ldrsh	r4, [r7, r3]
    8b84:	2331      	movs	r3, #49	; 0x31
    8b86:	5cfb      	ldrb	r3, [r7, r3]
    8b88:	1224      	asrs	r4, r4, #8
    8b8a:	2b00      	cmp	r3, #0
    8b8c:	d01b      	beq.n	8bc6 <tetrisTask+0x5ba>
    8b8e:	464b      	mov	r3, r9
    8b90:	b25b      	sxtb	r3, r3
    8b92:	4698      	mov	r8, r3
    8b94:	0025      	movs	r5, r4
    8b96:	2c13      	cmp	r4, #19
    8b98:	dd00      	ble.n	8b9c <tetrisTask+0x590>
    8b9a:	e3d7      	b.n	934c <tetrisTask+0xd40>
    8b9c:	9403      	str	r4, [sp, #12]
    8b9e:	e003      	b.n	8ba8 <tetrisTask+0x59c>
    8ba0:	3501      	adds	r5, #1
    8ba2:	2d14      	cmp	r5, #20
    8ba4:	d100      	bne.n	8ba8 <tetrisTask+0x59c>
    8ba6:	e3d1      	b.n	934c <tetrisTask+0xd40>
    8ba8:	b2eb      	uxtb	r3, r5
    8baa:	469a      	mov	sl, r3
    8bac:	465a      	mov	r2, fp
    8bae:	b26b      	sxtb	r3, r5
    8bb0:	0031      	movs	r1, r6
    8bb2:	4648      	mov	r0, r9
    8bb4:	9c04      	ldr	r4, [sp, #16]
    8bb6:	47a0      	blx	r4
    8bb8:	2800      	cmp	r0, #0
    8bba:	d1f1      	bne.n	8ba0 <tetrisTask+0x594>
    8bbc:	9c03      	ldr	r4, [sp, #12]
    8bbe:	42a5      	cmp	r5, r4
    8bc0:	dd01      	ble.n	8bc6 <tetrisTask+0x5ba>
    8bc2:	f000 fdbc 	bl	973e <tetrisTask+0x1132>
    8bc6:	4b6a      	ldr	r3, [pc, #424]	; (8d70 <tetrisTask+0x764>)
    8bc8:	4698      	mov	r8, r3
    8bca:	b263      	sxtb	r3, r4
    8bcc:	465a      	mov	r2, fp
    8bce:	0031      	movs	r1, r6
    8bd0:	4648      	mov	r0, r9
    8bd2:	47c0      	blx	r8
    8bd4:	e6fb      	b.n	89ce <tetrisTask+0x3c2>
    8bd6:	7bbb      	ldrb	r3, [r7, #14]
    8bd8:	2b01      	cmp	r3, #1
    8bda:	d100      	bne.n	8bde <tetrisTask+0x5d2>
    8bdc:	e158      	b.n	8e90 <tetrisTask+0x884>
    8bde:	4b4f      	ldr	r3, [pc, #316]	; (8d1c <tetrisTask+0x710>)
    8be0:	4798      	blx	r3
    8be2:	693b      	ldr	r3, [r7, #16]
    8be4:	1ac0      	subs	r0, r0, r3
    8be6:	4b63      	ldr	r3, [pc, #396]	; (8d74 <tetrisTask+0x768>)
    8be8:	4298      	cmp	r0, r3
    8bea:	d979      	bls.n	8ce0 <tetrisTask+0x6d4>
    8bec:	78bb      	ldrb	r3, [r7, #2]
    8bee:	2b01      	cmp	r3, #1
    8bf0:	d176      	bne.n	8ce0 <tetrisTask+0x6d4>
    8bf2:	2200      	movs	r2, #0
    8bf4:	9300      	str	r3, [sp, #0]
    8bf6:	9201      	str	r2, [sp, #4]
    8bf8:	3309      	adds	r3, #9
    8bfa:	320a      	adds	r2, #10
    8bfc:	495e      	ldr	r1, [pc, #376]	; (8d78 <tetrisTask+0x76c>)
    8bfe:	2000      	movs	r0, #0
    8c00:	4d51      	ldr	r5, [pc, #324]	; (8d48 <tetrisTask+0x73c>)
    8c02:	47a8      	blx	r5
    8c04:	e076      	b.n	8cf4 <tetrisTask+0x6e8>
    8c06:	9b02      	ldr	r3, [sp, #8]
    8c08:	2b61      	cmp	r3, #97	; 0x61
    8c0a:	d100      	bne.n	8c0e <tetrisTask+0x602>
    8c0c:	e273      	b.n	90f6 <tetrisTask+0xaea>
    8c0e:	2b64      	cmp	r3, #100	; 0x64
    8c10:	d100      	bne.n	8c14 <tetrisTask+0x608>
    8c12:	e1a5      	b.n	8f60 <tetrisTask+0x954>
    8c14:	2b20      	cmp	r3, #32
    8c16:	d000      	beq.n	8c1a <tetrisTask+0x60e>
    8c18:	e558      	b.n	86cc <tetrisTask+0xc0>
    8c1a:	7e3b      	ldrb	r3, [r7, #24]
    8c1c:	2b05      	cmp	r3, #5
    8c1e:	d100      	bne.n	8c22 <tetrisTask+0x616>
    8c20:	e3ba      	b.n	9398 <tetrisTask+0xd8c>
    8c22:	2300      	movs	r3, #0
    8c24:	763b      	strb	r3, [r7, #24]
    8c26:	703b      	strb	r3, [r7, #0]
    8c28:	7abb      	ldrb	r3, [r7, #10]
    8c2a:	70fb      	strb	r3, [r7, #3]
    8c2c:	797b      	ldrb	r3, [r7, #5]
    8c2e:	70bb      	strb	r3, [r7, #2]
    8c30:	e54c      	b.n	86cc <tetrisTask+0xc0>
    8c32:	793c      	ldrb	r4, [r7, #4]
    8c34:	0063      	lsls	r3, r4, #1
    8c36:	18e3      	adds	r3, r4, r3
    8c38:	3301      	adds	r3, #1
    8c3a:	e6db      	b.n	89f4 <tetrisTask+0x3e8>
    8c3c:	9b02      	ldr	r3, [sp, #8]
    8c3e:	2b61      	cmp	r3, #97	; 0x61
    8c40:	d100      	bne.n	8c44 <tetrisTask+0x638>
    8c42:	e363      	b.n	930c <tetrisTask+0xd00>
    8c44:	dd2e      	ble.n	8ca4 <tetrisTask+0x698>
    8c46:	2b73      	cmp	r3, #115	; 0x73
    8c48:	d100      	bne.n	8c4c <tetrisTask+0x640>
    8c4a:	e397      	b.n	937c <tetrisTask+0xd70>
    8c4c:	2b77      	cmp	r3, #119	; 0x77
    8c4e:	d100      	bne.n	8c52 <tetrisTask+0x646>
    8c50:	e1bd      	b.n	8fce <tetrisTask+0x9c2>
    8c52:	2b64      	cmp	r3, #100	; 0x64
    8c54:	d100      	bne.n	8c58 <tetrisTask+0x64c>
    8c56:	e198      	b.n	8f8a <tetrisTask+0x97e>
    8c58:	79bb      	ldrb	r3, [r7, #6]
    8c5a:	07db      	lsls	r3, r3, #31
    8c5c:	d500      	bpl.n	8c60 <tetrisTask+0x654>
    8c5e:	e535      	b.n	86cc <tetrisTask+0xc0>
    8c60:	2380      	movs	r3, #128	; 0x80
    8c62:	2201      	movs	r2, #1
    8c64:	025b      	lsls	r3, r3, #9
    8c66:	21ff      	movs	r1, #255	; 0xff
    8c68:	2005      	movs	r0, #5
    8c6a:	4c44      	ldr	r4, [pc, #272]	; (8d7c <tetrisTask+0x770>)
    8c6c:	47a0      	blx	r4
    8c6e:	e52d      	b.n	86cc <tetrisTask+0xc0>
    8c70:	2332      	movs	r3, #50	; 0x32
    8c72:	5cfb      	ldrb	r3, [r7, r3]
    8c74:	2b00      	cmp	r3, #0
    8c76:	d100      	bne.n	8c7a <tetrisTask+0x66e>
    8c78:	e154      	b.n	8f24 <tetrisTask+0x918>
    8c7a:	2304      	movs	r3, #4
    8c7c:	703b      	strb	r3, [r7, #0]
    8c7e:	2300      	movs	r3, #0
    8c80:	2404      	movs	r4, #4
    8c82:	62fb      	str	r3, [r7, #44]	; 0x2c
    8c84:	9b02      	ldr	r3, [sp, #8]
    8c86:	2b6d      	cmp	r3, #109	; 0x6d
    8c88:	d000      	beq.n	8c8c <tetrisTask+0x680>
    8c8a:	e6a4      	b.n	89d6 <tetrisTask+0x3ca>
    8c8c:	2000      	movs	r0, #0
    8c8e:	4b3c      	ldr	r3, [pc, #240]	; (8d80 <tetrisTask+0x774>)
    8c90:	707c      	strb	r4, [r7, #1]
    8c92:	4798      	blx	r3
    8c94:	2300      	movs	r3, #0
    8c96:	763b      	strb	r3, [r7, #24]
    8c98:	3308      	adds	r3, #8
    8c9a:	703b      	strb	r3, [r7, #0]
    8c9c:	4b1f      	ldr	r3, [pc, #124]	; (8d1c <tetrisTask+0x710>)
    8c9e:	4798      	blx	r3
    8ca0:	6178      	str	r0, [r7, #20]
    8ca2:	e69c      	b.n	89de <tetrisTask+0x3d2>
    8ca4:	1c5a      	adds	r2, r3, #1
    8ca6:	dbd7      	blt.n	8c58 <tetrisTask+0x64c>
    8ca8:	2b00      	cmp	r3, #0
    8caa:	dc00      	bgt.n	8cae <tetrisTask+0x6a2>
    8cac:	e50e      	b.n	86cc <tetrisTask+0xc0>
    8cae:	2b20      	cmp	r3, #32
    8cb0:	d1d2      	bne.n	8c58 <tetrisTask+0x64c>
    8cb2:	7e3b      	ldrb	r3, [r7, #24]
    8cb4:	2b03      	cmp	r3, #3
    8cb6:	d101      	bne.n	8cbc <tetrisTask+0x6b0>
    8cb8:	f000 fe05 	bl	98c6 <tetrisTask+0x12ba>
    8cbc:	2b04      	cmp	r3, #4
    8cbe:	d000      	beq.n	8cc2 <tetrisTask+0x6b6>
    8cc0:	e504      	b.n	86cc <tetrisTask+0xc0>
    8cc2:	3308      	adds	r3, #8
    8cc4:	703b      	strb	r3, [r7, #0]
    8cc6:	3b05      	subs	r3, #5
    8cc8:	763b      	strb	r3, [r7, #24]
    8cca:	79bb      	ldrb	r3, [r7, #6]
    8ccc:	07db      	lsls	r3, r3, #31
    8cce:	d500      	bpl.n	8cd2 <tetrisTask+0x6c6>
    8cd0:	e4fc      	b.n	86cc <tetrisTask+0xc0>
    8cd2:	e172      	b.n	8fba <tetrisTask+0x9ae>
    8cd4:	2901      	cmp	r1, #1
    8cd6:	d000      	beq.n	8cda <tetrisTask+0x6ce>
    8cd8:	e60d      	b.n	88f6 <tetrisTask+0x2ea>
    8cda:	330a      	adds	r3, #10
    8cdc:	61fb      	str	r3, [r7, #28]
    8cde:	e60a      	b.n	88f6 <tetrisTask+0x2ea>
    8ce0:	2300      	movs	r3, #0
    8ce2:	9301      	str	r3, [sp, #4]
    8ce4:	3301      	adds	r3, #1
    8ce6:	9300      	str	r3, [sp, #0]
    8ce8:	220f      	movs	r2, #15
    8cea:	3309      	adds	r3, #9
    8cec:	4925      	ldr	r1, [pc, #148]	; (8d84 <tetrisTask+0x778>)
    8cee:	2000      	movs	r0, #0
    8cf0:	4d15      	ldr	r5, [pc, #84]	; (8d48 <tetrisTask+0x73c>)
    8cf2:	47a8      	blx	r5
    8cf4:	2301      	movs	r3, #1
    8cf6:	2400      	movs	r4, #0
    8cf8:	9300      	str	r3, [sp, #0]
    8cfa:	9401      	str	r4, [sp, #4]
    8cfc:	3309      	adds	r3, #9
    8cfe:	2202      	movs	r2, #2
    8d00:	4921      	ldr	r1, [pc, #132]	; (8d88 <tetrisTask+0x77c>)
    8d02:	2000      	movs	r0, #0
    8d04:	47a8      	blx	r5
    8d06:	9b02      	ldr	r3, [sp, #8]
    8d08:	3301      	adds	r3, #1
    8d0a:	b29b      	uxth	r3, r3
    8d0c:	2b01      	cmp	r3, #1
    8d0e:	d800      	bhi.n	8d12 <tetrisTask+0x706>
    8d10:	e665      	b.n	89de <tetrisTask+0x3d2>
    8d12:	703c      	strb	r4, [r7, #0]
    8d14:	2400      	movs	r4, #0
    8d16:	e7b5      	b.n	8c84 <tetrisTask+0x678>
    8d18:	00007365 	.word	0x00007365
    8d1c:	0000b33d 	.word	0x0000b33d
    8d20:	00006a4d 	.word	0x00006a4d
    8d24:	0000bd5d 	.word	0x0000bd5d
    8d28:	20000708 	.word	0x20000708
    8d2c:	0000b095 	.word	0x0000b095
    8d30:	0000bc65 	.word	0x0000bc65
    8d34:	20008000 	.word	0x20008000
    8d38:	0000b0fd 	.word	0x0000b0fd
    8d3c:	2000065c 	.word	0x2000065c
    8d40:	0000b069 	.word	0x0000b069
    8d44:	0001db94 	.word	0x0001db94
    8d48:	0000b765 	.word	0x0000b765
    8d4c:	0001dba0 	.word	0x0001dba0
    8d50:	0001dbb0 	.word	0x0001dbb0
    8d54:	0001dbbc 	.word	0x0001dbbc
    8d58:	0001dbc8 	.word	0x0001dbc8
    8d5c:	000061d5 	.word	0x000061d5
    8d60:	0000ba91 	.word	0x0000ba91
    8d64:	000063ed 	.word	0x000063ed
    8d68:	000075cd 	.word	0x000075cd
    8d6c:	00007209 	.word	0x00007209
    8d70:	00006e5d 	.word	0x00006e5d
    8d74:	000493e0 	.word	0x000493e0
    8d78:	0001dd78 	.word	0x0001dd78
    8d7c:	0000a559 	.word	0x0000a559
    8d80:	00007d4d 	.word	0x00007d4d
    8d84:	0001dd90 	.word	0x0001dd90
    8d88:	0001dd9c 	.word	0x0001dd9c
    8d8c:	8939      	ldrh	r1, [r7, #8]
    8d8e:	2900      	cmp	r1, #0
    8d90:	d169      	bne.n	8e66 <tetrisTask+0x85a>
    8d92:	2600      	movs	r6, #0
    8d94:	2500      	movs	r5, #0
    8d96:	e508      	b.n	87aa <tetrisTask+0x19e>
    8d98:	2600      	movs	r6, #0
    8d9a:	2500      	movs	r5, #0
    8d9c:	e6b6      	b.n	8b0c <tetrisTask+0x500>
    8d9e:	2212      	movs	r2, #18
    8da0:	3b04      	subs	r3, #4
    8da2:	10db      	asrs	r3, r3, #3
    8da4:	1ad3      	subs	r3, r2, r3
    8da6:	9304      	str	r3, [sp, #16]
    8da8:	2313      	movs	r3, #19
    8daa:	9303      	str	r3, [sp, #12]
    8dac:	4bd6      	ldr	r3, [pc, #856]	; (9108 <tetrisTask+0xafc>)
    8dae:	4698      	mov	r8, r3
    8db0:	4bd6      	ldr	r3, [pc, #856]	; (910c <tetrisTask+0xb00>)
    8db2:	469b      	mov	fp, r3
    8db4:	2301      	movs	r3, #1
    8db6:	4699      	mov	r9, r3
    8db8:	330e      	adds	r3, #14
    8dba:	469a      	mov	sl, r3
    8dbc:	9b03      	ldr	r3, [sp, #12]
    8dbe:	2408      	movs	r4, #8
    8dc0:	469c      	mov	ip, r3
    8dc2:	009e      	lsls	r6, r3, #2
    8dc4:	4bd2      	ldr	r3, [pc, #840]	; (9110 <tetrisTask+0xb04>)
    8dc6:	4466      	add	r6, ip
    8dc8:	469c      	mov	ip, r3
    8dca:	4466      	add	r6, ip
    8dcc:	47c0      	blx	r8
    8dce:	210a      	movs	r1, #10
    8dd0:	47d8      	blx	fp
    8dd2:	000d      	movs	r5, r1
    8dd4:	47c0      	blx	r8
    8dd6:	2107      	movs	r1, #7
    8dd8:	47d8      	blx	fp
    8dda:	464a      	mov	r2, r9
    8ddc:	3101      	adds	r1, #1
    8dde:	106b      	asrs	r3, r5, #1
    8de0:	422a      	tst	r2, r5
    8de2:	d00f      	beq.n	8e04 <tetrisTask+0x7f8>
    8de4:	4650      	mov	r0, sl
    8de6:	5cf2      	ldrb	r2, [r6, r3]
    8de8:	0109      	lsls	r1, r1, #4
    8dea:	4002      	ands	r2, r0
    8dec:	4311      	orrs	r1, r2
    8dee:	3c01      	subs	r4, #1
    8df0:	54f1      	strb	r1, [r6, r3]
    8df2:	2c00      	cmp	r4, #0
    8df4:	d1ea      	bne.n	8dcc <tetrisTask+0x7c0>
    8df6:	9b03      	ldr	r3, [sp, #12]
    8df8:	9a04      	ldr	r2, [sp, #16]
    8dfa:	3b01      	subs	r3, #1
    8dfc:	9303      	str	r3, [sp, #12]
    8dfe:	4293      	cmp	r3, r2
    8e00:	d1dc      	bne.n	8dbc <tetrisTask+0x7b0>
    8e02:	e61a      	b.n	8a3a <tetrisTask+0x42e>
    8e04:	4650      	mov	r0, sl
    8e06:	5cf2      	ldrb	r2, [r6, r3]
    8e08:	3c01      	subs	r4, #1
    8e0a:	4382      	bics	r2, r0
    8e0c:	4311      	orrs	r1, r2
    8e0e:	54f1      	strb	r1, [r6, r3]
    8e10:	2c00      	cmp	r4, #0
    8e12:	d1db      	bne.n	8dcc <tetrisTask+0x7c0>
    8e14:	9b03      	ldr	r3, [sp, #12]
    8e16:	9a04      	ldr	r2, [sp, #16]
    8e18:	3b01      	subs	r3, #1
    8e1a:	9303      	str	r3, [sp, #12]
    8e1c:	4293      	cmp	r3, r2
    8e1e:	d1cd      	bne.n	8dbc <tetrisTask+0x7b0>
    8e20:	e60b      	b.n	8a3a <tetrisTask+0x42e>
    8e22:	79bb      	ldrb	r3, [r7, #6]
    8e24:	07db      	lsls	r3, r3, #31
    8e26:	d500      	bpl.n	8e2a <tetrisTask+0x81e>
    8e28:	e5d1      	b.n	89ce <tetrisTask+0x3c2>
    8e2a:	2380      	movs	r3, #128	; 0x80
    8e2c:	2201      	movs	r2, #1
    8e2e:	025b      	lsls	r3, r3, #9
    8e30:	21ff      	movs	r1, #255	; 0xff
    8e32:	2005      	movs	r0, #5
    8e34:	4cb7      	ldr	r4, [pc, #732]	; (9114 <tetrisTask+0xb08>)
    8e36:	47a0      	blx	r4
    8e38:	e5c9      	b.n	89ce <tetrisTask+0x3c2>
    8e3a:	89bb      	ldrh	r3, [r7, #12]
    8e3c:	4ab6      	ldr	r2, [pc, #728]	; (9118 <tetrisTask+0xb0c>)
    8e3e:	2128      	movs	r1, #40	; 0x28
    8e40:	0020      	movs	r0, r4
    8e42:	47b0      	blx	r6
    8e44:	e49f      	b.n	8786 <tetrisTask+0x17a>
    8e46:	2206      	movs	r2, #6
    8e48:	e5e3      	b.n	8a12 <tetrisTask+0x406>
    8e4a:	2c00      	cmp	r4, #0
    8e4c:	d001      	beq.n	8e52 <tetrisTask+0x846>
    8e4e:	f000 fc6a 	bl	9726 <tetrisTask+0x111a>
    8e52:	2301      	movs	r3, #1
    8e54:	703b      	strb	r3, [r7, #0]
    8e56:	232b      	movs	r3, #43	; 0x2b
    8e58:	2200      	movs	r2, #0
    8e5a:	54fa      	strb	r2, [r7, r3]
    8e5c:	e5b7      	b.n	89ce <tetrisTask+0x3c2>
    8e5e:	2650      	movs	r6, #80	; 0x50
    8e60:	2550      	movs	r5, #80	; 0x50
    8e62:	f7ff fc0b 	bl	867c <tetrisTask+0x70>
    8e66:	89bb      	ldrh	r3, [r7, #12]
    8e68:	0098      	lsls	r0, r3, #2
    8e6a:	18c0      	adds	r0, r0, r3
    8e6c:	0100      	lsls	r0, r0, #4
    8e6e:	4bab      	ldr	r3, [pc, #684]	; (911c <tetrisTask+0xb10>)
    8e70:	4798      	blx	r3
    8e72:	0005      	movs	r5, r0
    8e74:	2850      	cmp	r0, #80	; 0x50
    8e76:	dd00      	ble.n	8e7a <tetrisTask+0x86e>
    8e78:	2550      	movs	r5, #80	; 0x50
    8e7a:	b2ee      	uxtb	r6, r5
    8e7c:	e495      	b.n	87aa <tetrisTask+0x19e>
    8e7e:	7bfa      	ldrb	r2, [r7, #15]
    8e80:	3301      	adds	r3, #1
    8e82:	4093      	lsls	r3, r2
    8e84:	b29b      	uxth	r3, r3
    8e86:	e4b0      	b.n	87ea <tetrisTask+0x1de>
    8e88:	2307      	movs	r3, #7
    8e8a:	2407      	movs	r4, #7
    8e8c:	703b      	strb	r3, [r7, #0]
    8e8e:	e6f9      	b.n	8c84 <tetrisTask+0x678>
    8e90:	22ff      	movs	r2, #255	; 0xff
    8e92:	73ba      	strb	r2, [r7, #14]
    8e94:	79ba      	ldrb	r2, [r7, #6]
    8e96:	4213      	tst	r3, r2
    8e98:	d000      	beq.n	8e9c <tetrisTask+0x890>
    8e9a:	e6a0      	b.n	8bde <tetrisTask+0x5d2>
    8e9c:	2380      	movs	r3, #128	; 0x80
    8e9e:	2201      	movs	r2, #1
    8ea0:	025b      	lsls	r3, r3, #9
    8ea2:	21ff      	movs	r1, #255	; 0xff
    8ea4:	2008      	movs	r0, #8
    8ea6:	4c9b      	ldr	r4, [pc, #620]	; (9114 <tetrisTask+0xb08>)
    8ea8:	47a0      	blx	r4
    8eaa:	e698      	b.n	8bde <tetrisTask+0x5d2>
    8eac:	122b      	asrs	r3, r5, #8
    8eae:	b2db      	uxtb	r3, r3
    8eb0:	b2f2      	uxtb	r2, r6
    8eb2:	4641      	mov	r1, r8
    8eb4:	4650      	mov	r0, sl
    8eb6:	4c9a      	ldr	r4, [pc, #616]	; (9120 <tetrisTask+0xb14>)
    8eb8:	853d      	strh	r5, [r7, #40]	; 0x28
    8eba:	47a0      	blx	r4
    8ebc:	2304      	movs	r3, #4
    8ebe:	703b      	strb	r3, [r7, #0]
    8ec0:	464b      	mov	r3, r9
    8ec2:	5cfb      	ldrb	r3, [r7, r3]
    8ec4:	469a      	mov	sl, r3
    8ec6:	465b      	mov	r3, fp
    8ec8:	5cfb      	ldrb	r3, [r7, r3]
    8eca:	4698      	mov	r8, r3
    8ecc:	2326      	movs	r3, #38	; 0x26
    8ece:	56fe      	ldrsb	r6, [r7, r3]
    8ed0:	2328      	movs	r3, #40	; 0x28
    8ed2:	5efc      	ldrsh	r4, [r7, r3]
    8ed4:	1223      	asrs	r3, r4, #8
    8ed6:	9303      	str	r3, [sp, #12]
    8ed8:	e4c4      	b.n	8864 <tetrisTask+0x258>
    8eda:	2301      	movs	r3, #1
    8edc:	79ba      	ldrb	r2, [r7, #6]
    8ede:	4013      	ands	r3, r2
    8ee0:	7e3a      	ldrb	r2, [r7, #24]
    8ee2:	2a07      	cmp	r2, #7
    8ee4:	d042      	beq.n	8f6c <tetrisTask+0x960>
    8ee6:	2b00      	cmp	r3, #0
    8ee8:	d001      	beq.n	8eee <tetrisTask+0x8e2>
    8eea:	f7ff fbef 	bl	86cc <tetrisTask+0xc0>
    8eee:	e6b7      	b.n	8c60 <tetrisTask+0x654>
    8ef0:	8939      	ldrh	r1, [r7, #8]
    8ef2:	2900      	cmp	r1, #0
    8ef4:	d101      	bne.n	8efa <tetrisTask+0x8ee>
    8ef6:	f7ff fbbf 	bl	8678 <tetrisTask+0x6c>
    8efa:	89bb      	ldrh	r3, [r7, #12]
    8efc:	0098      	lsls	r0, r3, #2
    8efe:	18c0      	adds	r0, r0, r3
    8f00:	0100      	lsls	r0, r0, #4
    8f02:	4b86      	ldr	r3, [pc, #536]	; (911c <tetrisTask+0xb10>)
    8f04:	4798      	blx	r3
    8f06:	0005      	movs	r5, r0
    8f08:	2850      	cmp	r0, #80	; 0x50
    8f0a:	dd00      	ble.n	8f0e <tetrisTask+0x902>
    8f0c:	2550      	movs	r5, #80	; 0x50
    8f0e:	b2ee      	uxtb	r6, r5
    8f10:	f7ff fbb4 	bl	867c <tetrisTask+0x70>
    8f14:	7e3b      	ldrb	r3, [r7, #24]
    8f16:	2b07      	cmp	r3, #7
    8f18:	d100      	bne.n	8f1c <tetrisTask+0x910>
    8f1a:	e237      	b.n	938c <tetrisTask+0xd80>
    8f1c:	4b81      	ldr	r3, [pc, #516]	; (9124 <tetrisTask+0xb18>)
    8f1e:	4a82      	ldr	r2, [pc, #520]	; (9128 <tetrisTask+0xb1c>)
    8f20:	60da      	str	r2, [r3, #12]
    8f22:	e7fe      	b.n	8f22 <tetrisTask+0x916>
    8f24:	6afb      	ldr	r3, [r7, #44]	; 0x2c
    8f26:	2613      	movs	r6, #19
    8f28:	4698      	mov	r8, r3
    8f2a:	2301      	movs	r3, #1
    8f2c:	469b      	mov	fp, r3
    8f2e:	4b78      	ldr	r3, [pc, #480]	; (9110 <tetrisTask+0xb04>)
    8f30:	2513      	movs	r5, #19
    8f32:	4699      	mov	r9, r3
    8f34:	4b7d      	ldr	r3, [pc, #500]	; (912c <tetrisTask+0xb20>)
    8f36:	469a      	mov	sl, r3
    8f38:	4643      	mov	r3, r8
    8f3a:	46a0      	mov	r8, r4
    8f3c:	001c      	movs	r4, r3
    8f3e:	e001      	b.n	8f44 <tetrisTask+0x938>
    8f40:	3d01      	subs	r5, #1
    8f42:	d369      	bcc.n	9018 <tetrisTask+0xa0c>
    8f44:	465b      	mov	r3, fp
    8f46:	40ab      	lsls	r3, r5
    8f48:	421c      	tst	r4, r3
    8f4a:	d1f9      	bne.n	8f40 <tetrisTask+0x934>
    8f4c:	00b0      	lsls	r0, r6, #2
    8f4e:	00a9      	lsls	r1, r5, #2
    8f50:	1980      	adds	r0, r0, r6
    8f52:	1949      	adds	r1, r1, r5
    8f54:	4448      	add	r0, r9
    8f56:	4449      	add	r1, r9
    8f58:	2205      	movs	r2, #5
    8f5a:	47d0      	blx	sl
    8f5c:	3e01      	subs	r6, #1
    8f5e:	e7ef      	b.n	8f40 <tetrisTask+0x934>
    8f60:	2301      	movs	r3, #1
    8f62:	79ba      	ldrb	r2, [r7, #6]
    8f64:	4013      	ands	r3, r2
    8f66:	7e3a      	ldrb	r2, [r7, #24]
    8f68:	2a05      	cmp	r2, #5
    8f6a:	d1bc      	bne.n	8ee6 <tetrisTask+0x8da>
    8f6c:	3201      	adds	r2, #1
    8f6e:	763a      	strb	r2, [r7, #24]
    8f70:	2b00      	cmp	r3, #0
    8f72:	d001      	beq.n	8f78 <tetrisTask+0x96c>
    8f74:	f7ff fbaa 	bl	86cc <tetrisTask+0xc0>
    8f78:	2380      	movs	r3, #128	; 0x80
    8f7a:	2201      	movs	r2, #1
    8f7c:	025b      	lsls	r3, r3, #9
    8f7e:	21ff      	movs	r1, #255	; 0xff
    8f80:	2004      	movs	r0, #4
    8f82:	4c64      	ldr	r4, [pc, #400]	; (9114 <tetrisTask+0xb08>)
    8f84:	47a0      	blx	r4
    8f86:	f7ff fba1 	bl	86cc <tetrisTask+0xc0>
    8f8a:	7e3a      	ldrb	r2, [r7, #24]
    8f8c:	2a01      	cmp	r2, #1
    8f8e:	d100      	bne.n	8f92 <tetrisTask+0x986>
    8f90:	e34c      	b.n	962c <tetrisTask+0x1020>
    8f92:	2a00      	cmp	r2, #0
    8f94:	d100      	bne.n	8f98 <tetrisTask+0x98c>
    8f96:	e22c      	b.n	93f2 <tetrisTask+0xde6>
    8f98:	2a02      	cmp	r2, #2
    8f9a:	d001      	beq.n	8fa0 <tetrisTask+0x994>
    8f9c:	f7ff fb96 	bl	86cc <tetrisTask+0xc0>
    8fa0:	2301      	movs	r3, #1
    8fa2:	79b9      	ldrb	r1, [r7, #6]
    8fa4:	7aba      	ldrb	r2, [r7, #10]
    8fa6:	400b      	ands	r3, r1
    8fa8:	2a02      	cmp	r2, #2
    8faa:	d900      	bls.n	8fae <tetrisTask+0x9a2>
    8fac:	e227      	b.n	93fe <tetrisTask+0xdf2>
    8fae:	3201      	adds	r2, #1
    8fb0:	72ba      	strb	r2, [r7, #10]
    8fb2:	2b00      	cmp	r3, #0
    8fb4:	d001      	beq.n	8fba <tetrisTask+0x9ae>
    8fb6:	f7ff fb89 	bl	86cc <tetrisTask+0xc0>
    8fba:	2201      	movs	r2, #1
    8fbc:	21ff      	movs	r1, #255	; 0xff
    8fbe:	2004      	movs	r0, #4
    8fc0:	4b5b      	ldr	r3, [pc, #364]	; (9130 <tetrisTask+0xb24>)
    8fc2:	4798      	blx	r3
    8fc4:	f7ff fb82 	bl	86cc <tetrisTask+0xc0>
    8fc8:	33c8      	adds	r3, #200	; 0xc8
    8fca:	61fb      	str	r3, [r7, #28]
    8fcc:	e493      	b.n	88f6 <tetrisTask+0x2ea>
    8fce:	2301      	movs	r3, #1
    8fd0:	79b9      	ldrb	r1, [r7, #6]
    8fd2:	7e3a      	ldrb	r2, [r7, #24]
    8fd4:	400b      	ands	r3, r1
    8fd6:	2a00      	cmp	r2, #0
    8fd8:	d085      	beq.n	8ee6 <tetrisTask+0x8da>
    8fda:	3a01      	subs	r2, #1
    8fdc:	763a      	strb	r2, [r7, #24]
    8fde:	2b00      	cmp	r3, #0
    8fe0:	d001      	beq.n	8fe6 <tetrisTask+0x9da>
    8fe2:	f7ff fb73 	bl	86cc <tetrisTask+0xc0>
    8fe6:	e7c7      	b.n	8f78 <tetrisTask+0x96c>
    8fe8:	73f9      	strb	r1, [r7, #15]
    8fea:	e513      	b.n	8a14 <tetrisTask+0x408>
    8fec:	8939      	ldrh	r1, [r7, #8]
    8fee:	2900      	cmp	r1, #0
    8ff0:	d100      	bne.n	8ff4 <tetrisTask+0x9e8>
    8ff2:	e6d1      	b.n	8d98 <tetrisTask+0x78c>
    8ff4:	89bb      	ldrh	r3, [r7, #12]
    8ff6:	0098      	lsls	r0, r3, #2
    8ff8:	18c0      	adds	r0, r0, r3
    8ffa:	0100      	lsls	r0, r0, #4
    8ffc:	4b47      	ldr	r3, [pc, #284]	; (911c <tetrisTask+0xb10>)
    8ffe:	4798      	blx	r3
    9000:	0005      	movs	r5, r0
    9002:	2850      	cmp	r0, #80	; 0x50
    9004:	dd00      	ble.n	9008 <tetrisTask+0x9fc>
    9006:	2550      	movs	r5, #80	; 0x50
    9008:	b2ee      	uxtb	r6, r5
    900a:	e57f      	b.n	8b0c <tetrisTask+0x500>
    900c:	89bb      	ldrh	r3, [r7, #12]
    900e:	4a42      	ldr	r2, [pc, #264]	; (9118 <tetrisTask+0xb0c>)
    9010:	2128      	movs	r1, #40	; 0x28
    9012:	0020      	movs	r0, r4
    9014:	47b0      	blx	r6
    9016:	e567      	b.n	8ae8 <tetrisTask+0x4dc>
    9018:	4644      	mov	r4, r8
    901a:	2e00      	cmp	r6, #0
    901c:	da00      	bge.n	9020 <tetrisTask+0xa14>
    901e:	e631      	b.n	8c84 <tetrisTask+0x678>
    9020:	3601      	adds	r6, #1
    9022:	00b2      	lsls	r2, r6, #2
    9024:	1992      	adds	r2, r2, r6
    9026:	2100      	movs	r1, #0
    9028:	4b42      	ldr	r3, [pc, #264]	; (9134 <tetrisTask+0xb28>)
    902a:	4839      	ldr	r0, [pc, #228]	; (9110 <tetrisTask+0xb04>)
    902c:	4798      	blx	r3
    902e:	e629      	b.n	8c84 <tetrisTask+0x678>
    9030:	2301      	movs	r3, #1
    9032:	79ba      	ldrb	r2, [r7, #6]
    9034:	4013      	ands	r3, r2
    9036:	4642      	mov	r2, r8
    9038:	2a02      	cmp	r2, #2
    903a:	d100      	bne.n	903e <tetrisTask+0xa32>
    903c:	e152      	b.n	92e4 <tetrisTask+0xcd8>
    903e:	2b00      	cmp	r3, #0
    9040:	d100      	bne.n	9044 <tetrisTask+0xa38>
    9042:	e374      	b.n	972e <tetrisTask+0x1122>
    9044:	78bb      	ldrb	r3, [r7, #2]
    9046:	2b01      	cmp	r3, #1
    9048:	d800      	bhi.n	904c <tetrisTask+0xa40>
    904a:	e13b      	b.n	92c4 <tetrisTask+0xcb8>
    904c:	2b02      	cmp	r3, #2
    904e:	d147      	bne.n	90e0 <tetrisTask+0xad4>
    9050:	2650      	movs	r6, #80	; 0x50
    9052:	2550      	movs	r5, #80	; 0x50
    9054:	232c      	movs	r3, #44	; 0x2c
    9056:	4c38      	ldr	r4, [pc, #224]	; (9138 <tetrisTask+0xb2c>)
    9058:	5ce3      	ldrb	r3, [r4, r3]
    905a:	42ab      	cmp	r3, r5
    905c:	d00b      	beq.n	9076 <tetrisTask+0xa6a>
    905e:	793b      	ldrb	r3, [r7, #4]
    9060:	4698      	mov	r8, r3
    9062:	4b36      	ldr	r3, [pc, #216]	; (913c <tetrisTask+0xb30>)
    9064:	4798      	blx	r3
    9066:	4b36      	ldr	r3, [pc, #216]	; (9140 <tetrisTask+0xb34>)
    9068:	0001      	movs	r1, r0
    906a:	4640      	mov	r0, r8
    906c:	4798      	blx	r3
    906e:	4b35      	ldr	r3, [pc, #212]	; (9144 <tetrisTask+0xb38>)
    9070:	b2c8      	uxtb	r0, r1
    9072:	0029      	movs	r1, r5
    9074:	4798      	blx	r3
    9076:	232c      	movs	r3, #44	; 0x2c
    9078:	4a33      	ldr	r2, [pc, #204]	; (9148 <tetrisTask+0xb3c>)
    907a:	54e6      	strb	r6, [r4, r3]
    907c:	2128      	movs	r1, #40	; 0x28
    907e:	69fb      	ldr	r3, [r7, #28]
    9080:	4e32      	ldr	r6, [pc, #200]	; (914c <tetrisTask+0xb40>)
    9082:	0020      	movs	r0, r4
    9084:	47b0      	blx	r6
    9086:	2300      	movs	r3, #0
    9088:	4698      	mov	r8, r3
    908a:	9301      	str	r3, [sp, #4]
    908c:	3301      	adds	r3, #1
    908e:	9300      	str	r3, [sp, #0]
    9090:	220d      	movs	r2, #13
    9092:	0021      	movs	r1, r4
    9094:	2000      	movs	r0, #0
    9096:	4d2e      	ldr	r5, [pc, #184]	; (9150 <tetrisTask+0xb44>)
    9098:	4699      	mov	r9, r3
    909a:	47a8      	blx	r5
    909c:	6a3b      	ldr	r3, [r7, #32]
    909e:	4a2d      	ldr	r2, [pc, #180]	; (9154 <tetrisTask+0xb48>)
    90a0:	2128      	movs	r1, #40	; 0x28
    90a2:	0020      	movs	r0, r4
    90a4:	47b0      	blx	r6
    90a6:	4643      	mov	r3, r8
    90a8:	9301      	str	r3, [sp, #4]
    90aa:	464b      	mov	r3, r9
    90ac:	221c      	movs	r2, #28
    90ae:	9300      	str	r3, [sp, #0]
    90b0:	0021      	movs	r1, r4
    90b2:	2000      	movs	r0, #0
    90b4:	47a8      	blx	r5
    90b6:	78bb      	ldrb	r3, [r7, #2]
    90b8:	2b02      	cmp	r3, #2
    90ba:	d100      	bne.n	90be <tetrisTask+0xab2>
    90bc:	e0e5      	b.n	928a <tetrisTask+0xc7e>
    90be:	893a      	ldrh	r2, [r7, #8]
    90c0:	89bb      	ldrh	r3, [r7, #12]
    90c2:	2128      	movs	r1, #40	; 0x28
    90c4:	9200      	str	r2, [sp, #0]
    90c6:	0020      	movs	r0, r4
    90c8:	4a23      	ldr	r2, [pc, #140]	; (9158 <tetrisTask+0xb4c>)
    90ca:	47b0      	blx	r6
    90cc:	2300      	movs	r3, #0
    90ce:	9301      	str	r3, [sp, #4]
    90d0:	3301      	adds	r3, #1
    90d2:	9300      	str	r3, [sp, #0]
    90d4:	2215      	movs	r2, #21
    90d6:	3305      	adds	r3, #5
    90d8:	0021      	movs	r1, r4
    90da:	2000      	movs	r0, #0
    90dc:	47a8      	blx	r5
    90de:	e6ba      	b.n	8e56 <tetrisTask+0x84a>
    90e0:	2600      	movs	r6, #0
    90e2:	2500      	movs	r5, #0
    90e4:	e7b6      	b.n	9054 <tetrisTask+0xa48>
    90e6:	2301      	movs	r3, #1
    90e8:	79ba      	ldrb	r2, [r7, #6]
    90ea:	4013      	ands	r3, r2
    90ec:	7e3a      	ldrb	r2, [r7, #24]
    90ee:	2a08      	cmp	r2, #8
    90f0:	d000      	beq.n	90f4 <tetrisTask+0xae8>
    90f2:	e6f8      	b.n	8ee6 <tetrisTask+0x8da>
    90f4:	e771      	b.n	8fda <tetrisTask+0x9ce>
    90f6:	2301      	movs	r3, #1
    90f8:	79ba      	ldrb	r2, [r7, #6]
    90fa:	4013      	ands	r3, r2
    90fc:	7e3a      	ldrb	r2, [r7, #24]
    90fe:	2a06      	cmp	r2, #6
    9100:	d000      	beq.n	9104 <tetrisTask+0xaf8>
    9102:	e6f0      	b.n	8ee6 <tetrisTask+0x8da>
    9104:	e769      	b.n	8fda <tetrisTask+0x9ce>
    9106:	46c0      	nop			; (mov r8, r8)
    9108:	0000b095 	.word	0x0000b095
    910c:	0000bc65 	.word	0x0000bc65
    9110:	20000708 	.word	0x20000708
    9114:	0000a559 	.word	0x0000a559
    9118:	0001dbd8 	.word	0x0001dbd8
    911c:	0000ba99 	.word	0x0000ba99
    9120:	00007c19 	.word	0x00007c19
    9124:	e000ed00 	.word	0xe000ed00
    9128:	05fa0004 	.word	0x05fa0004
    912c:	0000bcb5 	.word	0x0000bcb5
    9130:	000063d5 	.word	0x000063d5
    9134:	0000bd5d 	.word	0x0000bd5d
    9138:	2000065c 	.word	0x2000065c
    913c:	000061d5 	.word	0x000061d5
    9140:	0000ba91 	.word	0x0000ba91
    9144:	000063ed 	.word	0x000063ed
    9148:	0001dba0 	.word	0x0001dba0
    914c:	0000b069 	.word	0x0000b069
    9150:	0000b765 	.word	0x0000b765
    9154:	0001dbb0 	.word	0x0001dbb0
    9158:	0001dbc8 	.word	0x0001dbc8
    915c:	464a      	mov	r2, r9
    915e:	122b      	asrs	r3, r5, #8
    9160:	b2db      	uxtb	r3, r3
    9162:	4658      	mov	r0, fp
    9164:	4cac      	ldr	r4, [pc, #688]	; (9418 <tetrisTask+0xe0c>)
    9166:	b2d2      	uxtb	r2, r2
    9168:	4651      	mov	r1, sl
    916a:	853d      	strh	r5, [r7, #40]	; 0x28
    916c:	47a0      	blx	r4
    916e:	2304      	movs	r3, #4
    9170:	703b      	strb	r3, [r7, #0]
    9172:	4643      	mov	r3, r8
    9174:	5cfb      	ldrb	r3, [r7, r3]
    9176:	469b      	mov	fp, r3
    9178:	232a      	movs	r3, #42	; 0x2a
    917a:	5cfe      	ldrb	r6, [r7, r3]
    917c:	3b04      	subs	r3, #4
    917e:	56fd      	ldrsb	r5, [r7, r3]
    9180:	2328      	movs	r3, #40	; 0x28
    9182:	5efc      	ldrsh	r4, [r7, r3]
    9184:	1223      	asrs	r3, r4, #8
    9186:	9303      	str	r3, [sp, #12]
    9188:	2331      	movs	r3, #49	; 0x31
    918a:	5cfb      	ldrb	r3, [r7, r3]
    918c:	4698      	mov	r8, r3
    918e:	4643      	mov	r3, r8
    9190:	2b00      	cmp	r3, #0
    9192:	d01c      	beq.n	91ce <tetrisTask+0xbc2>
    9194:	465b      	mov	r3, fp
    9196:	b25b      	sxtb	r3, r3
    9198:	469a      	mov	sl, r3
    919a:	9b03      	ldr	r3, [sp, #12]
    919c:	2b13      	cmp	r3, #19
    919e:	dd00      	ble.n	91a2 <tetrisTask+0xb96>
    91a0:	e252      	b.n	9648 <tetrisTask+0x103c>
    91a2:	4698      	mov	r8, r3
    91a4:	9503      	str	r5, [sp, #12]
    91a6:	001c      	movs	r4, r3
    91a8:	e002      	b.n	91b0 <tetrisTask+0xba4>
    91aa:	3401      	adds	r4, #1
    91ac:	2c14      	cmp	r4, #20
    91ae:	d019      	beq.n	91e4 <tetrisTask+0xbd8>
    91b0:	b2e3      	uxtb	r3, r4
    91b2:	4699      	mov	r9, r3
    91b4:	9a03      	ldr	r2, [sp, #12]
    91b6:	b263      	sxtb	r3, r4
    91b8:	0031      	movs	r1, r6
    91ba:	4658      	mov	r0, fp
    91bc:	9d04      	ldr	r5, [sp, #16]
    91be:	47a8      	blx	r5
    91c0:	2800      	cmp	r0, #0
    91c2:	d1f2      	bne.n	91aa <tetrisTask+0xb9e>
    91c4:	4643      	mov	r3, r8
    91c6:	9d03      	ldr	r5, [sp, #12]
    91c8:	9303      	str	r3, [sp, #12]
    91ca:	42a3      	cmp	r3, r4
    91cc:	db25      	blt.n	921a <tetrisTask+0xc0e>
    91ce:	4b93      	ldr	r3, [pc, #588]	; (941c <tetrisTask+0xe10>)
    91d0:	4698      	mov	r8, r3
    91d2:	466b      	mov	r3, sp
    91d4:	7b1b      	ldrb	r3, [r3, #12]
    91d6:	002a      	movs	r2, r5
    91d8:	b25b      	sxtb	r3, r3
    91da:	0031      	movs	r1, r6
    91dc:	4658      	mov	r0, fp
    91de:	47c0      	blx	r8
    91e0:	f7ff fbf5 	bl	89ce <tetrisTask+0x3c2>
    91e4:	46a0      	mov	r8, r4
    91e6:	9d03      	ldr	r5, [sp, #12]
    91e8:	4643      	mov	r3, r8
    91ea:	2080      	movs	r0, #128	; 0x80
    91ec:	4652      	mov	r2, sl
    91ee:	4240      	negs	r0, r0
    91f0:	4310      	orrs	r0, r2
    91f2:	3b01      	subs	r3, #1
    91f4:	4c89      	ldr	r4, [pc, #548]	; (941c <tetrisTask+0xe10>)
    91f6:	b25b      	sxtb	r3, r3
    91f8:	002a      	movs	r2, r5
    91fa:	0031      	movs	r1, r6
    91fc:	b2c0      	uxtb	r0, r0
    91fe:	47a0      	blx	r4
    9200:	2324      	movs	r3, #36	; 0x24
    9202:	5cfb      	ldrb	r3, [r7, r3]
    9204:	46a0      	mov	r8, r4
    9206:	469b      	mov	fp, r3
    9208:	232a      	movs	r3, #42	; 0x2a
    920a:	5cfe      	ldrb	r6, [r7, r3]
    920c:	3b04      	subs	r3, #4
    920e:	56fd      	ldrsb	r5, [r7, r3]
    9210:	2328      	movs	r3, #40	; 0x28
    9212:	5efc      	ldrsh	r4, [r7, r3]
    9214:	1223      	asrs	r3, r4, #8
    9216:	9303      	str	r3, [sp, #12]
    9218:	e7db      	b.n	91d2 <tetrisTask+0xbc6>
    921a:	464b      	mov	r3, r9
    921c:	e7e5      	b.n	91ea <tetrisTask+0xbde>
    921e:	6afb      	ldr	r3, [r7, #44]	; 0x2c
    9220:	2513      	movs	r5, #19
    9222:	4698      	mov	r8, r3
    9224:	2301      	movs	r3, #1
    9226:	469a      	mov	sl, r3
    9228:	4b7d      	ldr	r3, [pc, #500]	; (9420 <tetrisTask+0xe14>)
    922a:	3c18      	subs	r4, #24
    922c:	4e7d      	ldr	r6, [pc, #500]	; (9424 <tetrisTask+0xe18>)
    922e:	4699      	mov	r9, r3
    9230:	e001      	b.n	9236 <tetrisTask+0xc2a>
    9232:	3c01      	subs	r4, #1
    9234:	d30e      	bcc.n	9254 <tetrisTask+0xc48>
    9236:	4653      	mov	r3, sl
    9238:	4642      	mov	r2, r8
    923a:	40a3      	lsls	r3, r4
    923c:	421a      	tst	r2, r3
    923e:	d1f8      	bne.n	9232 <tetrisTask+0xc26>
    9240:	00a8      	lsls	r0, r5, #2
    9242:	00a1      	lsls	r1, r4, #2
    9244:	1940      	adds	r0, r0, r5
    9246:	1909      	adds	r1, r1, r4
    9248:	1980      	adds	r0, r0, r6
    924a:	1989      	adds	r1, r1, r6
    924c:	2205      	movs	r2, #5
    924e:	47c8      	blx	r9
    9250:	3d01      	subs	r5, #1
    9252:	e7ee      	b.n	9232 <tetrisTask+0xc26>
    9254:	2d00      	cmp	r5, #0
    9256:	db06      	blt.n	9266 <tetrisTask+0xc5a>
    9258:	3501      	adds	r5, #1
    925a:	00aa      	lsls	r2, r5, #2
    925c:	1952      	adds	r2, r2, r5
    925e:	2100      	movs	r1, #0
    9260:	4870      	ldr	r0, [pc, #448]	; (9424 <tetrisTask+0xe18>)
    9262:	4b71      	ldr	r3, [pc, #452]	; (9428 <tetrisTask+0xe1c>)
    9264:	4798      	blx	r3
    9266:	7bbb      	ldrb	r3, [r7, #14]
    9268:	2b02      	cmp	r3, #2
    926a:	d100      	bne.n	926e <tetrisTask+0xc62>
    926c:	e0ec      	b.n	9448 <tetrisTask+0xe3c>
    926e:	2332      	movs	r3, #50	; 0x32
    9270:	5cfb      	ldrb	r3, [r7, r3]
    9272:	2b00      	cmp	r3, #0
    9274:	d000      	beq.n	9278 <tetrisTask+0xc6c>
    9276:	e0b8      	b.n	93ea <tetrisTask+0xdde>
    9278:	2201      	movs	r2, #1
    927a:	62fb      	str	r3, [r7, #44]	; 0x2c
    927c:	703a      	strb	r2, [r7, #0]
    927e:	2401      	movs	r4, #1
    9280:	e500      	b.n	8c84 <tetrisTask+0x678>
    9282:	3332      	adds	r3, #50	; 0x32
    9284:	61fb      	str	r3, [r7, #28]
    9286:	f7ff fb36 	bl	88f6 <tetrisTask+0x2ea>
    928a:	89bb      	ldrh	r3, [r7, #12]
    928c:	4a67      	ldr	r2, [pc, #412]	; (942c <tetrisTask+0xe20>)
    928e:	2128      	movs	r1, #40	; 0x28
    9290:	0020      	movs	r0, r4
    9292:	47b0      	blx	r6
    9294:	e71a      	b.n	90cc <tetrisTask+0xac0>
    9296:	2331      	movs	r3, #49	; 0x31
    9298:	5cfb      	ldrb	r3, [r7, r3]
    929a:	464d      	mov	r5, r9
    929c:	4698      	mov	r8, r3
    929e:	4656      	mov	r6, sl
    92a0:	0023      	movs	r3, r4
    92a2:	002a      	movs	r2, r5
    92a4:	0031      	movs	r1, r6
    92a6:	4658      	mov	r0, fp
    92a8:	9c04      	ldr	r4, [sp, #16]
    92aa:	47a0      	blx	r4
    92ac:	2800      	cmp	r0, #0
    92ae:	d000      	beq.n	92b2 <tetrisTask+0xca6>
    92b0:	e76d      	b.n	918e <tetrisTask+0xb82>
    92b2:	2326      	movs	r3, #38	; 0x26
    92b4:	464a      	mov	r2, r9
    92b6:	54fa      	strb	r2, [r7, r3]
    92b8:	4652      	mov	r2, sl
    92ba:	3304      	adds	r3, #4
    92bc:	54fa      	strb	r2, [r7, r3]
    92be:	464d      	mov	r5, r9
    92c0:	4656      	mov	r6, sl
    92c2:	e764      	b.n	918e <tetrisTask+0xb82>
    92c4:	8939      	ldrh	r1, [r7, #8]
    92c6:	2900      	cmp	r1, #0
    92c8:	d100      	bne.n	92cc <tetrisTask+0xcc0>
    92ca:	e709      	b.n	90e0 <tetrisTask+0xad4>
    92cc:	89bb      	ldrh	r3, [r7, #12]
    92ce:	0098      	lsls	r0, r3, #2
    92d0:	18c0      	adds	r0, r0, r3
    92d2:	0100      	lsls	r0, r0, #4
    92d4:	4b56      	ldr	r3, [pc, #344]	; (9430 <tetrisTask+0xe24>)
    92d6:	4798      	blx	r3
    92d8:	0005      	movs	r5, r0
    92da:	2850      	cmp	r0, #80	; 0x50
    92dc:	dd00      	ble.n	92e0 <tetrisTask+0xcd4>
    92de:	2550      	movs	r5, #80	; 0x50
    92e0:	b2ee      	uxtb	r6, r5
    92e2:	e6b7      	b.n	9054 <tetrisTask+0xa48>
    92e4:	2b00      	cmp	r3, #0
    92e6:	d000      	beq.n	92ea <tetrisTask+0xcde>
    92e8:	e6ac      	b.n	9044 <tetrisTask+0xa38>
    92ea:	2380      	movs	r3, #128	; 0x80
    92ec:	3a01      	subs	r2, #1
    92ee:	025b      	lsls	r3, r3, #9
    92f0:	21ff      	movs	r1, #255	; 0xff
    92f2:	2007      	movs	r0, #7
    92f4:	4c4f      	ldr	r4, [pc, #316]	; (9434 <tetrisTask+0xe28>)
    92f6:	47a0      	blx	r4
    92f8:	e6a4      	b.n	9044 <tetrisTask+0xa38>
    92fa:	2380      	movs	r3, #128	; 0x80
    92fc:	2201      	movs	r2, #1
    92fe:	025b      	lsls	r3, r3, #9
    9300:	21ff      	movs	r1, #255	; 0xff
    9302:	2004      	movs	r0, #4
    9304:	4c4b      	ldr	r4, [pc, #300]	; (9434 <tetrisTask+0xe28>)
    9306:	47a0      	blx	r4
    9308:	f7ff f99d 	bl	8646 <tetrisTask+0x3a>
    930c:	7e3a      	ldrb	r2, [r7, #24]
    930e:	79bb      	ldrb	r3, [r7, #6]
    9310:	2a01      	cmp	r2, #1
    9312:	d05f      	beq.n	93d4 <tetrisTask+0xdc8>
    9314:	2a00      	cmp	r2, #0
    9316:	d051      	beq.n	93bc <tetrisTask+0xdb0>
    9318:	2a02      	cmp	r2, #2
    931a:	d043      	beq.n	93a4 <tetrisTask+0xd98>
    931c:	07db      	lsls	r3, r3, #31
    931e:	d501      	bpl.n	9324 <tetrisTask+0xd18>
    9320:	f7ff f9d4 	bl	86cc <tetrisTask+0xc0>
    9324:	2201      	movs	r2, #1
    9326:	21ff      	movs	r1, #255	; 0xff
    9328:	2005      	movs	r0, #5
    932a:	4b43      	ldr	r3, [pc, #268]	; (9438 <tetrisTask+0xe2c>)
    932c:	4798      	blx	r3
    932e:	f7ff f9cd 	bl	86cc <tetrisTask+0xc0>
    9332:	4b42      	ldr	r3, [pc, #264]	; (943c <tetrisTask+0xe30>)
    9334:	4798      	blx	r3
    9336:	693b      	ldr	r3, [r7, #16]
    9338:	1ac0      	subs	r0, r0, r3
    933a:	4b41      	ldr	r3, [pc, #260]	; (9440 <tetrisTask+0xe34>)
    933c:	4298      	cmp	r0, r3
    933e:	d801      	bhi.n	9344 <tetrisTask+0xd38>
    9340:	f7ff f98f 	bl	8662 <tetrisTask+0x56>
    9344:	2307      	movs	r3, #7
    9346:	703b      	strb	r3, [r7, #0]
    9348:	f7ff f98b 	bl	8662 <tetrisTask+0x56>
    934c:	1e6b      	subs	r3, r5, #1
    934e:	2080      	movs	r0, #128	; 0x80
    9350:	4642      	mov	r2, r8
    9352:	4240      	negs	r0, r0
    9354:	4310      	orrs	r0, r2
    9356:	4c31      	ldr	r4, [pc, #196]	; (941c <tetrisTask+0xe10>)
    9358:	b25b      	sxtb	r3, r3
    935a:	465a      	mov	r2, fp
    935c:	0031      	movs	r1, r6
    935e:	b2c0      	uxtb	r0, r0
    9360:	47a0      	blx	r4
    9362:	2324      	movs	r3, #36	; 0x24
    9364:	5cfb      	ldrb	r3, [r7, r3]
    9366:	46a0      	mov	r8, r4
    9368:	4699      	mov	r9, r3
    936a:	232a      	movs	r3, #42	; 0x2a
    936c:	5cfe      	ldrb	r6, [r7, r3]
    936e:	3b04      	subs	r3, #4
    9370:	56fb      	ldrsb	r3, [r7, r3]
    9372:	469b      	mov	fp, r3
    9374:	2328      	movs	r3, #40	; 0x28
    9376:	5efc      	ldrsh	r4, [r7, r3]
    9378:	1224      	asrs	r4, r4, #8
    937a:	e426      	b.n	8bca <tetrisTask+0x5be>
    937c:	2301      	movs	r3, #1
    937e:	79b9      	ldrb	r1, [r7, #6]
    9380:	7e3a      	ldrb	r2, [r7, #24]
    9382:	400b      	ands	r3, r1
    9384:	2a03      	cmp	r2, #3
    9386:	d900      	bls.n	938a <tetrisTask+0xd7e>
    9388:	e5ad      	b.n	8ee6 <tetrisTask+0x8da>
    938a:	e5ef      	b.n	8f6c <tetrisTask+0x960>
    938c:	3b03      	subs	r3, #3
    938e:	763b      	strb	r3, [r7, #24]
    9390:	3304      	adds	r3, #4
    9392:	703b      	strb	r3, [r7, #0]
    9394:	f7ff f99a 	bl	86cc <tetrisTask+0xc0>
    9398:	3b02      	subs	r3, #2
    939a:	763b      	strb	r3, [r7, #24]
    939c:	3305      	adds	r3, #5
    939e:	703b      	strb	r3, [r7, #0]
    93a0:	f7ff f994 	bl	86cc <tetrisTask+0xc0>
    93a4:	2201      	movs	r2, #1
    93a6:	7ab9      	ldrb	r1, [r7, #10]
    93a8:	4013      	ands	r3, r2
    93aa:	2900      	cmp	r1, #0
    93ac:	d027      	beq.n	93fe <tetrisTask+0xdf2>
    93ae:	3901      	subs	r1, #1
    93b0:	72b9      	strb	r1, [r7, #10]
    93b2:	2b00      	cmp	r3, #0
    93b4:	d001      	beq.n	93ba <tetrisTask+0xdae>
    93b6:	f7ff f989 	bl	86cc <tetrisTask+0xc0>
    93ba:	e5fe      	b.n	8fba <tetrisTask+0x9ae>
    93bc:	2201      	movs	r2, #1
    93be:	7979      	ldrb	r1, [r7, #5]
    93c0:	4013      	ands	r3, r2
    93c2:	2900      	cmp	r1, #0
    93c4:	d01b      	beq.n	93fe <tetrisTask+0xdf2>
    93c6:	3901      	subs	r1, #1
    93c8:	7179      	strb	r1, [r7, #5]
    93ca:	2b00      	cmp	r3, #0
    93cc:	d001      	beq.n	93d2 <tetrisTask+0xdc6>
    93ce:	f7ff f97d 	bl	86cc <tetrisTask+0xc0>
    93d2:	e5f2      	b.n	8fba <tetrisTask+0x9ae>
    93d4:	2b00      	cmp	r3, #0
    93d6:	d0a5      	beq.n	9324 <tetrisTask+0xd18>
    93d8:	3b01      	subs	r3, #1
    93da:	b2db      	uxtb	r3, r3
    93dc:	71bb      	strb	r3, [r7, #6]
    93de:	079b      	lsls	r3, r3, #30
    93e0:	d400      	bmi.n	93e4 <tetrisTask+0xdd8>
    93e2:	e12c      	b.n	963e <tetrisTask+0x1032>
    93e4:	4b17      	ldr	r3, [pc, #92]	; (9444 <tetrisTask+0xe38>)
    93e6:	4798      	blx	r3
    93e8:	e46f      	b.n	8cca <tetrisTask+0x6be>
    93ea:	2306      	movs	r3, #6
    93ec:	2406      	movs	r4, #6
    93ee:	703b      	strb	r3, [r7, #0]
    93f0:	e448      	b.n	8c84 <tetrisTask+0x678>
    93f2:	2301      	movs	r3, #1
    93f4:	79b9      	ldrb	r1, [r7, #6]
    93f6:	797a      	ldrb	r2, [r7, #5]
    93f8:	400b      	ands	r3, r1
    93fa:	2a01      	cmp	r2, #1
    93fc:	d904      	bls.n	9408 <tetrisTask+0xdfc>
    93fe:	2b00      	cmp	r3, #0
    9400:	d001      	beq.n	9406 <tetrisTask+0xdfa>
    9402:	f7ff f963 	bl	86cc <tetrisTask+0xc0>
    9406:	e78d      	b.n	9324 <tetrisTask+0xd18>
    9408:	3201      	adds	r2, #1
    940a:	717a      	strb	r2, [r7, #5]
    940c:	2b00      	cmp	r3, #0
    940e:	d001      	beq.n	9414 <tetrisTask+0xe08>
    9410:	f7ff f95c 	bl	86cc <tetrisTask+0xc0>
    9414:	e5d1      	b.n	8fba <tetrisTask+0x9ae>
    9416:	46c0      	nop			; (mov r8, r8)
    9418:	00007c19 	.word	0x00007c19
    941c:	00006e5d 	.word	0x00006e5d
    9420:	0000bcb5 	.word	0x0000bcb5
    9424:	20000708 	.word	0x20000708
    9428:	0000bd5d 	.word	0x0000bd5d
    942c:	0001dbd8 	.word	0x0001dbd8
    9430:	0000ba99 	.word	0x0000ba99
    9434:	0000a559 	.word	0x0000a559
    9438:	000063d5 	.word	0x000063d5
    943c:	0000b33d 	.word	0x0000b33d
    9440:	000493e0 	.word	0x000493e0
    9444:	00009ded 	.word	0x00009ded
    9448:	4be1      	ldr	r3, [pc, #900]	; (97d0 <tetrisTask+0x11c4>)
    944a:	24f2      	movs	r4, #242	; 0xf2
    944c:	001d      	movs	r5, r3
    944e:	0019      	movs	r1, r3
    9450:	22f0      	movs	r2, #240	; 0xf0
    9452:	35f2      	adds	r5, #242	; 0xf2
    9454:	786d      	ldrb	r5, [r5, #1]
    9456:	5d1c      	ldrb	r4, [r3, r4]
    9458:	022d      	lsls	r5, r5, #8
    945a:	4325      	orrs	r5, r4
    945c:	2479      	movs	r4, #121	; 0x79
    945e:	31f0      	adds	r1, #240	; 0xf0
    9460:	7848      	ldrb	r0, [r1, #1]
    9462:	5c9a      	ldrb	r2, [r3, r2]
    9464:	0200      	lsls	r0, r0, #8
    9466:	4310      	orrs	r0, r2
    9468:	4ada      	ldr	r2, [pc, #872]	; (97d4 <tetrisTask+0x11c8>)
    946a:	9503      	str	r5, [sp, #12]
    946c:	5d14      	ldrb	r4, [r2, r4]
    946e:	001d      	movs	r5, r3
    9470:	3404      	adds	r4, #4
    9472:	b2e4      	uxtb	r4, r4
    9474:	9404      	str	r4, [sp, #16]
    9476:	24f4      	movs	r4, #244	; 0xf4
    9478:	35f4      	adds	r5, #244	; 0xf4
    947a:	786e      	ldrb	r6, [r5, #1]
    947c:	5d1c      	ldrb	r4, [r3, r4]
    947e:	0236      	lsls	r6, r6, #8
    9480:	4326      	orrs	r6, r4
    9482:	247a      	movs	r4, #122	; 0x7a
    9484:	5d14      	ldrb	r4, [r2, r4]
    9486:	2178      	movs	r1, #120	; 0x78
    9488:	3404      	adds	r4, #4
    948a:	b2e4      	uxtb	r4, r4
    948c:	9405      	str	r4, [sp, #20]
    948e:	24f6      	movs	r4, #246	; 0xf6
    9490:	5d1d      	ldrb	r5, [r3, r4]
    9492:	001c      	movs	r4, r3
    9494:	34f6      	adds	r4, #246	; 0xf6
    9496:	7864      	ldrb	r4, [r4, #1]
    9498:	5c51      	ldrb	r1, [r2, r1]
    949a:	0224      	lsls	r4, r4, #8
    949c:	432c      	orrs	r4, r5
    949e:	46a2      	mov	sl, r4
    94a0:	247b      	movs	r4, #123	; 0x7b
    94a2:	5d14      	ldrb	r4, [r2, r4]
    94a4:	3104      	adds	r1, #4
    94a6:	3404      	adds	r4, #4
    94a8:	b2e4      	uxtb	r4, r4
    94aa:	9406      	str	r4, [sp, #24]
    94ac:	24f8      	movs	r4, #248	; 0xf8
    94ae:	5d1d      	ldrb	r5, [r3, r4]
    94b0:	001c      	movs	r4, r3
    94b2:	34f8      	adds	r4, #248	; 0xf8
    94b4:	7864      	ldrb	r4, [r4, #1]
    94b6:	b2c9      	uxtb	r1, r1
    94b8:	0224      	lsls	r4, r4, #8
    94ba:	432c      	orrs	r4, r5
    94bc:	9407      	str	r4, [sp, #28]
    94be:	247c      	movs	r4, #124	; 0x7c
    94c0:	5d14      	ldrb	r4, [r2, r4]
    94c2:	3404      	adds	r4, #4
    94c4:	b2e4      	uxtb	r4, r4
    94c6:	9408      	str	r4, [sp, #32]
    94c8:	24fa      	movs	r4, #250	; 0xfa
    94ca:	5d1d      	ldrb	r5, [r3, r4]
    94cc:	001c      	movs	r4, r3
    94ce:	34fa      	adds	r4, #250	; 0xfa
    94d0:	7864      	ldrb	r4, [r4, #1]
    94d2:	0224      	lsls	r4, r4, #8
    94d4:	432c      	orrs	r4, r5
    94d6:	46a3      	mov	fp, r4
    94d8:	247d      	movs	r4, #125	; 0x7d
    94da:	5d14      	ldrb	r4, [r2, r4]
    94dc:	3404      	adds	r4, #4
    94de:	b2e4      	uxtb	r4, r4
    94e0:	9409      	str	r4, [sp, #36]	; 0x24
    94e2:	24fc      	movs	r4, #252	; 0xfc
    94e4:	5d1d      	ldrb	r5, [r3, r4]
    94e6:	001c      	movs	r4, r3
    94e8:	34fc      	adds	r4, #252	; 0xfc
    94ea:	7864      	ldrb	r4, [r4, #1]
    94ec:	0224      	lsls	r4, r4, #8
    94ee:	432c      	orrs	r4, r5
    94f0:	46a1      	mov	r9, r4
    94f2:	247e      	movs	r4, #126	; 0x7e
    94f4:	5d14      	ldrb	r4, [r2, r4]
    94f6:	3404      	adds	r4, #4
    94f8:	b2e4      	uxtb	r4, r4
    94fa:	940a      	str	r4, [sp, #40]	; 0x28
    94fc:	24fe      	movs	r4, #254	; 0xfe
    94fe:	5d1c      	ldrb	r4, [r3, r4]
    9500:	33fe      	adds	r3, #254	; 0xfe
    9502:	785b      	ldrb	r3, [r3, #1]
    9504:	021b      	lsls	r3, r3, #8
    9506:	4323      	orrs	r3, r4
    9508:	4698      	mov	r8, r3
    950a:	237f      	movs	r3, #127	; 0x7f
    950c:	5cd3      	ldrb	r3, [r2, r3]
    950e:	4ab2      	ldr	r2, [pc, #712]	; (97d8 <tetrisTask+0x11cc>)
    9510:	3304      	adds	r3, #4
    9512:	b2db      	uxtb	r3, r3
    9514:	930b      	str	r3, [sp, #44]	; 0x2c
    9516:	0403      	lsls	r3, r0, #16
    9518:	4318      	orrs	r0, r3
    951a:	4bb0      	ldr	r3, [pc, #704]	; (97dc <tetrisTask+0x11d0>)
    951c:	189c      	adds	r4, r3, r2
    951e:	001a      	movs	r2, r3
    9520:	3250      	adds	r2, #80	; 0x50
    9522:	c301      	stmia	r3!, {r0}
    9524:	4293      	cmp	r3, r2
    9526:	d1fc      	bne.n	9522 <tetrisTask+0xf16>
    9528:	2228      	movs	r2, #40	; 0x28
    952a:	48ad      	ldr	r0, [pc, #692]	; (97e0 <tetrisTask+0x11d4>)
    952c:	4dad      	ldr	r5, [pc, #692]	; (97e4 <tetrisTask+0x11d8>)
    952e:	47a8      	blx	r5
    9530:	22f5      	movs	r2, #245	; 0xf5
    9532:	9b03      	ldr	r3, [sp, #12]
    9534:	0152      	lsls	r2, r2, #5
    9536:	0419      	lsls	r1, r3, #16
    9538:	4319      	orrs	r1, r3
    953a:	4bab      	ldr	r3, [pc, #684]	; (97e8 <tetrisTask+0x11dc>)
    953c:	18a2      	adds	r2, r4, r2
    953e:	c302      	stmia	r3!, {r1}
    9540:	429a      	cmp	r2, r3
    9542:	d1fc      	bne.n	953e <tetrisTask+0xf32>
    9544:	2228      	movs	r2, #40	; 0x28
    9546:	9904      	ldr	r1, [sp, #16]
    9548:	48a8      	ldr	r0, [pc, #672]	; (97ec <tetrisTask+0x11e0>)
    954a:	47a8      	blx	r5
    954c:	0433      	lsls	r3, r6, #16
    954e:	4aa8      	ldr	r2, [pc, #672]	; (97f0 <tetrisTask+0x11e4>)
    9550:	431e      	orrs	r6, r3
    9552:	4ba8      	ldr	r3, [pc, #672]	; (97f4 <tetrisTask+0x11e8>)
    9554:	18a2      	adds	r2, r4, r2
    9556:	c340      	stmia	r3!, {r6}
    9558:	429a      	cmp	r2, r3
    955a:	d1fc      	bne.n	9556 <tetrisTask+0xf4a>
    955c:	2228      	movs	r2, #40	; 0x28
    955e:	9905      	ldr	r1, [sp, #20]
    9560:	48a5      	ldr	r0, [pc, #660]	; (97f8 <tetrisTask+0x11ec>)
    9562:	47a8      	blx	r5
    9564:	4653      	mov	r3, sl
    9566:	21fa      	movs	r1, #250	; 0xfa
    9568:	041a      	lsls	r2, r3, #16
    956a:	431a      	orrs	r2, r3
    956c:	0149      	lsls	r1, r1, #5
    956e:	4ba3      	ldr	r3, [pc, #652]	; (97fc <tetrisTask+0x11f0>)
    9570:	1861      	adds	r1, r4, r1
    9572:	c304      	stmia	r3!, {r2}
    9574:	4299      	cmp	r1, r3
    9576:	d1fc      	bne.n	9572 <tetrisTask+0xf66>
    9578:	2228      	movs	r2, #40	; 0x28
    957a:	9906      	ldr	r1, [sp, #24]
    957c:	48a0      	ldr	r0, [pc, #640]	; (9800 <tetrisTask+0x11f4>)
    957e:	47a8      	blx	r5
    9580:	9b07      	ldr	r3, [sp, #28]
    9582:	49a0      	ldr	r1, [pc, #640]	; (9804 <tetrisTask+0x11f8>)
    9584:	041a      	lsls	r2, r3, #16
    9586:	431a      	orrs	r2, r3
    9588:	4b9f      	ldr	r3, [pc, #636]	; (9808 <tetrisTask+0x11fc>)
    958a:	1861      	adds	r1, r4, r1
    958c:	c304      	stmia	r3!, {r2}
    958e:	4299      	cmp	r1, r3
    9590:	d1fc      	bne.n	958c <tetrisTask+0xf80>
    9592:	2228      	movs	r2, #40	; 0x28
    9594:	9908      	ldr	r1, [sp, #32]
    9596:	489d      	ldr	r0, [pc, #628]	; (980c <tetrisTask+0x1200>)
    9598:	47a8      	blx	r5
    959a:	465b      	mov	r3, fp
    959c:	21ff      	movs	r1, #255	; 0xff
    959e:	041a      	lsls	r2, r3, #16
    95a0:	431a      	orrs	r2, r3
    95a2:	0149      	lsls	r1, r1, #5
    95a4:	4b9a      	ldr	r3, [pc, #616]	; (9810 <tetrisTask+0x1204>)
    95a6:	1861      	adds	r1, r4, r1
    95a8:	c304      	stmia	r3!, {r2}
    95aa:	4299      	cmp	r1, r3
    95ac:	d1fc      	bne.n	95a8 <tetrisTask+0xf9c>
    95ae:	2228      	movs	r2, #40	; 0x28
    95b0:	9909      	ldr	r1, [sp, #36]	; 0x24
    95b2:	4898      	ldr	r0, [pc, #608]	; (9814 <tetrisTask+0x1208>)
    95b4:	47a8      	blx	r5
    95b6:	464b      	mov	r3, r9
    95b8:	4997      	ldr	r1, [pc, #604]	; (9818 <tetrisTask+0x120c>)
    95ba:	041a      	lsls	r2, r3, #16
    95bc:	431a      	orrs	r2, r3
    95be:	4b97      	ldr	r3, [pc, #604]	; (981c <tetrisTask+0x1210>)
    95c0:	1861      	adds	r1, r4, r1
    95c2:	c304      	stmia	r3!, {r2}
    95c4:	4299      	cmp	r1, r3
    95c6:	d1fc      	bne.n	95c2 <tetrisTask+0xfb6>
    95c8:	2228      	movs	r2, #40	; 0x28
    95ca:	990a      	ldr	r1, [sp, #40]	; 0x28
    95cc:	4894      	ldr	r0, [pc, #592]	; (9820 <tetrisTask+0x1214>)
    95ce:	47a8      	blx	r5
    95d0:	2182      	movs	r1, #130	; 0x82
    95d2:	4643      	mov	r3, r8
    95d4:	0189      	lsls	r1, r1, #6
    95d6:	468c      	mov	ip, r1
    95d8:	041a      	lsls	r2, r3, #16
    95da:	431a      	orrs	r2, r3
    95dc:	4b91      	ldr	r3, [pc, #580]	; (9824 <tetrisTask+0x1218>)
    95de:	4464      	add	r4, ip
    95e0:	c304      	stmia	r3!, {r2}
    95e2:	429c      	cmp	r4, r3
    95e4:	d1fc      	bne.n	95e0 <tetrisTask+0xfd4>
    95e6:	2228      	movs	r2, #40	; 0x28
    95e8:	990b      	ldr	r1, [sp, #44]	; 0x2c
    95ea:	488f      	ldr	r0, [pc, #572]	; (9828 <tetrisTask+0x121c>)
    95ec:	47a8      	blx	r5
    95ee:	4c8f      	ldr	r4, [pc, #572]	; (982c <tetrisTask+0x1220>)
    95f0:	4a8f      	ldr	r2, [pc, #572]	; (9830 <tetrisTask+0x1224>)
    95f2:	2128      	movs	r1, #40	; 0x28
    95f4:	793b      	ldrb	r3, [r7, #4]
    95f6:	0020      	movs	r0, r4
    95f8:	4d8e      	ldr	r5, [pc, #568]	; (9834 <tetrisTask+0x1228>)
    95fa:	47a8      	blx	r5
    95fc:	793b      	ldrb	r3, [r7, #4]
    95fe:	0020      	movs	r0, r4
    9600:	3301      	adds	r3, #1
    9602:	713b      	strb	r3, [r7, #4]
    9604:	4b8c      	ldr	r3, [pc, #560]	; (9838 <tetrisTask+0x122c>)
    9606:	4798      	blx	r3
    9608:	2228      	movs	r2, #40	; 0x28
    960a:	2300      	movs	r3, #0
    960c:	1a12      	subs	r2, r2, r0
    960e:	9301      	str	r3, [sp, #4]
    9610:	0852      	lsrs	r2, r2, #1
    9612:	3301      	adds	r3, #1
    9614:	9300      	str	r3, [sp, #0]
    9616:	0021      	movs	r1, r4
    9618:	330b      	adds	r3, #11
    961a:	4c88      	ldr	r4, [pc, #544]	; (983c <tetrisTask+0x1230>)
    961c:	b2d2      	uxtb	r2, r2
    961e:	2000      	movs	r0, #0
    9620:	47a0      	blx	r4
    9622:	230b      	movs	r3, #11
    9624:	240b      	movs	r4, #11
    9626:	703b      	strb	r3, [r7, #0]
    9628:	f7ff fb2c 	bl	8c84 <tetrisTask+0x678>
    962c:	79bb      	ldrb	r3, [r7, #6]
    962e:	2b02      	cmp	r3, #2
    9630:	d81a      	bhi.n	9668 <tetrisTask+0x105c>
    9632:	3301      	adds	r3, #1
    9634:	b2db      	uxtb	r3, r3
    9636:	71bb      	strb	r3, [r7, #6]
    9638:	079b      	lsls	r3, r3, #30
    963a:	d500      	bpl.n	963e <tetrisTask+0x1032>
    963c:	e6d2      	b.n	93e4 <tetrisTask+0xdd8>
    963e:	4880      	ldr	r0, [pc, #512]	; (9840 <tetrisTask+0x1234>)
    9640:	4b80      	ldr	r3, [pc, #512]	; (9844 <tetrisTask+0x1238>)
    9642:	4798      	blx	r3
    9644:	f7ff fb41 	bl	8cca <tetrisTask+0x6be>
    9648:	4698      	mov	r8, r3
    964a:	e5cd      	b.n	91e8 <tetrisTask+0xbdc>
    964c:	79bb      	ldrb	r3, [r7, #6]
    964e:	07db      	lsls	r3, r3, #31
    9650:	d50f      	bpl.n	9672 <tetrisTask+0x1066>
    9652:	464d      	mov	r5, r9
    9654:	4656      	mov	r6, sl
    9656:	2303      	movs	r3, #3
    9658:	3601      	adds	r6, #1
    965a:	401e      	ands	r6, r3
    965c:	3327      	adds	r3, #39	; 0x27
    965e:	54fe      	strb	r6, [r7, r3]
    9660:	3307      	adds	r3, #7
    9662:	5cfb      	ldrb	r3, [r7, r3]
    9664:	4698      	mov	r8, r3
    9666:	e61b      	b.n	92a0 <tetrisTask+0xc94>
    9668:	421a      	tst	r2, r3
    966a:	d001      	beq.n	9670 <tetrisTask+0x1064>
    966c:	f7ff f82e 	bl	86cc <tetrisTask+0xc0>
    9670:	e658      	b.n	9324 <tetrisTask+0xd18>
    9672:	2380      	movs	r3, #128	; 0x80
    9674:	4c74      	ldr	r4, [pc, #464]	; (9848 <tetrisTask+0x123c>)
    9676:	025b      	lsls	r3, r3, #9
    9678:	2201      	movs	r2, #1
    967a:	21ff      	movs	r1, #255	; 0xff
    967c:	2003      	movs	r0, #3
    967e:	47a0      	blx	r4
    9680:	232a      	movs	r3, #42	; 0x2a
    9682:	5cfe      	ldrb	r6, [r7, r3]
    9684:	3b06      	subs	r3, #6
    9686:	5cfb      	ldrb	r3, [r7, r3]
    9688:	469b      	mov	fp, r3
    968a:	2326      	movs	r3, #38	; 0x26
    968c:	56fd      	ldrsb	r5, [r7, r3]
    968e:	2328      	movs	r3, #40	; 0x28
    9690:	5efc      	ldrsh	r4, [r7, r3]
    9692:	1223      	asrs	r3, r4, #8
    9694:	9303      	str	r3, [sp, #12]
    9696:	b25b      	sxtb	r3, r3
    9698:	001c      	movs	r4, r3
    969a:	e7dc      	b.n	9656 <tetrisTask+0x104a>
    969c:	79bb      	ldrb	r3, [r7, #6]
    969e:	07db      	lsls	r3, r3, #31
    96a0:	d52c      	bpl.n	96fc <tetrisTask+0x10f0>
    96a2:	4656      	mov	r6, sl
    96a4:	464d      	mov	r5, r9
    96a6:	2330      	movs	r3, #48	; 0x30
    96a8:	2201      	movs	r2, #1
    96aa:	54fa      	strb	r2, [r7, r3]
    96ac:	3301      	adds	r3, #1
    96ae:	5cfb      	ldrb	r3, [r7, r3]
    96b0:	4698      	mov	r8, r3
    96b2:	e5f5      	b.n	92a0 <tetrisTask+0xc94>
    96b4:	793b      	ldrb	r3, [r7, #4]
    96b6:	4c5d      	ldr	r4, [pc, #372]	; (982c <tetrisTask+0x1220>)
    96b8:	3301      	adds	r3, #1
    96ba:	b2db      	uxtb	r3, r3
    96bc:	4a63      	ldr	r2, [pc, #396]	; (984c <tetrisTask+0x1240>)
    96be:	2128      	movs	r1, #40	; 0x28
    96c0:	0020      	movs	r0, r4
    96c2:	4d5c      	ldr	r5, [pc, #368]	; (9834 <tetrisTask+0x1228>)
    96c4:	713b      	strb	r3, [r7, #4]
    96c6:	47a8      	blx	r5
    96c8:	2300      	movs	r3, #0
    96ca:	2201      	movs	r2, #1
    96cc:	9301      	str	r3, [sp, #4]
    96ce:	3301      	adds	r3, #1
    96d0:	9300      	str	r3, [sp, #0]
    96d2:	0021      	movs	r1, r4
    96d4:	2000      	movs	r0, #0
    96d6:	4c59      	ldr	r4, [pc, #356]	; (983c <tetrisTask+0x1230>)
    96d8:	47a0      	blx	r4
    96da:	2324      	movs	r3, #36	; 0x24
    96dc:	5cfb      	ldrb	r3, [r7, r3]
    96de:	469b      	mov	fp, r3
    96e0:	232a      	movs	r3, #42	; 0x2a
    96e2:	5cfe      	ldrb	r6, [r7, r3]
    96e4:	3b04      	subs	r3, #4
    96e6:	56fd      	ldrsb	r5, [r7, r3]
    96e8:	2328      	movs	r3, #40	; 0x28
    96ea:	5efc      	ldrsh	r4, [r7, r3]
    96ec:	1223      	asrs	r3, r4, #8
    96ee:	9303      	str	r3, [sp, #12]
    96f0:	b25b      	sxtb	r3, r3
    96f2:	001c      	movs	r4, r3
    96f4:	2331      	movs	r3, #49	; 0x31
    96f6:	5cfb      	ldrb	r3, [r7, r3]
    96f8:	4698      	mov	r8, r3
    96fa:	e5d1      	b.n	92a0 <tetrisTask+0xc94>
    96fc:	2380      	movs	r3, #128	; 0x80
    96fe:	4c52      	ldr	r4, [pc, #328]	; (9848 <tetrisTask+0x123c>)
    9700:	025b      	lsls	r3, r3, #9
    9702:	2201      	movs	r2, #1
    9704:	21ff      	movs	r1, #255	; 0xff
    9706:	2004      	movs	r0, #4
    9708:	47a0      	blx	r4
    970a:	2326      	movs	r3, #38	; 0x26
    970c:	56fd      	ldrsb	r5, [r7, r3]
    970e:	3b02      	subs	r3, #2
    9710:	5cfb      	ldrb	r3, [r7, r3]
    9712:	469b      	mov	fp, r3
    9714:	232a      	movs	r3, #42	; 0x2a
    9716:	5cfe      	ldrb	r6, [r7, r3]
    9718:	2328      	movs	r3, #40	; 0x28
    971a:	5efc      	ldrsh	r4, [r7, r3]
    971c:	1223      	asrs	r3, r4, #8
    971e:	9303      	str	r3, [sp, #12]
    9720:	b25b      	sxtb	r3, r3
    9722:	001c      	movs	r4, r3
    9724:	e7bf      	b.n	96a6 <tetrisTask+0x109a>
    9726:	7bbb      	ldrb	r3, [r7, #14]
    9728:	4698      	mov	r8, r3
    972a:	f7ff f8f9 	bl	8920 <tetrisTask+0x314>
    972e:	2380      	movs	r3, #128	; 0x80
    9730:	2201      	movs	r2, #1
    9732:	025b      	lsls	r3, r3, #9
    9734:	21ff      	movs	r1, #255	; 0xff
    9736:	2006      	movs	r0, #6
    9738:	4c43      	ldr	r4, [pc, #268]	; (9848 <tetrisTask+0x123c>)
    973a:	47a0      	blx	r4
    973c:	e482      	b.n	9044 <tetrisTask+0xa38>
    973e:	4653      	mov	r3, sl
    9740:	3b01      	subs	r3, #1
    9742:	e604      	b.n	934e <tetrisTask+0xd42>
    9744:	2231      	movs	r2, #49	; 0x31
    9746:	2301      	movs	r3, #1
    9748:	5cb9      	ldrb	r1, [r7, r2]
    974a:	464d      	mov	r5, r9
    974c:	1a5b      	subs	r3, r3, r1
    974e:	b2db      	uxtb	r3, r3
    9750:	4698      	mov	r8, r3
    9752:	54bb      	strb	r3, [r7, r2]
    9754:	4656      	mov	r6, sl
    9756:	e5a3      	b.n	92a0 <tetrisTask+0xc94>
    9758:	79bb      	ldrb	r3, [r7, #6]
    975a:	07db      	lsls	r3, r3, #31
    975c:	d522      	bpl.n	97a4 <tetrisTask+0x1198>
    975e:	464d      	mov	r5, r9
    9760:	4656      	mov	r6, sl
    9762:	2303      	movs	r3, #3
    9764:	703b      	strb	r3, [r7, #0]
    9766:	332e      	adds	r3, #46	; 0x2e
    9768:	5cfb      	ldrb	r3, [r7, r3]
    976a:	4698      	mov	r8, r3
    976c:	e598      	b.n	92a0 <tetrisTask+0xc94>
    976e:	79bb      	ldrb	r3, [r7, #6]
    9770:	4656      	mov	r6, sl
    9772:	07db      	lsls	r3, r3, #31
    9774:	d56c      	bpl.n	9850 <tetrisTask+0x1244>
    9776:	2326      	movs	r3, #38	; 0x26
    9778:	5cfd      	ldrb	r5, [r7, r3]
    977a:	3501      	adds	r5, #1
    977c:	b26d      	sxtb	r5, r5
    977e:	54fd      	strb	r5, [r7, r3]
    9780:	330b      	adds	r3, #11
    9782:	5cfb      	ldrb	r3, [r7, r3]
    9784:	4698      	mov	r8, r3
    9786:	e58b      	b.n	92a0 <tetrisTask+0xc94>
    9788:	464b      	mov	r3, r9
    978a:	1e5d      	subs	r5, r3, #1
    978c:	2326      	movs	r3, #38	; 0x26
    978e:	b26d      	sxtb	r5, r5
    9790:	54fd      	strb	r5, [r7, r3]
    9792:	4698      	mov	r8, r3
    9794:	79bb      	ldrb	r3, [r7, #6]
    9796:	07db      	lsls	r3, r3, #31
    9798:	d56d      	bpl.n	9876 <tetrisTask+0x126a>
    979a:	2331      	movs	r3, #49	; 0x31
    979c:	5cfb      	ldrb	r3, [r7, r3]
    979e:	4656      	mov	r6, sl
    97a0:	4698      	mov	r8, r3
    97a2:	e57d      	b.n	92a0 <tetrisTask+0xc94>
    97a4:	2380      	movs	r3, #128	; 0x80
    97a6:	4c28      	ldr	r4, [pc, #160]	; (9848 <tetrisTask+0x123c>)
    97a8:	025b      	lsls	r3, r3, #9
    97aa:	2201      	movs	r2, #1
    97ac:	21ff      	movs	r1, #255	; 0xff
    97ae:	2009      	movs	r0, #9
    97b0:	47a0      	blx	r4
    97b2:	2324      	movs	r3, #36	; 0x24
    97b4:	5cfb      	ldrb	r3, [r7, r3]
    97b6:	469b      	mov	fp, r3
    97b8:	232a      	movs	r3, #42	; 0x2a
    97ba:	5cfe      	ldrb	r6, [r7, r3]
    97bc:	3b04      	subs	r3, #4
    97be:	56fd      	ldrsb	r5, [r7, r3]
    97c0:	2328      	movs	r3, #40	; 0x28
    97c2:	5efc      	ldrsh	r4, [r7, r3]
    97c4:	1223      	asrs	r3, r4, #8
    97c6:	9303      	str	r3, [sp, #12]
    97c8:	b25b      	sxtb	r3, r3
    97ca:	001c      	movs	r4, r3
    97cc:	e7c9      	b.n	9762 <tetrisTask+0x1156>
    97ce:	46c0      	nop			; (mov r8, r8)
    97d0:	0001e1e0 	.word	0x0001e1e0
    97d4:	0001ddc0 	.word	0x0001ddc0
    97d8:	ffffe200 	.word	0xffffe200
    97dc:	20002940 	.word	0x20002940
    97e0:	200068e0 	.word	0x200068e0
    97e4:	0000bd5d 	.word	0x0000bd5d
    97e8:	20002990 	.word	0x20002990
    97ec:	20006908 	.word	0x20006908
    97f0:	00001ef0 	.word	0x00001ef0
    97f4:	200029e0 	.word	0x200029e0
    97f8:	20006930 	.word	0x20006930
    97fc:	20002a30 	.word	0x20002a30
    9800:	20006958 	.word	0x20006958
    9804:	00001f90 	.word	0x00001f90
    9808:	20002a80 	.word	0x20002a80
    980c:	20006980 	.word	0x20006980
    9810:	20002ad0 	.word	0x20002ad0
    9814:	200069a8 	.word	0x200069a8
    9818:	00002030 	.word	0x00002030
    981c:	20002b20 	.word	0x20002b20
    9820:	200069d0 	.word	0x200069d0
    9824:	20002b70 	.word	0x20002b70
    9828:	200069f8 	.word	0x200069f8
    982c:	2000065c 	.word	0x2000065c
    9830:	0001dd58 	.word	0x0001dd58
    9834:	0000b069 	.word	0x0000b069
    9838:	0000be05 	.word	0x0000be05
    983c:	0000b765 	.word	0x0000b765
    9840:	000129b0 	.word	0x000129b0
    9844:	00009d69 	.word	0x00009d69
    9848:	0000a559 	.word	0x0000a559
    984c:	0001dbbc 	.word	0x0001dbbc
    9850:	2380      	movs	r3, #128	; 0x80
    9852:	4c22      	ldr	r4, [pc, #136]	; (98dc <tetrisTask+0x12d0>)
    9854:	025b      	lsls	r3, r3, #9
    9856:	2201      	movs	r2, #1
    9858:	21ff      	movs	r1, #255	; 0xff
    985a:	2004      	movs	r0, #4
    985c:	47a0      	blx	r4
    985e:	2324      	movs	r3, #36	; 0x24
    9860:	5cfb      	ldrb	r3, [r7, r3]
    9862:	469b      	mov	fp, r3
    9864:	232a      	movs	r3, #42	; 0x2a
    9866:	5cfe      	ldrb	r6, [r7, r3]
    9868:	2328      	movs	r3, #40	; 0x28
    986a:	5efc      	ldrsh	r4, [r7, r3]
    986c:	1223      	asrs	r3, r4, #8
    986e:	9303      	str	r3, [sp, #12]
    9870:	b25b      	sxtb	r3, r3
    9872:	001c      	movs	r4, r3
    9874:	e77f      	b.n	9776 <tetrisTask+0x116a>
    9876:	2380      	movs	r3, #128	; 0x80
    9878:	2201      	movs	r2, #1
    987a:	025b      	lsls	r3, r3, #9
    987c:	21ff      	movs	r1, #255	; 0xff
    987e:	2004      	movs	r0, #4
    9880:	4c16      	ldr	r4, [pc, #88]	; (98dc <tetrisTask+0x12d0>)
    9882:	47a0      	blx	r4
    9884:	2324      	movs	r3, #36	; 0x24
    9886:	5cfb      	ldrb	r3, [r7, r3]
    9888:	469b      	mov	fp, r3
    988a:	232a      	movs	r3, #42	; 0x2a
    988c:	5cfe      	ldrb	r6, [r7, r3]
    988e:	4643      	mov	r3, r8
    9890:	e729      	b.n	96e6 <tetrisTask+0x10da>
    9892:	7bfb      	ldrb	r3, [r7, #15]
    9894:	2b00      	cmp	r3, #0
    9896:	d100      	bne.n	989a <tetrisTask+0x128e>
    9898:	e4fd      	b.n	9296 <tetrisTask+0xc8a>
    989a:	3b01      	subs	r3, #1
    989c:	4c10      	ldr	r4, [pc, #64]	; (98e0 <tetrisTask+0x12d4>)
    989e:	b2db      	uxtb	r3, r3
    98a0:	4a10      	ldr	r2, [pc, #64]	; (98e4 <tetrisTask+0x12d8>)
    98a2:	2128      	movs	r1, #40	; 0x28
    98a4:	0020      	movs	r0, r4
    98a6:	4d10      	ldr	r5, [pc, #64]	; (98e8 <tetrisTask+0x12dc>)
    98a8:	73fb      	strb	r3, [r7, #15]
    98aa:	47a8      	blx	r5
    98ac:	2300      	movs	r3, #0
    98ae:	9301      	str	r3, [sp, #4]
    98b0:	3301      	adds	r3, #1
    98b2:	9300      	str	r3, [sp, #0]
    98b4:	2215      	movs	r2, #21
    98b6:	3303      	adds	r3, #3
    98b8:	e70b      	b.n	96d2 <tetrisTask+0x10c6>
    98ba:	7bfb      	ldrb	r3, [r7, #15]
    98bc:	2b05      	cmp	r3, #5
    98be:	d900      	bls.n	98c2 <tetrisTask+0x12b6>
    98c0:	e4e9      	b.n	9296 <tetrisTask+0xc8a>
    98c2:	3301      	adds	r3, #1
    98c4:	e7ea      	b.n	989c <tetrisTask+0x1290>
    98c6:	3306      	adds	r3, #6
    98c8:	703b      	strb	r3, [r7, #0]
    98ca:	3b04      	subs	r3, #4
    98cc:	763b      	strb	r3, [r7, #24]
    98ce:	79bb      	ldrb	r3, [r7, #6]
    98d0:	07db      	lsls	r3, r3, #31
    98d2:	d501      	bpl.n	98d8 <tetrisTask+0x12cc>
    98d4:	f7fe fefa 	bl	86cc <tetrisTask+0xc0>
    98d8:	f7ff fb4e 	bl	8f78 <tetrisTask+0x96c>
    98dc:	0000a559 	.word	0x0000a559
    98e0:	2000065c 	.word	0x2000065c
    98e4:	0001db94 	.word	0x0001db94
    98e8:	0000b069 	.word	0x0000b069

000098ec <patchCommand00>:
    98ec:	7481      	strb	r1, [r0, #18]
    98ee:	4770      	bx	lr

000098f0 <patchCommand01>:
    98f0:	4770      	bx	lr
    98f2:	46c0      	nop			; (mov r8, r8)

000098f4 <patchCommand05>:
    98f4:	235f      	movs	r3, #95	; 0x5f
    98f6:	7802      	ldrb	r2, [r0, #0]
    98f8:	4013      	ands	r3, r2
    98fa:	7003      	strb	r3, [r0, #0]
    98fc:	4770      	bx	lr
    98fe:	46c0      	nop			; (mov r8, r8)

00009900 <patchCommand06>:
    9900:	2240      	movs	r2, #64	; 0x40
    9902:	7803      	ldrb	r3, [r0, #0]
    9904:	4313      	orrs	r3, r2
    9906:	7003      	strb	r3, [r0, #0]
    9908:	4770      	bx	lr
    990a:	46c0      	nop			; (mov r8, r8)

0000990c <patchCommand07>:
    990c:	7441      	strb	r1, [r0, #17]
    990e:	4770      	bx	lr

00009910 <patchCommand09>:
    9910:	7341      	strb	r1, [r0, #13]
    9912:	4770      	bx	lr

00009914 <patchCommand10>:
    9914:	7381      	strb	r1, [r0, #14]
    9916:	4770      	bx	lr

00009918 <patchCommand11>:
    9918:	b5f8      	push	{r3, r4, r5, r6, r7, lr}
    991a:	46ce      	mov	lr, r9
    991c:	4647      	mov	r7, r8
    991e:	0004      	movs	r4, r0
    9920:	b580      	push	{r7, lr}
    9922:	8843      	ldrh	r3, [r0, #2]
    9924:	4a1c      	ldr	r2, [pc, #112]	; (9998 <patchCommand11+0x80>)
    9926:	18cd      	adds	r5, r1, r3
    9928:	0069      	lsls	r1, r5, #1
    992a:	005b      	lsls	r3, r3, #1
    992c:	5e88      	ldrsh	r0, [r1, r2]
    992e:	5e9b      	ldrsh	r3, [r3, r2]
    9930:	7ae1      	ldrb	r1, [r4, #11]
    9932:	1ac0      	subs	r0, r0, r3
    9934:	4b19      	ldr	r3, [pc, #100]	; (999c <patchCommand11+0x84>)
    9936:	4798      	blx	r3
    9938:	b201      	sxth	r1, r0
    993a:	2900      	cmp	r1, #0
    993c:	d101      	bne.n	9942 <patchCommand11+0x2a>
    993e:	3001      	adds	r0, #1
    9940:	b201      	sxth	r1, r0
    9942:	7923      	ldrb	r3, [r4, #4]
    9944:	469c      	mov	ip, r3
    9946:	4b16      	ldr	r3, [pc, #88]	; (99a0 <patchCommand11+0x88>)
    9948:	4699      	mov	r9, r3
    994a:	4663      	mov	r3, ip
    994c:	005e      	lsls	r6, r3, #1
    994e:	18f3      	adds	r3, r6, r3
    9950:	00db      	lsls	r3, r3, #3
    9952:	444b      	add	r3, r9
    9954:	691a      	ldr	r2, [r3, #16]
    9956:	1888      	adds	r0, r1, r2
    9958:	6118      	str	r0, [r3, #16]
    995a:	7823      	ldrb	r3, [r4, #0]
    995c:	b25a      	sxtb	r2, r3
    995e:	2a00      	cmp	r2, #0
    9960:	db17      	blt.n	9992 <patchCommand11+0x7a>
    9962:	7ce2      	ldrb	r2, [r4, #19]
    9964:	0112      	lsls	r2, r2, #4
    9966:	4690      	mov	r8, r2
    9968:	4a0e      	ldr	r2, [pc, #56]	; (99a4 <patchCommand11+0x8c>)
    996a:	6812      	ldr	r2, [r2, #0]
    996c:	4442      	add	r2, r8
    996e:	6897      	ldr	r7, [r2, #8]
    9970:	68d2      	ldr	r2, [r2, #12]
    9972:	3701      	adds	r7, #1
    9974:	42ba      	cmp	r2, r7
    9976:	d803      	bhi.n	9980 <patchCommand11+0x68>
    9978:	4466      	add	r6, ip
    997a:	00f6      	lsls	r6, r6, #3
    997c:	444e      	add	r6, r9
    997e:	60f0      	str	r0, [r6, #12]
    9980:	2208      	movs	r2, #8
    9982:	4313      	orrs	r3, r2
    9984:	72a5      	strb	r5, [r4, #10]
    9986:	8121      	strh	r1, [r4, #8]
    9988:	7023      	strb	r3, [r4, #0]
    998a:	bc0c      	pop	{r2, r3}
    998c:	4690      	mov	r8, r2
    998e:	4699      	mov	r9, r3
    9990:	bdf8      	pop	{r3, r4, r5, r6, r7, pc}
    9992:	7d22      	ldrb	r2, [r4, #20]
    9994:	e7e6      	b.n	9964 <patchCommand11+0x4c>
    9996:	46c0      	nop			; (mov r8, r8)
    9998:	0001f38c 	.word	0x0001f38c
    999c:	0000ba99 	.word	0x0000ba99
    99a0:	2000080c 	.word	0x2000080c
    99a4:	200007f4 	.word	0x200007f4

000099a8 <patchCommand12>:
    99a8:	72c1      	strb	r1, [r0, #11]
    99aa:	4770      	bx	lr

000099ac <patchCommand13>:
    99ac:	7181      	strb	r1, [r0, #6]
    99ae:	4770      	bx	lr

000099b0 <patchCommand14>:
    99b0:	b510      	push	{r4, lr}
    99b2:	7984      	ldrb	r4, [r0, #6]
    99b4:	2c00      	cmp	r4, #0
    99b6:	d00e      	beq.n	99d6 <patchCommand14+0x26>
    99b8:	69c3      	ldr	r3, [r0, #28]
    99ba:	2900      	cmp	r1, #0
    99bc:	d10c      	bne.n	99d8 <patchCommand14+0x28>
    99be:	3b05      	subs	r3, #5
    99c0:	e002      	b.n	99c8 <patchCommand14+0x18>
    99c2:	3b03      	subs	r3, #3
    99c4:	2aff      	cmp	r2, #255	; 0xff
    99c6:	d00c      	beq.n	99e2 <patchCommand14+0x32>
    99c8:	1c9a      	adds	r2, r3, #2
    99ca:	61c2      	str	r2, [r0, #28]
    99cc:	781a      	ldrb	r2, [r3, #0]
    99ce:	2a0d      	cmp	r2, #13
    99d0:	d1f7      	bne.n	99c2 <patchCommand14+0x12>
    99d2:	3c01      	subs	r4, #1
    99d4:	7184      	strb	r4, [r0, #6]
    99d6:	bd10      	pop	{r4, pc}
    99d8:	3101      	adds	r1, #1
    99da:	004a      	lsls	r2, r1, #1
    99dc:	1851      	adds	r1, r2, r1
    99de:	1a5b      	subs	r3, r3, r1
    99e0:	61c3      	str	r3, [r0, #28]
    99e2:	3c01      	subs	r4, #1
    99e4:	7184      	strb	r4, [r0, #6]
    99e6:	e7f6      	b.n	99d6 <patchCommand14+0x26>

000099e8 <patchCommand15>:
    99e8:	b570      	push	{r4, r5, r6, lr}
    99ea:	7905      	ldrb	r5, [r0, #4]
    99ec:	7883      	ldrb	r3, [r0, #2]
    99ee:	4a10      	ldr	r2, [pc, #64]	; (9a30 <patchCommand15+0x48>)
    99f0:	005b      	lsls	r3, r3, #1
    99f2:	0069      	lsls	r1, r5, #1
    99f4:	5a9e      	ldrh	r6, [r3, r2]
    99f6:	4c0f      	ldr	r4, [pc, #60]	; (9a34 <patchCommand15+0x4c>)
    99f8:	194a      	adds	r2, r1, r5
    99fa:	00d2      	lsls	r2, r2, #3
    99fc:	18a2      	adds	r2, r4, r2
    99fe:	6893      	ldr	r3, [r2, #8]
    9a00:	0a1b      	lsrs	r3, r3, #8
    9a02:	4373      	muls	r3, r6
    9a04:	0a1b      	lsrs	r3, r3, #8
    9a06:	6113      	str	r3, [r2, #16]
    9a08:	7802      	ldrb	r2, [r0, #0]
    9a0a:	2a7f      	cmp	r2, #127	; 0x7f
    9a0c:	d80e      	bhi.n	9a2c <patchCommand15+0x44>
    9a0e:	7cc0      	ldrb	r0, [r0, #19]
    9a10:	4a09      	ldr	r2, [pc, #36]	; (9a38 <patchCommand15+0x50>)
    9a12:	0100      	lsls	r0, r0, #4
    9a14:	6812      	ldr	r2, [r2, #0]
    9a16:	1812      	adds	r2, r2, r0
    9a18:	6890      	ldr	r0, [r2, #8]
    9a1a:	68d2      	ldr	r2, [r2, #12]
    9a1c:	3001      	adds	r0, #1
    9a1e:	4282      	cmp	r2, r0
    9a20:	d803      	bhi.n	9a2a <patchCommand15+0x42>
    9a22:	1949      	adds	r1, r1, r5
    9a24:	00c9      	lsls	r1, r1, #3
    9a26:	1861      	adds	r1, r4, r1
    9a28:	60cb      	str	r3, [r1, #12]
    9a2a:	bd70      	pop	{r4, r5, r6, pc}
    9a2c:	7d00      	ldrb	r0, [r0, #20]
    9a2e:	e7ef      	b.n	9a10 <patchCommand15+0x28>
    9a30:	0001f38c 	.word	0x0001f38c
    9a34:	2000080c 	.word	0x2000080c
    9a38:	200007f4 	.word	0x200007f4

00009a3c <patchCommand16>:
    9a3c:	7803      	ldrb	r3, [r0, #0]
    9a3e:	b570      	push	{r4, r5, r6, lr}
    9a40:	2b7f      	cmp	r3, #127	; 0x7f
    9a42:	d81e      	bhi.n	9a82 <patchCommand16+0x46>
    9a44:	7cc4      	ldrb	r4, [r0, #19]
    9a46:	4b10      	ldr	r3, [pc, #64]	; (9a88 <patchCommand16+0x4c>)
    9a48:	0124      	lsls	r4, r4, #4
    9a4a:	681b      	ldr	r3, [r3, #0]
    9a4c:	7905      	ldrb	r5, [r0, #4]
    9a4e:	191c      	adds	r4, r3, r4
    9a50:	2302      	movs	r3, #2
    9a52:	5ee2      	ldrsh	r2, [r4, r3]
    9a54:	490d      	ldr	r1, [pc, #52]	; (9a8c <patchCommand16+0x50>)
    9a56:	0053      	lsls	r3, r2, #1
    9a58:	189b      	adds	r3, r3, r2
    9a5a:	4a0d      	ldr	r2, [pc, #52]	; (9a90 <patchCommand16+0x54>)
    9a5c:	009b      	lsls	r3, r3, #2
    9a5e:	18d3      	adds	r3, r2, r3
    9a60:	8918      	ldrh	r0, [r3, #8]
    9a62:	4b0c      	ldr	r3, [pc, #48]	; (9a94 <patchCommand16+0x58>)
    9a64:	0200      	lsls	r0, r0, #8
    9a66:	4798      	blx	r3
    9a68:	006b      	lsls	r3, r5, #1
    9a6a:	4a0b      	ldr	r2, [pc, #44]	; (9a98 <patchCommand16+0x5c>)
    9a6c:	195b      	adds	r3, r3, r5
    9a6e:	00db      	lsls	r3, r3, #3
    9a70:	18d3      	adds	r3, r2, r3
    9a72:	68a2      	ldr	r2, [r4, #8]
    9a74:	68e1      	ldr	r1, [r4, #12]
    9a76:	3201      	adds	r2, #1
    9a78:	6118      	str	r0, [r3, #16]
    9a7a:	4291      	cmp	r1, r2
    9a7c:	d800      	bhi.n	9a80 <patchCommand16+0x44>
    9a7e:	60d8      	str	r0, [r3, #12]
    9a80:	bd70      	pop	{r4, r5, r6, pc}
    9a82:	7d04      	ldrb	r4, [r0, #20]
    9a84:	e7df      	b.n	9a46 <patchCommand16+0xa>
    9a86:	46c0      	nop			; (mov r8, r8)
    9a88:	200007f4 	.word	0x200007f4
    9a8c:	00007530 	.word	0x00007530
    9a90:	0001d7b8 	.word	0x0001d7b8
    9a94:	0000ba99 	.word	0x0000ba99
    9a98:	2000080c 	.word	0x2000080c

00009a9c <patchCommand17>:
    9a9c:	4770      	bx	lr
    9a9e:	46c0      	nop			; (mov r8, r8)

00009aa0 <patchCommand02>:
    9aa0:	b570      	push	{r4, r5, r6, lr}
    9aa2:	000e      	movs	r6, r1
    9aa4:	4d10      	ldr	r5, [pc, #64]	; (9ae8 <patchCommand02+0x48>)
    9aa6:	7904      	ldrb	r4, [r0, #4]
    9aa8:	47a8      	blx	r5
    9aaa:	b2f1      	uxtb	r1, r6
    9aac:	4288      	cmp	r0, r1
    9aae:	dd17      	ble.n	9ae0 <patchCommand02+0x40>
    9ab0:	1c22      	adds	r2, r4, #0
    9ab2:	2c03      	cmp	r4, #3
    9ab4:	d900      	bls.n	9ab8 <patchCommand02+0x18>
    9ab6:	2203      	movs	r2, #3
    9ab8:	b2d2      	uxtb	r2, r2
    9aba:	0053      	lsls	r3, r2, #1
    9abc:	189a      	adds	r2, r3, r2
    9abe:	4b0b      	ldr	r3, [pc, #44]	; (9aec <patchCommand02+0x4c>)
    9ac0:	00d2      	lsls	r2, r2, #3
    9ac2:	189b      	adds	r3, r3, r2
    9ac4:	2200      	movs	r2, #0
    9ac6:	0048      	lsls	r0, r1, #1
    9ac8:	619a      	str	r2, [r3, #24]
    9aca:	1841      	adds	r1, r0, r1
    9acc:	4a08      	ldr	r2, [pc, #32]	; (9af0 <patchCommand02+0x50>)
    9ace:	0089      	lsls	r1, r1, #2
    9ad0:	1850      	adds	r0, r2, r1
    9ad2:	5852      	ldr	r2, [r2, r1]
    9ad4:	6840      	ldr	r0, [r0, #4]
    9ad6:	0212      	lsls	r2, r2, #8
    9ad8:	6058      	str	r0, [r3, #4]
    9ada:	609a      	str	r2, [r3, #8]
    9adc:	60da      	str	r2, [r3, #12]
    9ade:	bd70      	pop	{r4, r5, r6, pc}
    9ae0:	47a8      	blx	r5
    9ae2:	3801      	subs	r0, #1
    9ae4:	b2c1      	uxtb	r1, r0
    9ae6:	e7e3      	b.n	9ab0 <patchCommand02+0x10>
    9ae8:	000063d1 	.word	0x000063d1
    9aec:	2000080c 	.word	0x2000080c
    9af0:	0001d7b8 	.word	0x0001d7b8

00009af4 <patchCommand03>:
    9af4:	b510      	push	{r4, lr}
    9af6:	8843      	ldrh	r3, [r0, #2]
    9af8:	7902      	ldrb	r2, [r0, #4]
    9afa:	1859      	adds	r1, r3, r1
    9afc:	b289      	uxth	r1, r1
    9afe:	8041      	strh	r1, [r0, #2]
    9b00:	1c13      	adds	r3, r2, #0
    9b02:	b2c9      	uxtb	r1, r1
    9b04:	2a03      	cmp	r2, #3
    9b06:	d900      	bls.n	9b0a <patchCommand03+0x16>
    9b08:	2303      	movs	r3, #3
    9b0a:	b2db      	uxtb	r3, r3
    9b0c:	005a      	lsls	r2, r3, #1
    9b0e:	4814      	ldr	r0, [pc, #80]	; (9b60 <patchCommand03+0x6c>)
    9b10:	18d2      	adds	r2, r2, r3
    9b12:	00d2      	lsls	r2, r2, #3
    9b14:	1882      	adds	r2, r0, r2
    9b16:	2980      	cmp	r1, #128	; 0x80
    9b18:	d01f      	beq.n	9b5a <patchCommand03+0x66>
    9b1a:	4c12      	ldr	r4, [pc, #72]	; (9b64 <patchCommand03+0x70>)
    9b1c:	0049      	lsls	r1, r1, #1
    9b1e:	5b09      	ldrh	r1, [r1, r4]
    9b20:	6111      	str	r1, [r2, #16]
    9b22:	4911      	ldr	r1, [pc, #68]	; (9b68 <patchCommand03+0x74>)
    9b24:	015b      	lsls	r3, r3, #5
    9b26:	5cca      	ldrb	r2, [r1, r3]
    9b28:	2a7f      	cmp	r2, #127	; 0x7f
    9b2a:	d813      	bhi.n	9b54 <patchCommand03+0x60>
    9b2c:	18ca      	adds	r2, r1, r3
    9b2e:	7cd4      	ldrb	r4, [r2, #19]
    9b30:	4a0e      	ldr	r2, [pc, #56]	; (9b6c <patchCommand03+0x78>)
    9b32:	0124      	lsls	r4, r4, #4
    9b34:	6812      	ldr	r2, [r2, #0]
    9b36:	1912      	adds	r2, r2, r4
    9b38:	6894      	ldr	r4, [r2, #8]
    9b3a:	68d2      	ldr	r2, [r2, #12]
    9b3c:	3401      	adds	r4, #1
    9b3e:	42a2      	cmp	r2, r4
    9b40:	d807      	bhi.n	9b52 <patchCommand03+0x5e>
    9b42:	18cb      	adds	r3, r1, r3
    9b44:	791a      	ldrb	r2, [r3, #4]
    9b46:	0053      	lsls	r3, r2, #1
    9b48:	189b      	adds	r3, r3, r2
    9b4a:	00db      	lsls	r3, r3, #3
    9b4c:	18c0      	adds	r0, r0, r3
    9b4e:	6903      	ldr	r3, [r0, #16]
    9b50:	60c3      	str	r3, [r0, #12]
    9b52:	bd10      	pop	{r4, pc}
    9b54:	18ca      	adds	r2, r1, r3
    9b56:	7d14      	ldrb	r4, [r2, #20]
    9b58:	e7ea      	b.n	9b30 <patchCommand03+0x3c>
    9b5a:	3180      	adds	r1, #128	; 0x80
    9b5c:	6111      	str	r1, [r2, #16]
    9b5e:	e7e0      	b.n	9b22 <patchCommand03+0x2e>
    9b60:	2000080c 	.word	0x2000080c
    9b64:	0001f38c 	.word	0x0001f38c
    9b68:	20000770 	.word	0x20000770
    9b6c:	200007f4 	.word	0x200007f4

00009b70 <patchCommand04>:
    9b70:	b510      	push	{r4, lr}
    9b72:	8843      	ldrh	r3, [r0, #2]
    9b74:	7902      	ldrb	r2, [r0, #4]
    9b76:	1a59      	subs	r1, r3, r1
    9b78:	b289      	uxth	r1, r1
    9b7a:	8041      	strh	r1, [r0, #2]
    9b7c:	1c13      	adds	r3, r2, #0
    9b7e:	b2c9      	uxtb	r1, r1
    9b80:	2a03      	cmp	r2, #3
    9b82:	d900      	bls.n	9b86 <patchCommand04+0x16>
    9b84:	2303      	movs	r3, #3
    9b86:	b2db      	uxtb	r3, r3
    9b88:	005a      	lsls	r2, r3, #1
    9b8a:	4814      	ldr	r0, [pc, #80]	; (9bdc <patchCommand04+0x6c>)
    9b8c:	18d2      	adds	r2, r2, r3
    9b8e:	00d2      	lsls	r2, r2, #3
    9b90:	1882      	adds	r2, r0, r2
    9b92:	2980      	cmp	r1, #128	; 0x80
    9b94:	d01f      	beq.n	9bd6 <patchCommand04+0x66>
    9b96:	4c12      	ldr	r4, [pc, #72]	; (9be0 <patchCommand04+0x70>)
    9b98:	0049      	lsls	r1, r1, #1
    9b9a:	5b09      	ldrh	r1, [r1, r4]
    9b9c:	6111      	str	r1, [r2, #16]
    9b9e:	4911      	ldr	r1, [pc, #68]	; (9be4 <patchCommand04+0x74>)
    9ba0:	015b      	lsls	r3, r3, #5
    9ba2:	5cca      	ldrb	r2, [r1, r3]
    9ba4:	2a7f      	cmp	r2, #127	; 0x7f
    9ba6:	d813      	bhi.n	9bd0 <patchCommand04+0x60>
    9ba8:	18ca      	adds	r2, r1, r3
    9baa:	7cd4      	ldrb	r4, [r2, #19]
    9bac:	4a0e      	ldr	r2, [pc, #56]	; (9be8 <patchCommand04+0x78>)
    9bae:	0124      	lsls	r4, r4, #4
    9bb0:	6812      	ldr	r2, [r2, #0]
    9bb2:	1912      	adds	r2, r2, r4
    9bb4:	6894      	ldr	r4, [r2, #8]
    9bb6:	68d2      	ldr	r2, [r2, #12]
    9bb8:	3401      	adds	r4, #1
    9bba:	42a2      	cmp	r2, r4
    9bbc:	d807      	bhi.n	9bce <patchCommand04+0x5e>
    9bbe:	18cb      	adds	r3, r1, r3
    9bc0:	791a      	ldrb	r2, [r3, #4]
    9bc2:	0053      	lsls	r3, r2, #1
    9bc4:	189b      	adds	r3, r3, r2
    9bc6:	00db      	lsls	r3, r3, #3
    9bc8:	18c0      	adds	r0, r0, r3
    9bca:	6903      	ldr	r3, [r0, #16]
    9bcc:	60c3      	str	r3, [r0, #12]
    9bce:	bd10      	pop	{r4, pc}
    9bd0:	18ca      	adds	r2, r1, r3
    9bd2:	7d14      	ldrb	r4, [r2, #20]
    9bd4:	e7ea      	b.n	9bac <patchCommand04+0x3c>
    9bd6:	3180      	adds	r1, #128	; 0x80
    9bd8:	6111      	str	r1, [r2, #16]
    9bda:	e7e0      	b.n	9b9e <patchCommand04+0x2e>
    9bdc:	2000080c 	.word	0x2000080c
    9be0:	0001f38c 	.word	0x0001f38c
    9be4:	20000770 	.word	0x20000770
    9be8:	200007f4 	.word	0x200007f4

00009bec <patchCommand08>:
    9bec:	7902      	ldrb	r2, [r0, #4]
    9bee:	b570      	push	{r4, r5, r6, lr}
    9bf0:	1c13      	adds	r3, r2, #0
    9bf2:	b2cc      	uxtb	r4, r1
    9bf4:	2a03      	cmp	r2, #3
    9bf6:	d900      	bls.n	9bfa <patchCommand08+0xe>
    9bf8:	2303      	movs	r3, #3
    9bfa:	b2db      	uxtb	r3, r3
    9bfc:	005a      	lsls	r2, r3, #1
    9bfe:	4d17      	ldr	r5, [pc, #92]	; (9c5c <patchCommand08+0x70>)
    9c00:	18d2      	adds	r2, r2, r3
    9c02:	00d2      	lsls	r2, r2, #3
    9c04:	18aa      	adds	r2, r5, r2
    9c06:	2c80      	cmp	r4, #128	; 0x80
    9c08:	d024      	beq.n	9c54 <patchCommand08+0x68>
    9c0a:	4e15      	ldr	r6, [pc, #84]	; (9c60 <patchCommand08+0x74>)
    9c0c:	0064      	lsls	r4, r4, #1
    9c0e:	5ba4      	ldrh	r4, [r4, r6]
    9c10:	6114      	str	r4, [r2, #16]
    9c12:	4c14      	ldr	r4, [pc, #80]	; (9c64 <patchCommand08+0x78>)
    9c14:	015b      	lsls	r3, r3, #5
    9c16:	5ce2      	ldrb	r2, [r4, r3]
    9c18:	2a7f      	cmp	r2, #127	; 0x7f
    9c1a:	d818      	bhi.n	9c4e <patchCommand08+0x62>
    9c1c:	18e2      	adds	r2, r4, r3
    9c1e:	7cd6      	ldrb	r6, [r2, #19]
    9c20:	4a11      	ldr	r2, [pc, #68]	; (9c68 <patchCommand08+0x7c>)
    9c22:	0136      	lsls	r6, r6, #4
    9c24:	6812      	ldr	r2, [r2, #0]
    9c26:	1992      	adds	r2, r2, r6
    9c28:	6896      	ldr	r6, [r2, #8]
    9c2a:	68d2      	ldr	r2, [r2, #12]
    9c2c:	3601      	adds	r6, #1
    9c2e:	42b2      	cmp	r2, r6
    9c30:	d807      	bhi.n	9c42 <patchCommand08+0x56>
    9c32:	18e4      	adds	r4, r4, r3
    9c34:	7922      	ldrb	r2, [r4, #4]
    9c36:	0053      	lsls	r3, r2, #1
    9c38:	189b      	adds	r3, r3, r2
    9c3a:	00db      	lsls	r3, r3, #3
    9c3c:	18ed      	adds	r5, r5, r3
    9c3e:	692b      	ldr	r3, [r5, #16]
    9c40:	60eb      	str	r3, [r5, #12]
    9c42:	2208      	movs	r2, #8
    9c44:	7803      	ldrb	r3, [r0, #0]
    9c46:	8041      	strh	r1, [r0, #2]
    9c48:	4393      	bics	r3, r2
    9c4a:	7003      	strb	r3, [r0, #0]
    9c4c:	bd70      	pop	{r4, r5, r6, pc}
    9c4e:	18e2      	adds	r2, r4, r3
    9c50:	7d16      	ldrb	r6, [r2, #20]
    9c52:	e7e5      	b.n	9c20 <patchCommand08+0x34>
    9c54:	3480      	adds	r4, #128	; 0x80
    9c56:	6114      	str	r4, [r2, #16]
    9c58:	e7db      	b.n	9c12 <patchCommand08+0x26>
    9c5a:	46c0      	nop			; (mov r8, r8)
    9c5c:	2000080c 	.word	0x2000080c
    9c60:	0001f38c 	.word	0x0001f38c
    9c64:	20000770 	.word	0x20000770
    9c68:	200007f4 	.word	0x200007f4

00009c6c <initAudioMixer>:
    9c6c:	b510      	push	{r4, lr}
    9c6e:	4c0e      	ldr	r4, [pc, #56]	; (9ca8 <initAudioMixer+0x3c>)
    9c70:	225c      	movs	r2, #92	; 0x5c
    9c72:	0020      	movs	r0, r4
    9c74:	2100      	movs	r1, #0
    9c76:	4b0d      	ldr	r3, [pc, #52]	; (9cac <initAudioMixer+0x40>)
    9c78:	4798      	blx	r3
    9c7a:	4b0d      	ldr	r3, [pc, #52]	; (9cb0 <initAudioMixer+0x44>)
    9c7c:	3c08      	subs	r4, #8
    9c7e:	6063      	str	r3, [r4, #4]
    9c80:	61e3      	str	r3, [r4, #28]
    9c82:	6363      	str	r3, [r4, #52]	; 0x34
    9c84:	64e3      	str	r3, [r4, #76]	; 0x4c
    9c86:	4b0b      	ldr	r3, [pc, #44]	; (9cb4 <initAudioMixer+0x48>)
    9c88:	2101      	movs	r1, #1
    9c8a:	6663      	str	r3, [r4, #100]	; 0x64
    9c8c:	2304      	movs	r3, #4
    9c8e:	425b      	negs	r3, r3
    9c90:	6023      	str	r3, [r4, #0]
    9c92:	2002      	movs	r0, #2
    9c94:	4b08      	ldr	r3, [pc, #32]	; (9cb8 <initAudioMixer+0x4c>)
    9c96:	4798      	blx	r3
    9c98:	2201      	movs	r2, #1
    9c9a:	4b08      	ldr	r3, [pc, #32]	; (9cbc <initAudioMixer+0x50>)
    9c9c:	701a      	strb	r2, [r3, #0]
    9c9e:	3210      	adds	r2, #16
    9ca0:	705a      	strb	r2, [r3, #1]
    9ca2:	3a0b      	subs	r2, #11
    9ca4:	701a      	strb	r2, [r3, #0]
    9ca6:	bd10      	pop	{r4, pc}
    9ca8:	20000814 	.word	0x20000814
    9cac:	0000bd5d 	.word	0x0000bd5d
    9cb0:	0001e360 	.word	0x0001e360
    9cb4:	42004808 	.word	0x42004808
    9cb8:	0000b349 	.word	0x0000b349
    9cbc:	42004800 	.word	0x42004800

00009cc0 <initMusicPlayer>:
    9cc0:	b5f8      	push	{r3, r4, r5, r6, r7, lr}
    9cc2:	4657      	mov	r7, sl
    9cc4:	464e      	mov	r6, r9
    9cc6:	4645      	mov	r5, r8
    9cc8:	46de      	mov	lr, fp
    9cca:	22ff      	movs	r2, #255	; 0xff
    9ccc:	4b1f      	ldr	r3, [pc, #124]	; (9d4c <initMusicPlayer+0x8c>)
    9cce:	b5e0      	push	{r5, r6, r7, lr}
    9cd0:	6018      	str	r0, [r3, #0]
    9cd2:	4b1f      	ldr	r3, [pc, #124]	; (9d50 <initMusicPlayer+0x90>)
    9cd4:	2500      	movs	r5, #0
    9cd6:	701a      	strb	r2, [r3, #0]
    9cd8:	2200      	movs	r2, #0
    9cda:	4b1e      	ldr	r3, [pc, #120]	; (9d54 <initMusicPlayer+0x94>)
    9cdc:	2700      	movs	r7, #0
    9cde:	701a      	strb	r2, [r3, #0]
    9ce0:	4b1d      	ldr	r3, [pc, #116]	; (9d58 <initMusicPlayer+0x98>)
    9ce2:	4c1e      	ldr	r4, [pc, #120]	; (9d5c <initMusicPlayer+0x9c>)
    9ce4:	469a      	mov	sl, r3
    9ce6:	4b1e      	ldr	r3, [pc, #120]	; (9d60 <initMusicPlayer+0xa0>)
    9ce8:	4e1e      	ldr	r6, [pc, #120]	; (9d64 <initMusicPlayer+0xa4>)
    9cea:	4699      	mov	r9, r3
    9cec:	2310      	movs	r3, #16
    9cee:	4698      	mov	r8, r3
    9cf0:	33ef      	adds	r3, #239	; 0xef
    9cf2:	469b      	mov	fp, r3
    9cf4:	4643      	mov	r3, r8
    9cf6:	7023      	strb	r3, [r4, #0]
    9cf8:	465b      	mov	r3, fp
    9cfa:	7125      	strb	r5, [r4, #4]
    9cfc:	73e3      	strb	r3, [r4, #15]
    9cfe:	7427      	strb	r7, [r4, #16]
    9d00:	74e7      	strb	r7, [r4, #19]
    9d02:	47d0      	blx	sl
    9d04:	2300      	movs	r3, #0
    9d06:	2800      	cmp	r0, #0
    9d08:	dd1c      	ble.n	9d44 <initMusicPlayer+0x84>
    9d0a:	0058      	lsls	r0, r3, #1
    9d0c:	18c0      	adds	r0, r0, r3
    9d0e:	464b      	mov	r3, r9
    9d10:	0080      	lsls	r0, r0, #2
    9d12:	181b      	adds	r3, r3, r0
    9d14:	685b      	ldr	r3, [r3, #4]
    9d16:	3501      	adds	r5, #1
    9d18:	6073      	str	r3, [r6, #4]
    9d1a:	464b      	mov	r3, r9
    9d1c:	581b      	ldr	r3, [r3, r0]
    9d1e:	b2ed      	uxtb	r5, r5
    9d20:	021b      	lsls	r3, r3, #8
    9d22:	60b3      	str	r3, [r6, #8]
    9d24:	60f3      	str	r3, [r6, #12]
    9d26:	2318      	movs	r3, #24
    9d28:	73a3      	strb	r3, [r4, #14]
    9d2a:	4643      	mov	r3, r8
    9d2c:	61b7      	str	r7, [r6, #24]
    9d2e:	72e3      	strb	r3, [r4, #11]
    9d30:	3618      	adds	r6, #24
    9d32:	3420      	adds	r4, #32
    9d34:	2d04      	cmp	r5, #4
    9d36:	d1dd      	bne.n	9cf4 <initMusicPlayer+0x34>
    9d38:	bc3c      	pop	{r2, r3, r4, r5}
    9d3a:	4690      	mov	r8, r2
    9d3c:	4699      	mov	r9, r3
    9d3e:	46a2      	mov	sl, r4
    9d40:	46ab      	mov	fp, r5
    9d42:	bdf8      	pop	{r3, r4, r5, r6, r7, pc}
    9d44:	47d0      	blx	sl
    9d46:	3801      	subs	r0, #1
    9d48:	b2c3      	uxtb	r3, r0
    9d4a:	e7de      	b.n	9d0a <initMusicPlayer+0x4a>
    9d4c:	200007f4 	.word	0x200007f4
    9d50:	200007f9 	.word	0x200007f9
    9d54:	200006b4 	.word	0x200006b4
    9d58:	000063d1 	.word	0x000063d1
    9d5c:	20000770 	.word	0x20000770
    9d60:	0001d7b8 	.word	0x0001d7b8
    9d64:	2000080c 	.word	0x2000080c

00009d68 <startSong>:
    9d68:	227f      	movs	r2, #127	; 0x7f
    9d6a:	4b17      	ldr	r3, [pc, #92]	; (9dc8 <startSong+0x60>)
    9d6c:	b530      	push	{r4, r5, lr}
    9d6e:	7819      	ldrb	r1, [r3, #0]
    9d70:	2520      	movs	r5, #32
    9d72:	4011      	ands	r1, r2
    9d74:	7019      	strb	r1, [r3, #0]
    9d76:	21ff      	movs	r1, #255	; 0xff
    9d78:	7159      	strb	r1, [r3, #5]
    9d7a:	5d5c      	ldrb	r4, [r3, r5]
    9d7c:	3001      	adds	r0, #1
    9d7e:	4014      	ands	r4, r2
    9d80:	555c      	strb	r4, [r3, r5]
    9d82:	2425      	movs	r4, #37	; 0x25
    9d84:	3520      	adds	r5, #32
    9d86:	5519      	strb	r1, [r3, r4]
    9d88:	5d5c      	ldrb	r4, [r3, r5]
    9d8a:	4014      	ands	r4, r2
    9d8c:	555c      	strb	r4, [r3, r5]
    9d8e:	2445      	movs	r4, #69	; 0x45
    9d90:	5519      	strb	r1, [r3, r4]
    9d92:	341b      	adds	r4, #27
    9d94:	5d1d      	ldrb	r5, [r3, r4]
    9d96:	402a      	ands	r2, r5
    9d98:	551a      	strb	r2, [r3, r4]
    9d9a:	2265      	movs	r2, #101	; 0x65
    9d9c:	5499      	strb	r1, [r3, r2]
    9d9e:	4b0b      	ldr	r3, [pc, #44]	; (9dcc <startSong+0x64>)
    9da0:	2200      	movs	r2, #0
    9da2:	6018      	str	r0, [r3, #0]
    9da4:	4b0a      	ldr	r3, [pc, #40]	; (9dd0 <startSong+0x68>)
    9da6:	490b      	ldr	r1, [pc, #44]	; (9dd4 <startSong+0x6c>)
    9da8:	6018      	str	r0, [r3, #0]
    9daa:	4b0b      	ldr	r3, [pc, #44]	; (9dd8 <startSong+0x70>)
    9dac:	800a      	strh	r2, [r1, #0]
    9dae:	6018      	str	r0, [r3, #0]
    9db0:	2300      	movs	r3, #0
    9db2:	490a      	ldr	r1, [pc, #40]	; (9ddc <startSong+0x74>)
    9db4:	800a      	strh	r2, [r1, #0]
    9db6:	4a0a      	ldr	r2, [pc, #40]	; (9de0 <startSong+0x78>)
    9db8:	7013      	strb	r3, [r2, #0]
    9dba:	4a0a      	ldr	r2, [pc, #40]	; (9de4 <startSong+0x7c>)
    9dbc:	7013      	strb	r3, [r2, #0]
    9dbe:	2201      	movs	r2, #1
    9dc0:	4b09      	ldr	r3, [pc, #36]	; (9de8 <startSong+0x80>)
    9dc2:	701a      	strb	r2, [r3, #0]
    9dc4:	bd30      	pop	{r4, r5, pc}
    9dc6:	46c0      	nop			; (mov r8, r8)
    9dc8:	20000770 	.word	0x20000770
    9dcc:	20000800 	.word	0x20000800
    9dd0:	2000076c 	.word	0x2000076c
    9dd4:	200007fa 	.word	0x200007fa
    9dd8:	20000804 	.word	0x20000804
    9ddc:	200007f0 	.word	0x200007f0
    9de0:	200007fc 	.word	0x200007fc
    9de4:	200007f8 	.word	0x200007f8
    9de8:	200006b4 	.word	0x200006b4

00009dec <stopSong>:
    9dec:	22fa      	movs	r2, #250	; 0xfa
    9dee:	2132      	movs	r1, #50	; 0x32
    9df0:	4b05      	ldr	r3, [pc, #20]	; (9e08 <stopSong+0x1c>)
    9df2:	545a      	strb	r2, [r3, r1]
    9df4:	3120      	adds	r1, #32
    9df6:	545a      	strb	r2, [r3, r1]
    9df8:	3120      	adds	r1, #32
    9dfa:	749a      	strb	r2, [r3, #18]
    9dfc:	545a      	strb	r2, [r3, r1]
    9dfe:	2200      	movs	r2, #0
    9e00:	4b02      	ldr	r3, [pc, #8]	; (9e0c <stopSong+0x20>)
    9e02:	701a      	strb	r2, [r3, #0]
    9e04:	4770      	bx	lr
    9e06:	46c0      	nop			; (mov r8, r8)
    9e08:	20000770 	.word	0x20000770
    9e0c:	200006b4 	.word	0x200006b4

00009e10 <triggerCommon>:
    9e10:	b5f8      	push	{r3, r4, r5, r6, r7, lr}
    9e12:	4657      	mov	r7, sl
    9e14:	464e      	mov	r6, r9
    9e16:	4645      	mov	r5, r8
    9e18:	46de      	mov	lr, fp
    9e1a:	4689      	mov	r9, r1
    9e1c:	b5e0      	push	{r5, r6, r7, lr}
    9e1e:	2100      	movs	r1, #0
    9e20:	001d      	movs	r5, r3
    9e22:	23ff      	movs	r3, #255	; 0xff
    9e24:	7806      	ldrb	r6, [r0, #0]
    9e26:	7443      	strb	r3, [r0, #17]
    9e28:	7402      	strb	r2, [r0, #16]
    9e2a:	7481      	strb	r1, [r0, #18]
    9e2c:	8341      	strh	r1, [r0, #26]
    9e2e:	0004      	movs	r4, r0
    9e30:	2248      	movs	r2, #72	; 0x48
    9e32:	0030      	movs	r0, r6
    9e34:	4390      	bics	r0, r2
    9e36:	2200      	movs	r2, #0
    9e38:	71a2      	strb	r2, [r4, #6]
    9e3a:	464a      	mov	r2, r9
    9e3c:	7163      	strb	r3, [r4, #5]
    9e3e:	4b48      	ldr	r3, [pc, #288]	; (9f60 <triggerCommon+0x150>)
    9e40:	0112      	lsls	r2, r2, #4
    9e42:	469b      	mov	fp, r3
    9e44:	4690      	mov	r8, r2
    9e46:	7927      	ldrb	r7, [r4, #4]
    9e48:	4a46      	ldr	r2, [pc, #280]	; (9f64 <triggerCommon+0x154>)
    9e4a:	007b      	lsls	r3, r7, #1
    9e4c:	7020      	strb	r0, [r4, #0]
    9e4e:	19db      	adds	r3, r3, r7
    9e50:	00db      	lsls	r3, r3, #3
    9e52:	4692      	mov	sl, r2
    9e54:	6812      	ldr	r2, [r2, #0]
    9e56:	445b      	add	r3, fp
    9e58:	81a1      	strh	r1, [r4, #12]
    9e5a:	8065      	strh	r5, [r4, #2]
    9e5c:	4442      	add	r2, r8
    9e5e:	6199      	str	r1, [r3, #24]
    9e60:	2102      	movs	r1, #2
    9e62:	5e50      	ldrsh	r0, [r2, r1]
    9e64:	1c41      	adds	r1, r0, #1
    9e66:	d052      	beq.n	9f0e <triggerCommon+0xfe>
    9e68:	0041      	lsls	r1, r0, #1
    9e6a:	1809      	adds	r1, r1, r0
    9e6c:	483e      	ldr	r0, [pc, #248]	; (9f68 <triggerCommon+0x158>)
    9e6e:	0089      	lsls	r1, r1, #2
    9e70:	1841      	adds	r1, r0, r1
    9e72:	6849      	ldr	r1, [r1, #4]
    9e74:	6059      	str	r1, [r3, #4]
    9e76:	68d1      	ldr	r1, [r2, #12]
    9e78:	6892      	ldr	r2, [r2, #8]
    9e7a:	0208      	lsls	r0, r1, #8
    9e7c:	1a89      	subs	r1, r1, r2
    9e7e:	0209      	lsls	r1, r1, #8
    9e80:	6098      	str	r0, [r3, #8]
    9e82:	60d9      	str	r1, [r3, #12]
    9e84:	b276      	sxtb	r6, r6
    9e86:	464b      	mov	r3, r9
    9e88:	2e00      	cmp	r6, #0
    9e8a:	db3e      	blt.n	9f0a <triggerCommon+0xfa>
    9e8c:	74e3      	strb	r3, [r4, #19]
    9e8e:	2d00      	cmp	r5, #0
    9e90:	dc11      	bgt.n	9eb6 <triggerCommon+0xa6>
    9e92:	4653      	mov	r3, sl
    9e94:	681b      	ldr	r3, [r3, #0]
    9e96:	4443      	add	r3, r8
    9e98:	685b      	ldr	r3, [r3, #4]
    9e9a:	2b00      	cmp	r3, #0
    9e9c:	d004      	beq.n	9ea8 <triggerCommon+0x98>
    9e9e:	2200      	movs	r2, #0
    9ea0:	8322      	strh	r2, [r4, #24]
    9ea2:	781a      	ldrb	r2, [r3, #0]
    9ea4:	3301      	adds	r3, #1
    9ea6:	82e2      	strh	r2, [r4, #22]
    9ea8:	61e3      	str	r3, [r4, #28]
    9eaa:	bc3c      	pop	{r2, r3, r4, r5}
    9eac:	4690      	mov	r8, r2
    9eae:	4699      	mov	r9, r3
    9eb0:	46a2      	mov	sl, r4
    9eb2:	46ab      	mov	fp, r5
    9eb4:	bdf8      	pop	{r3, r4, r5, r6, r7, pc}
    9eb6:	7922      	ldrb	r2, [r4, #4]
    9eb8:	b2ed      	uxtb	r5, r5
    9eba:	1c13      	adds	r3, r2, #0
    9ebc:	2a03      	cmp	r2, #3
    9ebe:	d900      	bls.n	9ec2 <triggerCommon+0xb2>
    9ec0:	2303      	movs	r3, #3
    9ec2:	b2db      	uxtb	r3, r3
    9ec4:	005a      	lsls	r2, r3, #1
    9ec6:	18d2      	adds	r2, r2, r3
    9ec8:	00d2      	lsls	r2, r2, #3
    9eca:	445a      	add	r2, fp
    9ecc:	2d80      	cmp	r5, #128	; 0x80
    9ece:	d043      	beq.n	9f58 <triggerCommon+0x148>
    9ed0:	4926      	ldr	r1, [pc, #152]	; (9f6c <triggerCommon+0x15c>)
    9ed2:	006d      	lsls	r5, r5, #1
    9ed4:	5a69      	ldrh	r1, [r5, r1]
    9ed6:	6111      	str	r1, [r2, #16]
    9ed8:	4925      	ldr	r1, [pc, #148]	; (9f70 <triggerCommon+0x160>)
    9eda:	015d      	lsls	r5, r3, #5
    9edc:	5d4b      	ldrb	r3, [r1, r5]
    9ede:	2b7f      	cmp	r3, #127	; 0x7f
    9ee0:	d837      	bhi.n	9f52 <triggerCommon+0x142>
    9ee2:	194b      	adds	r3, r1, r5
    9ee4:	7cda      	ldrb	r2, [r3, #19]
    9ee6:	4653      	mov	r3, sl
    9ee8:	681b      	ldr	r3, [r3, #0]
    9eea:	0112      	lsls	r2, r2, #4
    9eec:	189a      	adds	r2, r3, r2
    9eee:	6890      	ldr	r0, [r2, #8]
    9ef0:	68d2      	ldr	r2, [r2, #12]
    9ef2:	3001      	adds	r0, #1
    9ef4:	4282      	cmp	r2, r0
    9ef6:	d8ce      	bhi.n	9e96 <triggerCommon+0x86>
    9ef8:	1949      	adds	r1, r1, r5
    9efa:	7909      	ldrb	r1, [r1, #4]
    9efc:	004a      	lsls	r2, r1, #1
    9efe:	1852      	adds	r2, r2, r1
    9f00:	00d2      	lsls	r2, r2, #3
    9f02:	445a      	add	r2, fp
    9f04:	6911      	ldr	r1, [r2, #16]
    9f06:	60d1      	str	r1, [r2, #12]
    9f08:	e7c5      	b.n	9e96 <triggerCommon+0x86>
    9f0a:	7523      	strb	r3, [r4, #20]
    9f0c:	e7bf      	b.n	9e8e <triggerCommon+0x7e>
    9f0e:	4b19      	ldr	r3, [pc, #100]	; (9f74 <triggerCommon+0x164>)
    9f10:	4798      	blx	r3
    9f12:	2200      	movs	r2, #0
    9f14:	2800      	cmp	r0, #0
    9f16:	dd17      	ble.n	9f48 <triggerCommon+0x138>
    9f18:	1c39      	adds	r1, r7, #0
    9f1a:	2f03      	cmp	r7, #3
    9f1c:	d812      	bhi.n	9f44 <triggerCommon+0x134>
    9f1e:	b2c9      	uxtb	r1, r1
    9f20:	004b      	lsls	r3, r1, #1
    9f22:	185b      	adds	r3, r3, r1
    9f24:	2100      	movs	r1, #0
    9f26:	00db      	lsls	r3, r3, #3
    9f28:	445b      	add	r3, fp
    9f2a:	0050      	lsls	r0, r2, #1
    9f2c:	1880      	adds	r0, r0, r2
    9f2e:	6199      	str	r1, [r3, #24]
    9f30:	490d      	ldr	r1, [pc, #52]	; (9f68 <triggerCommon+0x158>)
    9f32:	0080      	lsls	r0, r0, #2
    9f34:	180a      	adds	r2, r1, r0
    9f36:	6852      	ldr	r2, [r2, #4]
    9f38:	605a      	str	r2, [r3, #4]
    9f3a:	580a      	ldr	r2, [r1, r0]
    9f3c:	0212      	lsls	r2, r2, #8
    9f3e:	609a      	str	r2, [r3, #8]
    9f40:	60da      	str	r2, [r3, #12]
    9f42:	e79f      	b.n	9e84 <triggerCommon+0x74>
    9f44:	2103      	movs	r1, #3
    9f46:	e7ea      	b.n	9f1e <triggerCommon+0x10e>
    9f48:	4b0a      	ldr	r3, [pc, #40]	; (9f74 <triggerCommon+0x164>)
    9f4a:	4798      	blx	r3
    9f4c:	3801      	subs	r0, #1
    9f4e:	b2c2      	uxtb	r2, r0
    9f50:	e7e2      	b.n	9f18 <triggerCommon+0x108>
    9f52:	194b      	adds	r3, r1, r5
    9f54:	7d1a      	ldrb	r2, [r3, #20]
    9f56:	e7c6      	b.n	9ee6 <triggerCommon+0xd6>
    9f58:	2180      	movs	r1, #128	; 0x80
    9f5a:	0049      	lsls	r1, r1, #1
    9f5c:	6111      	str	r1, [r2, #16]
    9f5e:	e7bb      	b.n	9ed8 <triggerCommon+0xc8>
    9f60:	2000080c 	.word	0x2000080c
    9f64:	200007f4 	.word	0x200007f4
    9f68:	0001d7b8 	.word	0x0001d7b8
    9f6c:	0001f38c 	.word	0x0001f38c
    9f70:	20000770 	.word	0x20000770
    9f74:	000063d1 	.word	0x000063d1

00009f78 <soundEngine>:
    9f78:	b5f8      	push	{r3, r4, r5, r6, r7, lr}
    9f7a:	46de      	mov	lr, fp
    9f7c:	4657      	mov	r7, sl
    9f7e:	464e      	mov	r6, r9
    9f80:	4645      	mov	r5, r8
    9f82:	2212      	movs	r2, #18
    9f84:	b5e0      	push	{r5, r6, r7, lr}
    9f86:	4cbf      	ldr	r4, [pc, #764]	; (a284 <soundEngine+0x30c>)
    9f88:	4bbf      	ldr	r3, [pc, #764]	; (a288 <soundEngine+0x310>)
    9f8a:	56a2      	ldrsb	r2, [r4, r2]
    9f8c:	681b      	ldr	r3, [r3, #0]
    9f8e:	2a00      	cmp	r2, #0
    9f90:	d00a      	beq.n	9fa8 <soundEngine+0x30>
    9f92:	7c61      	ldrb	r1, [r4, #17]
    9f94:	1889      	adds	r1, r1, r2
    9f96:	1c08      	adds	r0, r1, #0
    9f98:	29ff      	cmp	r1, #255	; 0xff
    9f9a:	dd00      	ble.n	9f9e <soundEngine+0x26>
    9f9c:	e1e5      	b.n	a36a <soundEngine+0x3f2>
    9f9e:	b202      	sxth	r2, r0
    9fa0:	43d2      	mvns	r2, r2
    9fa2:	17d2      	asrs	r2, r2, #31
    9fa4:	4002      	ands	r2, r0
    9fa6:	7462      	strb	r2, [r4, #17]
    9fa8:	2232      	movs	r2, #50	; 0x32
    9faa:	56a2      	ldrsb	r2, [r4, r2]
    9fac:	2a00      	cmp	r2, #0
    9fae:	d00c      	beq.n	9fca <soundEngine+0x52>
    9fb0:	2131      	movs	r1, #49	; 0x31
    9fb2:	5c61      	ldrb	r1, [r4, r1]
    9fb4:	1889      	adds	r1, r1, r2
    9fb6:	1c08      	adds	r0, r1, #0
    9fb8:	29ff      	cmp	r1, #255	; 0xff
    9fba:	dd00      	ble.n	9fbe <soundEngine+0x46>
    9fbc:	e1d3      	b.n	a366 <soundEngine+0x3ee>
    9fbe:	b202      	sxth	r2, r0
    9fc0:	43d2      	mvns	r2, r2
    9fc2:	2131      	movs	r1, #49	; 0x31
    9fc4:	17d2      	asrs	r2, r2, #31
    9fc6:	4002      	ands	r2, r0
    9fc8:	5462      	strb	r2, [r4, r1]
    9fca:	2252      	movs	r2, #82	; 0x52
    9fcc:	56a2      	ldrsb	r2, [r4, r2]
    9fce:	2a00      	cmp	r2, #0
    9fd0:	d00c      	beq.n	9fec <soundEngine+0x74>
    9fd2:	2151      	movs	r1, #81	; 0x51
    9fd4:	5c61      	ldrb	r1, [r4, r1]
    9fd6:	1889      	adds	r1, r1, r2
    9fd8:	1c08      	adds	r0, r1, #0
    9fda:	29ff      	cmp	r1, #255	; 0xff
    9fdc:	dd00      	ble.n	9fe0 <soundEngine+0x68>
    9fde:	e1c8      	b.n	a372 <soundEngine+0x3fa>
    9fe0:	b202      	sxth	r2, r0
    9fe2:	43d2      	mvns	r2, r2
    9fe4:	2151      	movs	r1, #81	; 0x51
    9fe6:	17d2      	asrs	r2, r2, #31
    9fe8:	4002      	ands	r2, r0
    9fea:	5462      	strb	r2, [r4, r1]
    9fec:	2272      	movs	r2, #114	; 0x72
    9fee:	56a2      	ldrsb	r2, [r4, r2]
    9ff0:	2a00      	cmp	r2, #0
    9ff2:	d00c      	beq.n	a00e <soundEngine+0x96>
    9ff4:	2171      	movs	r1, #113	; 0x71
    9ff6:	5c61      	ldrb	r1, [r4, r1]
    9ff8:	1889      	adds	r1, r1, r2
    9ffa:	1c08      	adds	r0, r1, #0
    9ffc:	29ff      	cmp	r1, #255	; 0xff
    9ffe:	dd00      	ble.n	a002 <soundEngine+0x8a>
    a000:	e1b5      	b.n	a36e <soundEngine+0x3f6>
    a002:	b202      	sxth	r2, r0
    a004:	43d2      	mvns	r2, r2
    a006:	2171      	movs	r1, #113	; 0x71
    a008:	17d2      	asrs	r2, r2, #31
    a00a:	4002      	ands	r2, r0
    a00c:	5462      	strb	r2, [r4, r1]
    a00e:	7822      	ldrb	r2, [r4, #0]
    a010:	0711      	lsls	r1, r2, #28
    a012:	d500      	bpl.n	a016 <soundEngine+0x9e>
    a014:	e17f      	b.n	a316 <soundEngine+0x39e>
    a016:	4a9d      	ldr	r2, [pc, #628]	; (a28c <soundEngine+0x314>)
    a018:	4690      	mov	r8, r2
    a01a:	2220      	movs	r2, #32
    a01c:	5ca2      	ldrb	r2, [r4, r2]
    a01e:	0711      	lsls	r1, r2, #28
    a020:	d526      	bpl.n	a070 <soundEngine+0xf8>
    a022:	2128      	movs	r1, #40	; 0x28
    a024:	5e65      	ldrsh	r5, [r4, r1]
    a026:	4641      	mov	r1, r8
    a028:	4640      	mov	r0, r8
    a02a:	6a89      	ldr	r1, [r1, #40]	; 0x28
    a02c:	4e98      	ldr	r6, [pc, #608]	; (a290 <soundEngine+0x318>)
    a02e:	1869      	adds	r1, r5, r1
    a030:	6281      	str	r1, [r0, #40]	; 0x28
    a032:	202a      	movs	r0, #42	; 0x2a
    a034:	5c20      	ldrb	r0, [r4, r0]
    a036:	0040      	lsls	r0, r0, #1
    a038:	5b80      	ldrh	r0, [r0, r6]
    a03a:	2d00      	cmp	r5, #0
    a03c:	dc00      	bgt.n	a040 <soundEngine+0xc8>
    a03e:	e1bb      	b.n	a3b8 <soundEngine+0x440>
    a040:	4288      	cmp	r0, r1
    a042:	d800      	bhi.n	a046 <soundEngine+0xce>
    a044:	e1be      	b.n	a3c4 <soundEngine+0x44c>
    a046:	b252      	sxtb	r2, r2
    a048:	2a00      	cmp	r2, #0
    a04a:	da00      	bge.n	a04e <soundEngine+0xd6>
    a04c:	e1c4      	b.n	a3d8 <soundEngine+0x460>
    a04e:	2233      	movs	r2, #51	; 0x33
    a050:	5ca2      	ldrb	r2, [r4, r2]
    a052:	0112      	lsls	r2, r2, #4
    a054:	189a      	adds	r2, r3, r2
    a056:	6891      	ldr	r1, [r2, #8]
    a058:	68d2      	ldr	r2, [r2, #12]
    a05a:	3101      	adds	r1, #1
    a05c:	4291      	cmp	r1, r2
    a05e:	d307      	bcc.n	a070 <soundEngine+0xf8>
    a060:	2224      	movs	r2, #36	; 0x24
    a062:	5ca1      	ldrb	r1, [r4, r2]
    a064:	004a      	lsls	r2, r1, #1
    a066:	1852      	adds	r2, r2, r1
    a068:	00d2      	lsls	r2, r2, #3
    a06a:	4442      	add	r2, r8
    a06c:	6911      	ldr	r1, [r2, #16]
    a06e:	60d1      	str	r1, [r2, #12]
    a070:	2240      	movs	r2, #64	; 0x40
    a072:	5ca2      	ldrb	r2, [r4, r2]
    a074:	0711      	lsls	r1, r2, #28
    a076:	d526      	bpl.n	a0c6 <soundEngine+0x14e>
    a078:	2148      	movs	r1, #72	; 0x48
    a07a:	5e65      	ldrsh	r5, [r4, r1]
    a07c:	4641      	mov	r1, r8
    a07e:	4640      	mov	r0, r8
    a080:	6c09      	ldr	r1, [r1, #64]	; 0x40
    a082:	4e83      	ldr	r6, [pc, #524]	; (a290 <soundEngine+0x318>)
    a084:	1869      	adds	r1, r5, r1
    a086:	6401      	str	r1, [r0, #64]	; 0x40
    a088:	204a      	movs	r0, #74	; 0x4a
    a08a:	5c20      	ldrb	r0, [r4, r0]
    a08c:	0040      	lsls	r0, r0, #1
    a08e:	5b80      	ldrh	r0, [r0, r6]
    a090:	2d00      	cmp	r5, #0
    a092:	dc00      	bgt.n	a096 <soundEngine+0x11e>
    a094:	e1a3      	b.n	a3de <soundEngine+0x466>
    a096:	4281      	cmp	r1, r0
    a098:	d300      	bcc.n	a09c <soundEngine+0x124>
    a09a:	e1a6      	b.n	a3ea <soundEngine+0x472>
    a09c:	b252      	sxtb	r2, r2
    a09e:	2a00      	cmp	r2, #0
    a0a0:	da00      	bge.n	a0a4 <soundEngine+0x12c>
    a0a2:	e1ac      	b.n	a3fe <soundEngine+0x486>
    a0a4:	2253      	movs	r2, #83	; 0x53
    a0a6:	5ca2      	ldrb	r2, [r4, r2]
    a0a8:	0112      	lsls	r2, r2, #4
    a0aa:	189a      	adds	r2, r3, r2
    a0ac:	6891      	ldr	r1, [r2, #8]
    a0ae:	68d2      	ldr	r2, [r2, #12]
    a0b0:	3101      	adds	r1, #1
    a0b2:	4291      	cmp	r1, r2
    a0b4:	d307      	bcc.n	a0c6 <soundEngine+0x14e>
    a0b6:	2244      	movs	r2, #68	; 0x44
    a0b8:	5ca1      	ldrb	r1, [r4, r2]
    a0ba:	004a      	lsls	r2, r1, #1
    a0bc:	1852      	adds	r2, r2, r1
    a0be:	00d2      	lsls	r2, r2, #3
    a0c0:	4442      	add	r2, r8
    a0c2:	6911      	ldr	r1, [r2, #16]
    a0c4:	60d1      	str	r1, [r2, #12]
    a0c6:	2260      	movs	r2, #96	; 0x60
    a0c8:	5ca2      	ldrb	r2, [r4, r2]
    a0ca:	0711      	lsls	r1, r2, #28
    a0cc:	d526      	bpl.n	a11c <soundEngine+0x1a4>
    a0ce:	2168      	movs	r1, #104	; 0x68
    a0d0:	5e65      	ldrsh	r5, [r4, r1]
    a0d2:	4641      	mov	r1, r8
    a0d4:	4640      	mov	r0, r8
    a0d6:	6d89      	ldr	r1, [r1, #88]	; 0x58
    a0d8:	4e6d      	ldr	r6, [pc, #436]	; (a290 <soundEngine+0x318>)
    a0da:	1869      	adds	r1, r5, r1
    a0dc:	6581      	str	r1, [r0, #88]	; 0x58
    a0de:	206a      	movs	r0, #106	; 0x6a
    a0e0:	5c20      	ldrb	r0, [r4, r0]
    a0e2:	0040      	lsls	r0, r0, #1
    a0e4:	5b80      	ldrh	r0, [r0, r6]
    a0e6:	2d00      	cmp	r5, #0
    a0e8:	dc00      	bgt.n	a0ec <soundEngine+0x174>
    a0ea:	e152      	b.n	a392 <soundEngine+0x41a>
    a0ec:	4281      	cmp	r1, r0
    a0ee:	d300      	bcc.n	a0f2 <soundEngine+0x17a>
    a0f0:	e155      	b.n	a39e <soundEngine+0x426>
    a0f2:	b252      	sxtb	r2, r2
    a0f4:	2a00      	cmp	r2, #0
    a0f6:	da00      	bge.n	a0fa <soundEngine+0x182>
    a0f8:	e15b      	b.n	a3b2 <soundEngine+0x43a>
    a0fa:	2273      	movs	r2, #115	; 0x73
    a0fc:	5ca2      	ldrb	r2, [r4, r2]
    a0fe:	0112      	lsls	r2, r2, #4
    a100:	189b      	adds	r3, r3, r2
    a102:	689a      	ldr	r2, [r3, #8]
    a104:	68db      	ldr	r3, [r3, #12]
    a106:	3201      	adds	r2, #1
    a108:	4293      	cmp	r3, r2
    a10a:	d807      	bhi.n	a11c <soundEngine+0x1a4>
    a10c:	2364      	movs	r3, #100	; 0x64
    a10e:	5ce2      	ldrb	r2, [r4, r3]
    a110:	0053      	lsls	r3, r2, #1
    a112:	189b      	adds	r3, r3, r2
    a114:	00db      	lsls	r3, r3, #3
    a116:	4443      	add	r3, r8
    a118:	691a      	ldr	r2, [r3, #16]
    a11a:	60da      	str	r2, [r3, #12]
    a11c:	4b5d      	ldr	r3, [pc, #372]	; (a294 <soundEngine+0x31c>)
    a11e:	781b      	ldrb	r3, [r3, #0]
    a120:	2b00      	cmp	r3, #0
    a122:	d04d      	beq.n	a1c0 <soundEngine+0x248>
    a124:	4b5c      	ldr	r3, [pc, #368]	; (a298 <soundEngine+0x320>)
    a126:	4a5d      	ldr	r2, [pc, #372]	; (a29c <soundEngine+0x324>)
    a128:	4699      	mov	r9, r3
    a12a:	4692      	mov	sl, r2
    a12c:	881b      	ldrh	r3, [r3, #0]
    a12e:	8812      	ldrh	r2, [r2, #0]
    a130:	429a      	cmp	r2, r3
    a132:	d000      	beq.n	a136 <soundEngine+0x1be>
    a134:	e1fa      	b.n	a52c <soundEngine+0x5b4>
    a136:	4d5a      	ldr	r5, [pc, #360]	; (a2a0 <soundEngine+0x328>)
    a138:	682a      	ldr	r2, [r5, #0]
    a13a:	e007      	b.n	a14c <soundEngine+0x1d4>
    a13c:	4651      	mov	r1, sl
    a13e:	b29b      	uxth	r3, r3
    a140:	800b      	strh	r3, [r1, #0]
    a142:	4648      	mov	r0, r9
    a144:	2100      	movs	r1, #0
    a146:	8001      	strh	r1, [r0, #0]
    a148:	2b00      	cmp	r3, #0
    a14a:	d136      	bne.n	a1ba <soundEngine+0x242>
    a14c:	2000      	movs	r0, #0
    a14e:	1c51      	adds	r1, r2, #1
    a150:	6029      	str	r1, [r5, #0]
    a152:	5610      	ldrsb	r0, [r2, r0]
    a154:	b2c6      	uxtb	r6, r0
    a156:	2eff      	cmp	r6, #255	; 0xff
    a158:	d100      	bne.n	a15c <soundEngine+0x1e4>
    a15a:	e153      	b.n	a404 <soundEngine+0x48c>
    a15c:	4b51      	ldr	r3, [pc, #324]	; (a2a4 <soundEngine+0x32c>)
    a15e:	2800      	cmp	r0, #0
    a160:	da00      	bge.n	a164 <soundEngine+0x1ec>
    a162:	e163      	b.n	a42c <soundEngine+0x4b4>
    a164:	2703      	movs	r7, #3
    a166:	22f0      	movs	r2, #240	; 0xf0
    a168:	781b      	ldrb	r3, [r3, #0]
    a16a:	401f      	ands	r7, r3
    a16c:	4013      	ands	r3, r2
    a16e:	2bb0      	cmp	r3, #176	; 0xb0
    a170:	d100      	bne.n	a174 <soundEngine+0x1fc>
    a172:	e167      	b.n	a444 <soundEngine+0x4cc>
    a174:	2bc0      	cmp	r3, #192	; 0xc0
    a176:	d100      	bne.n	a17a <soundEngine+0x202>
    a178:	e193      	b.n	a4a2 <soundEngine+0x52a>
    a17a:	2b90      	cmp	r3, #144	; 0x90
    a17c:	d100      	bne.n	a180 <soundEngine+0x208>
    a17e:	e173      	b.n	a468 <soundEngine+0x4f0>
    a180:	2300      	movs	r3, #0
    a182:	1c4a      	adds	r2, r1, #1
    a184:	602a      	str	r2, [r5, #0]
    a186:	56cb      	ldrsb	r3, [r1, r3]
    a188:	2b00      	cmp	r3, #0
    a18a:	dad7      	bge.n	a13c <soundEngine+0x1c4>
    a18c:	217f      	movs	r1, #127	; 0x7f
    a18e:	0010      	movs	r0, r2
    a190:	267f      	movs	r6, #127	; 0x7f
    a192:	400b      	ands	r3, r1
    a194:	2100      	movs	r1, #0
    a196:	3201      	adds	r2, #1
    a198:	602a      	str	r2, [r5, #0]
    a19a:	5641      	ldrsb	r1, [r0, r1]
    a19c:	0030      	movs	r0, r6
    a19e:	01db      	lsls	r3, r3, #7
    a1a0:	4008      	ands	r0, r1
    a1a2:	18c3      	adds	r3, r0, r3
    a1a4:	0010      	movs	r0, r2
    a1a6:	2900      	cmp	r1, #0
    a1a8:	dbf4      	blt.n	a194 <soundEngine+0x21c>
    a1aa:	4651      	mov	r1, sl
    a1ac:	b29b      	uxth	r3, r3
    a1ae:	800b      	strh	r3, [r1, #0]
    a1b0:	4648      	mov	r0, r9
    a1b2:	2100      	movs	r1, #0
    a1b4:	8001      	strh	r1, [r0, #0]
    a1b6:	2b00      	cmp	r3, #0
    a1b8:	d0c8      	beq.n	a14c <soundEngine+0x1d4>
    a1ba:	2301      	movs	r3, #1
    a1bc:	464a      	mov	r2, r9
    a1be:	8013      	strh	r3, [r2, #0]
    a1c0:	4b39      	ldr	r3, [pc, #228]	; (a2a8 <soundEngine+0x330>)
    a1c2:	0026      	movs	r6, r4
    a1c4:	4699      	mov	r9, r3
    a1c6:	4b39      	ldr	r3, [pc, #228]	; (a2ac <soundEngine+0x334>)
    a1c8:	4645      	mov	r5, r8
    a1ca:	469a      	mov	sl, r3
    a1cc:	4f38      	ldr	r7, [pc, #224]	; (a2b0 <soundEngine+0x338>)
    a1ce:	3680      	adds	r6, #128	; 0x80
    a1d0:	7821      	ldrb	r1, [r4, #0]
    a1d2:	068b      	lsls	r3, r1, #26
    a1d4:	d54f      	bpl.n	a276 <soundEngine+0x2fe>
    a1d6:	69e2      	ldr	r2, [r4, #28]
    a1d8:	2a00      	cmp	r2, #0
    a1da:	d001      	beq.n	a1e0 <soundEngine+0x268>
    a1dc:	064b      	lsls	r3, r1, #25
    a1de:	d520      	bpl.n	a222 <soundEngine+0x2aa>
    a1e0:	8b63      	ldrh	r3, [r4, #26]
    a1e2:	4a34      	ldr	r2, [pc, #208]	; (a2b4 <soundEngine+0x33c>)
    a1e4:	4293      	cmp	r3, r2
    a1e6:	d001      	beq.n	a1ec <soundEngine+0x274>
    a1e8:	3301      	adds	r3, #1
    a1ea:	8363      	strh	r3, [r4, #26]
    a1ec:	b249      	sxtb	r1, r1
    a1ee:	7c22      	ldrb	r2, [r4, #16]
    a1f0:	2900      	cmp	r1, #0
    a1f2:	db61      	blt.n	a2b8 <soundEngine+0x340>
    a1f4:	2a00      	cmp	r2, #0
    a1f6:	d004      	beq.n	a202 <soundEngine+0x28a>
    a1f8:	7c61      	ldrb	r1, [r4, #17]
    a1fa:	7be0      	ldrb	r0, [r4, #15]
    a1fc:	2900      	cmp	r1, #0
    a1fe:	d000      	beq.n	a202 <soundEngine+0x28a>
    a200:	e0ad      	b.n	a35e <soundEngine+0x3e6>
    a202:	2300      	movs	r3, #0
    a204:	7b22      	ldrb	r2, [r4, #12]
    a206:	7ba1      	ldrb	r1, [r4, #14]
    a208:	616b      	str	r3, [r5, #20]
    a20a:	1852      	adds	r2, r2, r1
    a20c:	7322      	strb	r2, [r4, #12]
    a20e:	3420      	adds	r4, #32
    a210:	3518      	adds	r5, #24
    a212:	42b4      	cmp	r4, r6
    a214:	d1dc      	bne.n	a1d0 <soundEngine+0x258>
    a216:	bc3c      	pop	{r2, r3, r4, r5}
    a218:	4690      	mov	r8, r2
    a21a:	4699      	mov	r9, r3
    a21c:	46a2      	mov	sl, r4
    a21e:	46ab      	mov	fp, r5
    a220:	bdf8      	pop	{r3, r4, r5, r6, r7, pc}
    a222:	8b23      	ldrh	r3, [r4, #24]
    a224:	8ae0      	ldrh	r0, [r4, #22]
    a226:	4298      	cmp	r0, r3
    a228:	d000      	beq.n	a22c <soundEngine+0x2b4>
    a22a:	e182      	b.n	a532 <soundEngine+0x5ba>
    a22c:	1c53      	adds	r3, r2, #1
    a22e:	61e3      	str	r3, [r4, #28]
    a230:	7813      	ldrb	r3, [r2, #0]
    a232:	2bff      	cmp	r3, #255	; 0xff
    a234:	d100      	bne.n	a238 <soundEngine+0x2c0>
    a236:	e17f      	b.n	a538 <soundEngine+0x5c0>
    a238:	2100      	movs	r1, #0
    a23a:	4688      	mov	r8, r1
    a23c:	e005      	b.n	a24a <soundEngine+0x2d2>
    a23e:	1c99      	adds	r1, r3, #2
    a240:	61e1      	str	r1, [r4, #28]
    a242:	785b      	ldrb	r3, [r3, #1]
    a244:	2bff      	cmp	r3, #255	; 0xff
    a246:	d100      	bne.n	a24a <soundEngine+0x2d2>
    a248:	e15a      	b.n	a500 <soundEngine+0x588>
    a24a:	1c91      	adds	r1, r2, #2
    a24c:	009b      	lsls	r3, r3, #2
    a24e:	61e1      	str	r1, [r4, #28]
    a250:	18fb      	adds	r3, r7, r3
    a252:	7851      	ldrb	r1, [r2, #1]
    a254:	685b      	ldr	r3, [r3, #4]
    a256:	0020      	movs	r0, r4
    a258:	4798      	blx	r3
    a25a:	4640      	mov	r0, r8
    a25c:	69e3      	ldr	r3, [r4, #28]
    a25e:	1c5a      	adds	r2, r3, #1
    a260:	61e2      	str	r2, [r4, #28]
    a262:	7819      	ldrb	r1, [r3, #0]
    a264:	8320      	strh	r0, [r4, #24]
    a266:	82e1      	strh	r1, [r4, #22]
    a268:	2900      	cmp	r1, #0
    a26a:	d0e8      	beq.n	a23e <soundEngine+0x2c6>
    a26c:	2001      	movs	r0, #1
    a26e:	7821      	ldrb	r1, [r4, #0]
    a270:	8320      	strh	r0, [r4, #24]
    a272:	068b      	lsls	r3, r1, #26
    a274:	d4b4      	bmi.n	a1e0 <soundEngine+0x268>
    a276:	2300      	movs	r3, #0
    a278:	3420      	adds	r4, #32
    a27a:	616b      	str	r3, [r5, #20]
    a27c:	3518      	adds	r5, #24
    a27e:	42b4      	cmp	r4, r6
    a280:	d1a6      	bne.n	a1d0 <soundEngine+0x258>
    a282:	e7c8      	b.n	a216 <soundEngine+0x29e>
    a284:	20000770 	.word	0x20000770
    a288:	200007f4 	.word	0x200007f4
    a28c:	2000080c 	.word	0x2000080c
    a290:	0001f38c 	.word	0x0001f38c
    a294:	200006b4 	.word	0x200006b4
    a298:	200007f0 	.word	0x200007f0
    a29c:	200007fa 	.word	0x200007fa
    a2a0:	20000800 	.word	0x20000800
    a2a4:	200007f8 	.word	0x200007f8
    a2a8:	200007f9 	.word	0x200007f9
    a2ac:	0001ecac 	.word	0x0001ecac
    a2b0:	0001e360 	.word	0x0001e360
    a2b4:	0000ffff 	.word	0x0000ffff
    a2b8:	2a00      	cmp	r2, #0
    a2ba:	d0a2      	beq.n	a202 <soundEngine+0x28a>
    a2bc:	7c61      	ldrb	r1, [r4, #17]
    a2be:	2900      	cmp	r1, #0
    a2c0:	d09f      	beq.n	a202 <soundEngine+0x28a>
    a2c2:	20ff      	movs	r0, #255	; 0xff
    a2c4:	464b      	mov	r3, r9
    a2c6:	781b      	ldrb	r3, [r3, #0]
    a2c8:	2b00      	cmp	r3, #0
    a2ca:	d09a      	beq.n	a202 <soundEngine+0x28a>
    a2cc:	4342      	muls	r2, r0
    a2ce:	3201      	adds	r2, #1
    a2d0:	32ff      	adds	r2, #255	; 0xff
    a2d2:	0a12      	lsrs	r2, r2, #8
    a2d4:	434a      	muls	r2, r1
    a2d6:	3201      	adds	r2, #1
    a2d8:	7961      	ldrb	r1, [r4, #5]
    a2da:	32ff      	adds	r2, #255	; 0xff
    a2dc:	0a12      	lsrs	r2, r2, #8
    a2de:	434a      	muls	r2, r1
    a2e0:	3201      	adds	r2, #1
    a2e2:	32ff      	adds	r2, #255	; 0xff
    a2e4:	0a12      	lsrs	r2, r2, #8
    a2e6:	4353      	muls	r3, r2
    a2e8:	7b61      	ldrb	r1, [r4, #13]
    a2ea:	3301      	adds	r3, #1
    a2ec:	33ff      	adds	r3, #255	; 0xff
    a2ee:	0a1b      	lsrs	r3, r3, #8
    a2f0:	7b22      	ldrb	r2, [r4, #12]
    a2f2:	2900      	cmp	r1, #0
    a2f4:	d100      	bne.n	a2f8 <soundEngine+0x380>
    a2f6:	e786      	b.n	a206 <soundEngine+0x28e>
    a2f8:	4650      	mov	r0, sl
    a2fa:	5c80      	ldrb	r0, [r0, r2]
    a2fc:	3880      	subs	r0, #128	; 0x80
    a2fe:	b2c0      	uxtb	r0, r0
    a300:	4341      	muls	r1, r0
    a302:	20ff      	movs	r0, #255	; 0xff
    a304:	3101      	adds	r1, #1
    a306:	31ff      	adds	r1, #255	; 0xff
    a308:	0a09      	lsrs	r1, r1, #8
    a30a:	1a41      	subs	r1, r0, r1
    a30c:	434b      	muls	r3, r1
    a30e:	3301      	adds	r3, #1
    a310:	33ff      	adds	r3, #255	; 0xff
    a312:	0a1b      	lsrs	r3, r3, #8
    a314:	e777      	b.n	a206 <soundEngine+0x28e>
    a316:	2108      	movs	r1, #8
    a318:	5e65      	ldrsh	r5, [r4, r1]
    a31a:	4989      	ldr	r1, [pc, #548]	; (a540 <soundEngine+0x5c8>)
    a31c:	4e89      	ldr	r6, [pc, #548]	; (a544 <soundEngine+0x5cc>)
    a31e:	4688      	mov	r8, r1
    a320:	4640      	mov	r0, r8
    a322:	6909      	ldr	r1, [r1, #16]
    a324:	1869      	adds	r1, r5, r1
    a326:	6101      	str	r1, [r0, #16]
    a328:	7aa0      	ldrb	r0, [r4, #10]
    a32a:	0040      	lsls	r0, r0, #1
    a32c:	5b80      	ldrh	r0, [r0, r6]
    a32e:	2d00      	cmp	r5, #0
    a330:	dd21      	ble.n	a376 <soundEngine+0x3fe>
    a332:	4281      	cmp	r1, r0
    a334:	d223      	bcs.n	a37e <soundEngine+0x406>
    a336:	b252      	sxtb	r2, r2
    a338:	2a00      	cmp	r2, #0
    a33a:	db28      	blt.n	a38e <soundEngine+0x416>
    a33c:	7ce2      	ldrb	r2, [r4, #19]
    a33e:	0112      	lsls	r2, r2, #4
    a340:	189a      	adds	r2, r3, r2
    a342:	6891      	ldr	r1, [r2, #8]
    a344:	68d2      	ldr	r2, [r2, #12]
    a346:	3101      	adds	r1, #1
    a348:	4291      	cmp	r1, r2
    a34a:	d200      	bcs.n	a34e <soundEngine+0x3d6>
    a34c:	e665      	b.n	a01a <soundEngine+0xa2>
    a34e:	7921      	ldrb	r1, [r4, #4]
    a350:	004a      	lsls	r2, r1, #1
    a352:	1852      	adds	r2, r2, r1
    a354:	00d2      	lsls	r2, r2, #3
    a356:	4442      	add	r2, r8
    a358:	6911      	ldr	r1, [r2, #16]
    a35a:	60d1      	str	r1, [r2, #12]
    a35c:	e65d      	b.n	a01a <soundEngine+0xa2>
    a35e:	2800      	cmp	r0, #0
    a360:	d100      	bne.n	a364 <soundEngine+0x3ec>
    a362:	e74e      	b.n	a202 <soundEngine+0x28a>
    a364:	e7ae      	b.n	a2c4 <soundEngine+0x34c>
    a366:	20ff      	movs	r0, #255	; 0xff
    a368:	e629      	b.n	9fbe <soundEngine+0x46>
    a36a:	20ff      	movs	r0, #255	; 0xff
    a36c:	e617      	b.n	9f9e <soundEngine+0x26>
    a36e:	20ff      	movs	r0, #255	; 0xff
    a370:	e647      	b.n	a002 <soundEngine+0x8a>
    a372:	20ff      	movs	r0, #255	; 0xff
    a374:	e634      	b.n	9fe0 <soundEngine+0x68>
    a376:	2d00      	cmp	r5, #0
    a378:	d0dd      	beq.n	a336 <soundEngine+0x3be>
    a37a:	4288      	cmp	r0, r1
    a37c:	d3db      	bcc.n	a336 <soundEngine+0x3be>
    a37e:	4641      	mov	r1, r8
    a380:	6108      	str	r0, [r1, #16]
    a382:	2108      	movs	r1, #8
    a384:	438a      	bics	r2, r1
    a386:	7022      	strb	r2, [r4, #0]
    a388:	b252      	sxtb	r2, r2
    a38a:	2a00      	cmp	r2, #0
    a38c:	dad6      	bge.n	a33c <soundEngine+0x3c4>
    a38e:	7d22      	ldrb	r2, [r4, #20]
    a390:	e7d5      	b.n	a33e <soundEngine+0x3c6>
    a392:	2d00      	cmp	r5, #0
    a394:	d100      	bne.n	a398 <soundEngine+0x420>
    a396:	e6ac      	b.n	a0f2 <soundEngine+0x17a>
    a398:	4281      	cmp	r1, r0
    a39a:	d900      	bls.n	a39e <soundEngine+0x426>
    a39c:	e6a9      	b.n	a0f2 <soundEngine+0x17a>
    a39e:	4641      	mov	r1, r8
    a3a0:	6588      	str	r0, [r1, #88]	; 0x58
    a3a2:	2108      	movs	r1, #8
    a3a4:	438a      	bics	r2, r1
    a3a6:	3158      	adds	r1, #88	; 0x58
    a3a8:	5462      	strb	r2, [r4, r1]
    a3aa:	b252      	sxtb	r2, r2
    a3ac:	2a00      	cmp	r2, #0
    a3ae:	db00      	blt.n	a3b2 <soundEngine+0x43a>
    a3b0:	e6a3      	b.n	a0fa <soundEngine+0x182>
    a3b2:	2274      	movs	r2, #116	; 0x74
    a3b4:	5ca2      	ldrb	r2, [r4, r2]
    a3b6:	e6a2      	b.n	a0fe <soundEngine+0x186>
    a3b8:	2d00      	cmp	r5, #0
    a3ba:	d100      	bne.n	a3be <soundEngine+0x446>
    a3bc:	e643      	b.n	a046 <soundEngine+0xce>
    a3be:	4288      	cmp	r0, r1
    a3c0:	d200      	bcs.n	a3c4 <soundEngine+0x44c>
    a3c2:	e640      	b.n	a046 <soundEngine+0xce>
    a3c4:	4641      	mov	r1, r8
    a3c6:	6288      	str	r0, [r1, #40]	; 0x28
    a3c8:	2108      	movs	r1, #8
    a3ca:	438a      	bics	r2, r1
    a3cc:	3118      	adds	r1, #24
    a3ce:	5462      	strb	r2, [r4, r1]
    a3d0:	b252      	sxtb	r2, r2
    a3d2:	2a00      	cmp	r2, #0
    a3d4:	db00      	blt.n	a3d8 <soundEngine+0x460>
    a3d6:	e63a      	b.n	a04e <soundEngine+0xd6>
    a3d8:	2234      	movs	r2, #52	; 0x34
    a3da:	5ca2      	ldrb	r2, [r4, r2]
    a3dc:	e639      	b.n	a052 <soundEngine+0xda>
    a3de:	2d00      	cmp	r5, #0
    a3e0:	d100      	bne.n	a3e4 <soundEngine+0x46c>
    a3e2:	e65b      	b.n	a09c <soundEngine+0x124>
    a3e4:	4281      	cmp	r1, r0
    a3e6:	d900      	bls.n	a3ea <soundEngine+0x472>
    a3e8:	e658      	b.n	a09c <soundEngine+0x124>
    a3ea:	4641      	mov	r1, r8
    a3ec:	6408      	str	r0, [r1, #64]	; 0x40
    a3ee:	2108      	movs	r1, #8
    a3f0:	438a      	bics	r2, r1
    a3f2:	3138      	adds	r1, #56	; 0x38
    a3f4:	5462      	strb	r2, [r4, r1]
    a3f6:	b252      	sxtb	r2, r2
    a3f8:	2a00      	cmp	r2, #0
    a3fa:	db00      	blt.n	a3fe <soundEngine+0x486>
    a3fc:	e652      	b.n	a0a4 <soundEngine+0x12c>
    a3fe:	2254      	movs	r2, #84	; 0x54
    a400:	5ca2      	ldrb	r2, [r4, r2]
    a402:	e651      	b.n	a0a8 <soundEngine+0x130>
    a404:	1c91      	adds	r1, r2, #2
    a406:	6029      	str	r1, [r5, #0]
    a408:	7850      	ldrb	r0, [r2, #1]
    a40a:	282f      	cmp	r0, #47	; 0x2f
    a40c:	d100      	bne.n	a410 <soundEngine+0x498>
    a40e:	e087      	b.n	a520 <soundEngine+0x5a8>
    a410:	2806      	cmp	r0, #6
    a412:	d000      	beq.n	a416 <soundEngine+0x49e>
    a414:	e6b4      	b.n	a180 <soundEngine+0x208>
    a416:	1d11      	adds	r1, r2, #4
    a418:	6029      	str	r1, [r5, #0]
    a41a:	78d3      	ldrb	r3, [r2, #3]
    a41c:	2b53      	cmp	r3, #83	; 0x53
    a41e:	d050      	beq.n	a4c2 <soundEngine+0x54a>
    a420:	2b45      	cmp	r3, #69	; 0x45
    a422:	d000      	beq.n	a426 <soundEngine+0x4ae>
    a424:	e6ac      	b.n	a180 <soundEngine+0x208>
    a426:	4b48      	ldr	r3, [pc, #288]	; (a548 <soundEngine+0x5d0>)
    a428:	6819      	ldr	r1, [r3, #0]
    a42a:	e6a9      	b.n	a180 <soundEngine+0x208>
    a42c:	2703      	movs	r7, #3
    a42e:	1c91      	adds	r1, r2, #2
    a430:	6029      	str	r1, [r5, #0]
    a432:	701e      	strb	r6, [r3, #0]
    a434:	4037      	ands	r7, r6
    a436:	0033      	movs	r3, r6
    a438:	7856      	ldrb	r6, [r2, #1]
    a43a:	22f0      	movs	r2, #240	; 0xf0
    a43c:	4013      	ands	r3, r2
    a43e:	2bb0      	cmp	r3, #176	; 0xb0
    a440:	d000      	beq.n	a444 <soundEngine+0x4cc>
    a442:	e697      	b.n	a174 <soundEngine+0x1fc>
    a444:	1c4a      	adds	r2, r1, #1
    a446:	602a      	str	r2, [r5, #0]
    a448:	780b      	ldrb	r3, [r1, #0]
    a44a:	2e07      	cmp	r6, #7
    a44c:	d033      	beq.n	a4b6 <soundEngine+0x53e>
    a44e:	2e0b      	cmp	r6, #11
    a450:	d03a      	beq.n	a4c8 <soundEngine+0x550>
    a452:	2e5c      	cmp	r6, #92	; 0x5c
    a454:	d05e      	beq.n	a514 <soundEngine+0x59c>
    a456:	0011      	movs	r1, r2
    a458:	2e64      	cmp	r6, #100	; 0x64
    a45a:	d000      	beq.n	a45e <soundEngine+0x4e6>
    a45c:	e690      	b.n	a180 <soundEngine+0x208>
    a45e:	017f      	lsls	r7, r7, #5
    a460:	19e7      	adds	r7, r4, r7
    a462:	005b      	lsls	r3, r3, #1
    a464:	73bb      	strb	r3, [r7, #14]
    a466:	e68b      	b.n	a180 <soundEngine+0x208>
    a468:	017b      	lsls	r3, r7, #5
    a46a:	469b      	mov	fp, r3
    a46c:	5d1b      	ldrb	r3, [r3, r4]
    a46e:	1c48      	adds	r0, r1, #1
    a470:	6028      	str	r0, [r5, #0]
    a472:	069a      	lsls	r2, r3, #26
    a474:	d502      	bpl.n	a47c <soundEngine+0x504>
    a476:	b25a      	sxtb	r2, r3
    a478:	2a00      	cmp	r2, #0
    a47a:	db49      	blt.n	a510 <soundEngine+0x598>
    a47c:	780a      	ldrb	r2, [r1, #0]
    a47e:	0052      	lsls	r2, r2, #1
    a480:	b2d2      	uxtb	r2, r2
    a482:	2a00      	cmp	r2, #0
    a484:	d126      	bne.n	a4d4 <soundEngine+0x55c>
    a486:	4659      	mov	r1, fp
    a488:	1861      	adds	r1, r4, r1
    a48a:	3240      	adds	r2, #64	; 0x40
    a48c:	7c8e      	ldrb	r6, [r1, #18]
    a48e:	401a      	ands	r2, r3
    a490:	4332      	orrs	r2, r6
    a492:	d100      	bne.n	a496 <soundEngine+0x51e>
    a494:	740a      	strb	r2, [r1, #16]
    a496:	2240      	movs	r2, #64	; 0x40
    a498:	4393      	bics	r3, r2
    a49a:	465a      	mov	r2, fp
    a49c:	0001      	movs	r1, r0
    a49e:	5513      	strb	r3, [r2, r4]
    a4a0:	e66e      	b.n	a180 <soundEngine+0x208>
    a4a2:	4b2a      	ldr	r3, [pc, #168]	; (a54c <soundEngine+0x5d4>)
    a4a4:	4798      	blx	r3
    a4a6:	4286      	cmp	r6, r0
    a4a8:	db00      	blt.n	a4ac <soundEngine+0x534>
    a4aa:	2600      	movs	r6, #0
    a4ac:	017f      	lsls	r7, r7, #5
    a4ae:	19e7      	adds	r7, r4, r7
    a4b0:	74fe      	strb	r6, [r7, #19]
    a4b2:	6829      	ldr	r1, [r5, #0]
    a4b4:	e664      	b.n	a180 <soundEngine+0x208>
    a4b6:	017f      	lsls	r7, r7, #5
    a4b8:	19e7      	adds	r7, r4, r7
    a4ba:	005b      	lsls	r3, r3, #1
    a4bc:	73fb      	strb	r3, [r7, #15]
    a4be:	0011      	movs	r1, r2
    a4c0:	e65e      	b.n	a180 <soundEngine+0x208>
    a4c2:	4b21      	ldr	r3, [pc, #132]	; (a548 <soundEngine+0x5d0>)
    a4c4:	6019      	str	r1, [r3, #0]
    a4c6:	e65b      	b.n	a180 <soundEngine+0x208>
    a4c8:	017f      	lsls	r7, r7, #5
    a4ca:	19e7      	adds	r7, r4, r7
    a4cc:	005b      	lsls	r3, r3, #1
    a4ce:	717b      	strb	r3, [r7, #5]
    a4d0:	0011      	movs	r1, r2
    a4d2:	e655      	b.n	a180 <soundEngine+0x208>
    a4d4:	465b      	mov	r3, fp
    a4d6:	18e3      	adds	r3, r4, r3
    a4d8:	7cd9      	ldrb	r1, [r3, #19]
    a4da:	2000      	movs	r0, #0
    a4dc:	468c      	mov	ip, r1
    a4de:	4659      	mov	r1, fp
    a4e0:	61d8      	str	r0, [r3, #28]
    a4e2:	5508      	strb	r0, [r1, r4]
    a4e4:	0178      	lsls	r0, r7, #5
    a4e6:	b233      	sxth	r3, r6
    a4e8:	4661      	mov	r1, ip
    a4ea:	1900      	adds	r0, r0, r4
    a4ec:	4e18      	ldr	r6, [pc, #96]	; (a550 <soundEngine+0x5d8>)
    a4ee:	47b0      	blx	r6
    a4f0:	465b      	mov	r3, fp
    a4f2:	2220      	movs	r2, #32
    a4f4:	5d1b      	ldrb	r3, [r3, r4]
    a4f6:	6829      	ldr	r1, [r5, #0]
    a4f8:	4313      	orrs	r3, r2
    a4fa:	465a      	mov	r2, fp
    a4fc:	5513      	strb	r3, [r2, r4]
    a4fe:	e63f      	b.n	a180 <soundEngine+0x208>
    a500:	2001      	movs	r0, #1
    a502:	7821      	ldrb	r1, [r4, #0]
    a504:	237f      	movs	r3, #127	; 0x7f
    a506:	4019      	ands	r1, r3
    a508:	2300      	movs	r3, #0
    a50a:	7021      	strb	r1, [r4, #0]
    a50c:	61e3      	str	r3, [r4, #28]
    a50e:	e6af      	b.n	a270 <soundEngine+0x2f8>
    a510:	0001      	movs	r1, r0
    a512:	e635      	b.n	a180 <soundEngine+0x208>
    a514:	017f      	lsls	r7, r7, #5
    a516:	19e7      	adds	r7, r4, r7
    a518:	005b      	lsls	r3, r3, #1
    a51a:	737b      	strb	r3, [r7, #13]
    a51c:	0011      	movs	r1, r2
    a51e:	e62f      	b.n	a180 <soundEngine+0x208>
    a520:	2200      	movs	r2, #0
    a522:	490c      	ldr	r1, [pc, #48]	; (a554 <soundEngine+0x5dc>)
    a524:	3301      	adds	r3, #1
    a526:	700a      	strb	r2, [r1, #0]
    a528:	b29b      	uxth	r3, r3
    a52a:	e647      	b.n	a1bc <soundEngine+0x244>
    a52c:	3301      	adds	r3, #1
    a52e:	b29b      	uxth	r3, r3
    a530:	e644      	b.n	a1bc <soundEngine+0x244>
    a532:	1c58      	adds	r0, r3, #1
    a534:	b280      	uxth	r0, r0
    a536:	e69b      	b.n	a270 <soundEngine+0x2f8>
    a538:	3001      	adds	r0, #1
    a53a:	b280      	uxth	r0, r0
    a53c:	e7e2      	b.n	a504 <soundEngine+0x58c>
    a53e:	46c0      	nop			; (mov r8, r8)
    a540:	2000080c 	.word	0x2000080c
    a544:	0001f38c 	.word	0x0001f38c
    a548:	20000804 	.word	0x20000804
    a54c:	000063cd 	.word	0x000063cd
    a550:	00009e11 	.word	0x00009e11
    a554:	200006b4 	.word	0x200006b4

0000a558 <triggerFx>:
    a558:	b5f0      	push	{r4, r5, r6, r7, lr}
    a55a:	4646      	mov	r6, r8
    a55c:	46d6      	mov	lr, sl
    a55e:	464f      	mov	r7, r9
    a560:	4688      	mov	r8, r1
    a562:	b5c0      	push	{r6, r7, lr}
    a564:	2800      	cmp	r0, #0
    a566:	db3c      	blt.n	a5e2 <triggerFx+0x8a>
    a568:	2360      	movs	r3, #96	; 0x60
    a56a:	4c3c      	ldr	r4, [pc, #240]	; (a65c <triggerFx+0x104>)
    a56c:	5ce3      	ldrb	r3, [r4, r3]
    a56e:	2b7f      	cmp	r3, #127	; 0x7f
    a570:	d83c      	bhi.n	a5ec <triggerFx+0x94>
    a572:	2660      	movs	r6, #96	; 0x60
    a574:	2703      	movs	r7, #3
    a576:	2380      	movs	r3, #128	; 0x80
    a578:	2100      	movs	r1, #0
    a57a:	017d      	lsls	r5, r7, #5
    a57c:	5563      	strb	r3, [r4, r5]
    a57e:	1963      	adds	r3, r4, r5
    a580:	61d9      	str	r1, [r3, #28]
    a582:	b2c3      	uxtb	r3, r0
    a584:	19a6      	adds	r6, r4, r6
    a586:	4699      	mov	r9, r3
    a588:	0793      	lsls	r3, r2, #30
    a58a:	d53c      	bpl.n	a606 <triggerFx+0xae>
    a58c:	4b34      	ldr	r3, [pc, #208]	; (a660 <triggerFx+0x108>)
    a58e:	0100      	lsls	r0, r0, #4
    a590:	681b      	ldr	r3, [r3, #0]
    a592:	4934      	ldr	r1, [pc, #208]	; (a664 <triggerFx+0x10c>)
    a594:	469a      	mov	sl, r3
    a596:	4482      	add	sl, r0
    a598:	4653      	mov	r3, sl
    a59a:	2202      	movs	r2, #2
    a59c:	5e9a      	ldrsh	r2, [r3, r2]
    a59e:	0053      	lsls	r3, r2, #1
    a5a0:	189b      	adds	r3, r3, r2
    a5a2:	4a31      	ldr	r2, [pc, #196]	; (a668 <triggerFx+0x110>)
    a5a4:	009b      	lsls	r3, r3, #2
    a5a6:	18d3      	adds	r3, r2, r3
    a5a8:	8918      	ldrh	r0, [r3, #8]
    a5aa:	4b30      	ldr	r3, [pc, #192]	; (a66c <triggerFx+0x114>)
    a5ac:	0200      	lsls	r0, r0, #8
    a5ae:	4798      	blx	r3
    a5b0:	007b      	lsls	r3, r7, #1
    a5b2:	19df      	adds	r7, r3, r7
    a5b4:	4b2e      	ldr	r3, [pc, #184]	; (a670 <triggerFx+0x118>)
    a5b6:	00ff      	lsls	r7, r7, #3
    a5b8:	19df      	adds	r7, r3, r7
    a5ba:	4653      	mov	r3, sl
    a5bc:	4652      	mov	r2, sl
    a5be:	689b      	ldr	r3, [r3, #8]
    a5c0:	68d2      	ldr	r2, [r2, #12]
    a5c2:	3301      	adds	r3, #1
    a5c4:	6138      	str	r0, [r7, #16]
    a5c6:	4293      	cmp	r3, r2
    a5c8:	d300      	bcc.n	a5cc <triggerFx+0x74>
    a5ca:	60f8      	str	r0, [r7, #12]
    a5cc:	2301      	movs	r3, #1
    a5ce:	425b      	negs	r3, r3
    a5d0:	4642      	mov	r2, r8
    a5d2:	0030      	movs	r0, r6
    a5d4:	4649      	mov	r1, r9
    a5d6:	4e27      	ldr	r6, [pc, #156]	; (a674 <triggerFx+0x11c>)
    a5d8:	47b0      	blx	r6
    a5da:	2220      	movs	r2, #32
    a5dc:	5d63      	ldrb	r3, [r4, r5]
    a5de:	4313      	orrs	r3, r2
    a5e0:	5563      	strb	r3, [r4, r5]
    a5e2:	bc1c      	pop	{r2, r3, r4}
    a5e4:	4690      	mov	r8, r2
    a5e6:	4699      	mov	r9, r3
    a5e8:	46a2      	mov	sl, r4
    a5ea:	bdf0      	pop	{r4, r5, r6, r7, pc}
    a5ec:	2374      	movs	r3, #116	; 0x74
    a5ee:	2101      	movs	r1, #1
    a5f0:	5ce3      	ldrb	r3, [r4, r3]
    a5f2:	4011      	ands	r1, r2
    a5f4:	4283      	cmp	r3, r0
    a5f6:	d008      	beq.n	a60a <triggerFx+0xb2>
    a5f8:	2320      	movs	r3, #32
    a5fa:	5ce3      	ldrb	r3, [r4, r3]
    a5fc:	2b7f      	cmp	r3, #127	; 0x7f
    a5fe:	d807      	bhi.n	a610 <triggerFx+0xb8>
    a600:	2620      	movs	r6, #32
    a602:	2701      	movs	r7, #1
    a604:	e7b7      	b.n	a576 <triggerFx+0x1e>
    a606:	2350      	movs	r3, #80	; 0x50
    a608:	e7e2      	b.n	a5d0 <triggerFx+0x78>
    a60a:	2900      	cmp	r1, #0
    a60c:	d1b1      	bne.n	a572 <triggerFx+0x1a>
    a60e:	e7f3      	b.n	a5f8 <triggerFx+0xa0>
    a610:	2334      	movs	r3, #52	; 0x34
    a612:	5ce3      	ldrb	r3, [r4, r3]
    a614:	4298      	cmp	r0, r3
    a616:	d017      	beq.n	a648 <triggerFx+0xf0>
    a618:	2340      	movs	r3, #64	; 0x40
    a61a:	5ce3      	ldrb	r3, [r4, r3]
    a61c:	2b7f      	cmp	r3, #127	; 0x7f
    a61e:	d802      	bhi.n	a626 <triggerFx+0xce>
    a620:	2640      	movs	r6, #64	; 0x40
    a622:	2702      	movs	r7, #2
    a624:	e7a7      	b.n	a576 <triggerFx+0x1e>
    a626:	2354      	movs	r3, #84	; 0x54
    a628:	5ce3      	ldrb	r3, [r4, r3]
    a62a:	4298      	cmp	r0, r3
    a62c:	d012      	beq.n	a654 <triggerFx+0xfc>
    a62e:	215a      	movs	r1, #90	; 0x5a
    a630:	8f63      	ldrh	r3, [r4, #58]	; 0x3a
    a632:	5a61      	ldrh	r1, [r4, r1]
    a634:	428b      	cmp	r3, r1
    a636:	d20a      	bcs.n	a64e <triggerFx+0xf6>
    a638:	000b      	movs	r3, r1
    a63a:	2640      	movs	r6, #64	; 0x40
    a63c:	2702      	movs	r7, #2
    a63e:	217a      	movs	r1, #122	; 0x7a
    a640:	5a61      	ldrh	r1, [r4, r1]
    a642:	4299      	cmp	r1, r3
    a644:	d997      	bls.n	a576 <triggerFx+0x1e>
    a646:	e794      	b.n	a572 <triggerFx+0x1a>
    a648:	2900      	cmp	r1, #0
    a64a:	d1d9      	bne.n	a600 <triggerFx+0xa8>
    a64c:	e7e4      	b.n	a618 <triggerFx+0xc0>
    a64e:	2620      	movs	r6, #32
    a650:	2701      	movs	r7, #1
    a652:	e7f4      	b.n	a63e <triggerFx+0xe6>
    a654:	2900      	cmp	r1, #0
    a656:	d1e3      	bne.n	a620 <triggerFx+0xc8>
    a658:	e7e9      	b.n	a62e <triggerFx+0xd6>
    a65a:	46c0      	nop			; (mov r8, r8)
    a65c:	20000770 	.word	0x20000770
    a660:	200007f4 	.word	0x200007f4
    a664:	00007530 	.word	0x00007530
    a668:	0001d7b8 	.word	0x0001d7b8
    a66c:	0000ba99 	.word	0x0000ba99
    a670:	2000080c 	.word	0x2000080c
    a674:	00009e11 	.word	0x00009e11

0000a678 <_out_buffer>:
    a678:	429a      	cmp	r2, r3
    a67a:	d200      	bcs.n	a67e <_out_buffer+0x6>
    a67c:	5488      	strb	r0, [r1, r2]
    a67e:	4770      	bx	lr

0000a680 <_out_null>:
    a680:	4770      	bx	lr
    a682:	46c0      	nop			; (mov r8, r8)

0000a684 <_ntoa_long>:
    a684:	b5f0      	push	{r4, r5, r6, r7, lr}
    a686:	464e      	mov	r6, r9
    a688:	4645      	mov	r5, r8
    a68a:	4657      	mov	r7, sl
    a68c:	46de      	mov	lr, fp
    a68e:	b5e0      	push	{r5, r6, r7, lr}
    a690:	b08f      	sub	sp, #60	; 0x3c
    a692:	4698      	mov	r8, r3
    a694:	ab18      	add	r3, sp, #96	; 0x60
    a696:	cb20      	ldmia	r3!, {r5}
    a698:	9202      	str	r2, [sp, #8]
    a69a:	781b      	ldrb	r3, [r3, #0]
    a69c:	9a1d      	ldr	r2, [sp, #116]	; 0x74
    a69e:	9304      	str	r3, [sp, #16]
    a6a0:	9b1a      	ldr	r3, [sp, #104]	; 0x68
    a6a2:	0006      	movs	r6, r0
    a6a4:	4699      	mov	r9, r3
    a6a6:	2380      	movs	r3, #128	; 0x80
    a6a8:	00db      	lsls	r3, r3, #3
    a6aa:	401a      	ands	r2, r3
    a6ac:	000f      	movs	r7, r1
    a6ae:	9205      	str	r2, [sp, #20]
    a6b0:	2310      	movs	r3, #16
    a6b2:	2d00      	cmp	r5, #0
    a6b4:	d168      	bne.n	a788 <_ntoa_long+0x104>
    a6b6:	991d      	ldr	r1, [sp, #116]	; 0x74
    a6b8:	4399      	bics	r1, r3
    a6ba:	000b      	movs	r3, r1
    a6bc:	2a00      	cmp	r2, #0
    a6be:	d16c      	bne.n	a79a <_ntoa_long+0x116>
    a6c0:	911d      	str	r1, [sp, #116]	; 0x74
    a6c2:	9203      	str	r2, [sp, #12]
    a6c4:	9a1d      	ldr	r2, [sp, #116]	; 0x74
    a6c6:	2361      	movs	r3, #97	; 0x61
    a6c8:	0692      	lsls	r2, r2, #26
    a6ca:	d464      	bmi.n	a796 <_ntoa_long+0x112>
    a6cc:	4ab8      	ldr	r2, [pc, #736]	; (a9b0 <_ntoa_long+0x32c>)
    a6ce:	b2db      	uxtb	r3, r3
    a6d0:	3b0a      	subs	r3, #10
    a6d2:	4693      	mov	fp, r2
    a6d4:	a906      	add	r1, sp, #24
    a6d6:	2201      	movs	r2, #1
    a6d8:	468c      	mov	ip, r1
    a6da:	9301      	str	r3, [sp, #4]
    a6dc:	464b      	mov	r3, r9
    a6de:	4252      	negs	r2, r2
    a6e0:	4462      	add	r2, ip
    a6e2:	931a      	str	r3, [sp, #104]	; 0x68
    a6e4:	46b1      	mov	r9, r6
    a6e6:	46ba      	mov	sl, r7
    a6e8:	2400      	movs	r4, #0
    a6ea:	0017      	movs	r7, r2
    a6ec:	9e1a      	ldr	r6, [sp, #104]	; 0x68
    a6ee:	e008      	b.n	a702 <_ntoa_long+0x7e>
    a6f0:	3330      	adds	r3, #48	; 0x30
    a6f2:	b2db      	uxtb	r3, r3
    a6f4:	3401      	adds	r4, #1
    a6f6:	553b      	strb	r3, [r7, r4]
    a6f8:	42b5      	cmp	r5, r6
    a6fa:	d310      	bcc.n	a71e <_ntoa_long+0x9a>
    a6fc:	2c20      	cmp	r4, #32
    a6fe:	d00e      	beq.n	a71e <_ntoa_long+0x9a>
    a700:	0005      	movs	r5, r0
    a702:	0031      	movs	r1, r6
    a704:	0028      	movs	r0, r5
    a706:	47d8      	blx	fp
    a708:	b2cb      	uxtb	r3, r1
    a70a:	2909      	cmp	r1, #9
    a70c:	d9f0      	bls.n	a6f0 <_ntoa_long+0x6c>
    a70e:	9a01      	ldr	r2, [sp, #4]
    a710:	3401      	adds	r4, #1
    a712:	4694      	mov	ip, r2
    a714:	4463      	add	r3, ip
    a716:	b2db      	uxtb	r3, r3
    a718:	553b      	strb	r3, [r7, r4]
    a71a:	42b5      	cmp	r5, r6
    a71c:	d2ee      	bcs.n	a6fc <_ntoa_long+0x78>
    a71e:	961a      	str	r6, [sp, #104]	; 0x68
    a720:	9b1a      	ldr	r3, [sp, #104]	; 0x68
    a722:	464e      	mov	r6, r9
    a724:	4699      	mov	r9, r3
    a726:	2302      	movs	r3, #2
    a728:	9a1d      	ldr	r2, [sp, #116]	; 0x74
    a72a:	4657      	mov	r7, sl
    a72c:	401a      	ands	r2, r3
    a72e:	4693      	mov	fp, r2
    a730:	d03d      	beq.n	a7ae <_ntoa_long+0x12a>
    a732:	9b03      	ldr	r3, [sp, #12]
    a734:	2b00      	cmp	r3, #0
    a736:	d100      	bne.n	a73a <_ntoa_long+0xb6>
    a738:	e084      	b.n	a844 <_ntoa_long+0x1c0>
    a73a:	9b05      	ldr	r3, [sp, #20]
    a73c:	2b00      	cmp	r3, #0
    a73e:	d000      	beq.n	a742 <_ntoa_long+0xbe>
    a740:	e0d8      	b.n	a8f4 <_ntoa_long+0x270>
    a742:	2c00      	cmp	r4, #0
    a744:	d15e      	bne.n	a804 <_ntoa_long+0x180>
    a746:	464b      	mov	r3, r9
    a748:	2b10      	cmp	r3, #16
    a74a:	d100      	bne.n	a74e <_ntoa_long+0xca>
    a74c:	e165      	b.n	aa1a <_ntoa_long+0x396>
    a74e:	2b02      	cmp	r3, #2
    a750:	d100      	bne.n	a754 <_ntoa_long+0xd0>
    a752:	e14e      	b.n	a9f2 <_ntoa_long+0x36e>
    a754:	ab06      	add	r3, sp, #24
    a756:	469a      	mov	sl, r3
    a758:	2330      	movs	r3, #48	; 0x30
    a75a:	4652      	mov	r2, sl
    a75c:	2401      	movs	r4, #1
    a75e:	7013      	strb	r3, [r2, #0]
    a760:	9b04      	ldr	r3, [sp, #16]
    a762:	2b00      	cmp	r3, #0
    a764:	d100      	bne.n	a768 <_ntoa_long+0xe4>
    a766:	e0d0      	b.n	a90a <_ntoa_long+0x286>
    a768:	1c63      	adds	r3, r4, #1
    a76a:	9301      	str	r3, [sp, #4]
    a76c:	ab06      	add	r3, sp, #24
    a76e:	469a      	mov	sl, r3
    a770:	232d      	movs	r3, #45	; 0x2d
    a772:	4652      	mov	r2, sl
    a774:	5513      	strb	r3, [r2, r4]
    a776:	9b1d      	ldr	r3, [sp, #116]	; 0x74
    a778:	079b      	lsls	r3, r3, #30
    a77a:	d103      	bne.n	a784 <_ntoa_long+0x100>
    a77c:	9b1c      	ldr	r3, [sp, #112]	; 0x70
    a77e:	9a01      	ldr	r2, [sp, #4]
    a780:	4293      	cmp	r3, r2
    a782:	d870      	bhi.n	a866 <_ntoa_long+0x1e2>
    a784:	9d02      	ldr	r5, [sp, #8]
    a786:	e083      	b.n	a890 <_ntoa_long+0x20c>
    a788:	9a1d      	ldr	r2, [sp, #116]	; 0x74
    a78a:	401a      	ands	r2, r3
    a78c:	9203      	str	r2, [sp, #12]
    a78e:	9a1d      	ldr	r2, [sp, #116]	; 0x74
    a790:	2361      	movs	r3, #97	; 0x61
    a792:	0692      	lsls	r2, r2, #26
    a794:	d59a      	bpl.n	a6cc <_ntoa_long+0x48>
    a796:	2341      	movs	r3, #65	; 0x41
    a798:	e798      	b.n	a6cc <_ntoa_long+0x48>
    a79a:	2202      	movs	r2, #2
    a79c:	991d      	ldr	r1, [sp, #116]	; 0x74
    a79e:	2400      	movs	r4, #0
    a7a0:	4011      	ands	r1, r2
    a7a2:	468b      	mov	fp, r1
    a7a4:	931d      	str	r3, [sp, #116]	; 0x74
    a7a6:	d1db      	bne.n	a760 <_ntoa_long+0xdc>
    a7a8:	2300      	movs	r3, #0
    a7aa:	2400      	movs	r4, #0
    a7ac:	9303      	str	r3, [sp, #12]
    a7ae:	2301      	movs	r3, #1
    a7b0:	9a1d      	ldr	r2, [sp, #116]	; 0x74
    a7b2:	401a      	ands	r2, r3
    a7b4:	9b1c      	ldr	r3, [sp, #112]	; 0x70
    a7b6:	4693      	mov	fp, r2
    a7b8:	2b00      	cmp	r3, #0
    a7ba:	d100      	bne.n	a7be <_ntoa_long+0x13a>
    a7bc:	e0b2      	b.n	a924 <_ntoa_long+0x2a0>
    a7be:	2a00      	cmp	r2, #0
    a7c0:	d100      	bne.n	a7c4 <_ntoa_long+0x140>
    a7c2:	e0ee      	b.n	a9a2 <_ntoa_long+0x31e>
    a7c4:	9b04      	ldr	r3, [sp, #16]
    a7c6:	2b00      	cmp	r3, #0
    a7c8:	d103      	bne.n	a7d2 <_ntoa_long+0x14e>
    a7ca:	9a1d      	ldr	r2, [sp, #116]	; 0x74
    a7cc:	330c      	adds	r3, #12
    a7ce:	4213      	tst	r3, r2
    a7d0:	d002      	beq.n	a7d8 <_ntoa_long+0x154>
    a7d2:	9b1c      	ldr	r3, [sp, #112]	; 0x70
    a7d4:	3b01      	subs	r3, #1
    a7d6:	931c      	str	r3, [sp, #112]	; 0x70
    a7d8:	9b1b      	ldr	r3, [sp, #108]	; 0x6c
    a7da:	42a3      	cmp	r3, r4
    a7dc:	d800      	bhi.n	a7e0 <_ntoa_long+0x15c>
    a7de:	e0ba      	b.n	a956 <_ntoa_long+0x2d2>
    a7e0:	2c20      	cmp	r4, #32
    a7e2:	d000      	beq.n	a7e6 <_ntoa_long+0x162>
    a7e4:	e0a3      	b.n	a92e <_ntoa_long+0x2aa>
    a7e6:	9b1c      	ldr	r3, [sp, #112]	; 0x70
    a7e8:	2b20      	cmp	r3, #32
    a7ea:	d800      	bhi.n	a7ee <_ntoa_long+0x16a>
    a7ec:	e0ca      	b.n	a984 <_ntoa_long+0x300>
    a7ee:	9b03      	ldr	r3, [sp, #12]
    a7f0:	469b      	mov	fp, r3
    a7f2:	2b00      	cmp	r3, #0
    a7f4:	d028      	beq.n	a848 <_ntoa_long+0x1c4>
    a7f6:	9b05      	ldr	r3, [sp, #20]
    a7f8:	2b00      	cmp	r3, #0
    a7fa:	d000      	beq.n	a7fe <_ntoa_long+0x17a>
    a7fc:	e077      	b.n	a8ee <_ntoa_long+0x26a>
    a7fe:	2300      	movs	r3, #0
    a800:	2420      	movs	r4, #32
    a802:	469b      	mov	fp, r3
    a804:	9b1b      	ldr	r3, [sp, #108]	; 0x6c
    a806:	42a3      	cmp	r3, r4
    a808:	d003      	beq.n	a812 <_ntoa_long+0x18e>
    a80a:	9b1c      	ldr	r3, [sp, #112]	; 0x70
    a80c:	42a3      	cmp	r3, r4
    a80e:	d000      	beq.n	a812 <_ntoa_long+0x18e>
    a810:	e070      	b.n	a8f4 <_ntoa_long+0x270>
    a812:	1e63      	subs	r3, r4, #1
    a814:	464a      	mov	r2, r9
    a816:	2b00      	cmp	r3, #0
    a818:	d100      	bne.n	a81c <_ntoa_long+0x198>
    a81a:	e0f1      	b.n	aa00 <_ntoa_long+0x37c>
    a81c:	2a10      	cmp	r2, #16
    a81e:	d100      	bne.n	a822 <_ntoa_long+0x19e>
    a820:	e105      	b.n	aa2e <_ntoa_long+0x3aa>
    a822:	aa06      	add	r2, sp, #24
    a824:	4692      	mov	sl, r2
    a826:	464a      	mov	r2, r9
    a828:	2a02      	cmp	r2, #2
    a82a:	d107      	bne.n	a83c <_ntoa_long+0x1b8>
    a82c:	4453      	add	r3, sl
    a82e:	2262      	movs	r2, #98	; 0x62
    a830:	701a      	strb	r2, [r3, #0]
    a832:	2c20      	cmp	r4, #32
    a834:	d008      	beq.n	a848 <_ntoa_long+0x1c4>
    a836:	aa06      	add	r2, sp, #24
    a838:	0023      	movs	r3, r4
    a83a:	4692      	mov	sl, r2
    a83c:	2230      	movs	r2, #48	; 0x30
    a83e:	4651      	mov	r1, sl
    a840:	1c5c      	adds	r4, r3, #1
    a842:	54ca      	strb	r2, [r1, r3]
    a844:	2c20      	cmp	r4, #32
    a846:	d18b      	bne.n	a760 <_ntoa_long+0xdc>
    a848:	9b1d      	ldr	r3, [sp, #116]	; 0x74
    a84a:	079b      	lsls	r3, r3, #30
    a84c:	d005      	beq.n	a85a <_ntoa_long+0x1d6>
    a84e:	2320      	movs	r3, #32
    a850:	9301      	str	r3, [sp, #4]
    a852:	ab06      	add	r3, sp, #24
    a854:	9d02      	ldr	r5, [sp, #8]
    a856:	469a      	mov	sl, r3
    a858:	e01a      	b.n	a890 <_ntoa_long+0x20c>
    a85a:	2320      	movs	r3, #32
    a85c:	001a      	movs	r2, r3
    a85e:	9301      	str	r3, [sp, #4]
    a860:	9b1c      	ldr	r3, [sp, #112]	; 0x70
    a862:	4293      	cmp	r3, r2
    a864:	d95c      	bls.n	a920 <_ntoa_long+0x29c>
    a866:	9a02      	ldr	r2, [sp, #8]
    a868:	991c      	ldr	r1, [sp, #112]	; 0x70
    a86a:	0013      	movs	r3, r2
    a86c:	468c      	mov	ip, r1
    a86e:	4463      	add	r3, ip
    a870:	001d      	movs	r5, r3
    a872:	9b01      	ldr	r3, [sp, #4]
    a874:	1aed      	subs	r5, r5, r3
    a876:	1c54      	adds	r4, r2, #1
    a878:	4643      	mov	r3, r8
    a87a:	0039      	movs	r1, r7
    a87c:	2020      	movs	r0, #32
    a87e:	47b0      	blx	r6
    a880:	0022      	movs	r2, r4
    a882:	42ac      	cmp	r4, r5
    a884:	d1f7      	bne.n	a876 <_ntoa_long+0x1f2>
    a886:	9b01      	ldr	r3, [sp, #4]
    a888:	2b00      	cmp	r3, #0
    a88a:	d015      	beq.n	a8b8 <_ntoa_long+0x234>
    a88c:	ab06      	add	r3, sp, #24
    a88e:	469a      	mov	sl, r3
    a890:	9b01      	ldr	r3, [sp, #4]
    a892:	002a      	movs	r2, r5
    a894:	1e5c      	subs	r4, r3, #1
    a896:	4454      	add	r4, sl
    a898:	46a9      	mov	r9, r5
    a89a:	e000      	b.n	a89e <_ntoa_long+0x21a>
    a89c:	001c      	movs	r4, r3
    a89e:	1c55      	adds	r5, r2, #1
    a8a0:	4643      	mov	r3, r8
    a8a2:	7820      	ldrb	r0, [r4, #0]
    a8a4:	0039      	movs	r1, r7
    a8a6:	47b0      	blx	r6
    a8a8:	1e63      	subs	r3, r4, #1
    a8aa:	002a      	movs	r2, r5
    a8ac:	45a2      	cmp	sl, r4
    a8ae:	d1f5      	bne.n	a89c <_ntoa_long+0x218>
    a8b0:	9b01      	ldr	r3, [sp, #4]
    a8b2:	464d      	mov	r5, r9
    a8b4:	469c      	mov	ip, r3
    a8b6:	4465      	add	r5, ip
    a8b8:	465b      	mov	r3, fp
    a8ba:	2b00      	cmp	r3, #0
    a8bc:	d00f      	beq.n	a8de <_ntoa_long+0x25a>
    a8be:	9b02      	ldr	r3, [sp, #8]
    a8c0:	1aec      	subs	r4, r5, r3
    a8c2:	9b1c      	ldr	r3, [sp, #112]	; 0x70
    a8c4:	429c      	cmp	r4, r3
    a8c6:	d20a      	bcs.n	a8de <_ntoa_long+0x25a>
    a8c8:	002a      	movs	r2, r5
    a8ca:	4699      	mov	r9, r3
    a8cc:	3501      	adds	r5, #1
    a8ce:	4643      	mov	r3, r8
    a8d0:	0039      	movs	r1, r7
    a8d2:	2020      	movs	r0, #32
    a8d4:	3401      	adds	r4, #1
    a8d6:	47b0      	blx	r6
    a8d8:	002a      	movs	r2, r5
    a8da:	45a1      	cmp	r9, r4
    a8dc:	d8f6      	bhi.n	a8cc <_ntoa_long+0x248>
    a8de:	0028      	movs	r0, r5
    a8e0:	b00f      	add	sp, #60	; 0x3c
    a8e2:	bc3c      	pop	{r2, r3, r4, r5}
    a8e4:	4690      	mov	r8, r2
    a8e6:	4699      	mov	r9, r3
    a8e8:	46a2      	mov	sl, r4
    a8ea:	46ab      	mov	fp, r5
    a8ec:	bdf0      	pop	{r4, r5, r6, r7, pc}
    a8ee:	2300      	movs	r3, #0
    a8f0:	2420      	movs	r4, #32
    a8f2:	469b      	mov	fp, r3
    a8f4:	464b      	mov	r3, r9
    a8f6:	2b10      	cmp	r3, #16
    a8f8:	d05c      	beq.n	a9b4 <_ntoa_long+0x330>
    a8fa:	2b02      	cmp	r3, #2
    a8fc:	d199      	bne.n	a832 <_ntoa_long+0x1ae>
    a8fe:	2c20      	cmp	r4, #32
    a900:	d0a2      	beq.n	a848 <_ntoa_long+0x1c4>
    a902:	ab06      	add	r3, sp, #24
    a904:	191b      	adds	r3, r3, r4
    a906:	3401      	adds	r4, #1
    a908:	e791      	b.n	a82e <_ntoa_long+0x1aa>
    a90a:	9b1d      	ldr	r3, [sp, #116]	; 0x74
    a90c:	075b      	lsls	r3, r3, #29
    a90e:	d440      	bmi.n	a992 <_ntoa_long+0x30e>
    a910:	9b1d      	ldr	r3, [sp, #116]	; 0x74
    a912:	071b      	lsls	r3, r3, #28
    a914:	d45a      	bmi.n	a9cc <_ntoa_long+0x348>
    a916:	9b1d      	ldr	r3, [sp, #116]	; 0x74
    a918:	9401      	str	r4, [sp, #4]
    a91a:	0022      	movs	r2, r4
    a91c:	079b      	lsls	r3, r3, #30
    a91e:	d09f      	beq.n	a860 <_ntoa_long+0x1dc>
    a920:	9d02      	ldr	r5, [sp, #8]
    a922:	e7b0      	b.n	a886 <_ntoa_long+0x202>
    a924:	9b1b      	ldr	r3, [sp, #108]	; 0x6c
    a926:	42a3      	cmp	r3, r4
    a928:	d911      	bls.n	a94e <_ntoa_long+0x2ca>
    a92a:	2c20      	cmp	r4, #32
    a92c:	d00f      	beq.n	a94e <_ntoa_long+0x2ca>
    a92e:	aa06      	add	r2, sp, #24
    a930:	2301      	movs	r3, #1
    a932:	4694      	mov	ip, r2
    a934:	425b      	negs	r3, r3
    a936:	4463      	add	r3, ip
    a938:	469a      	mov	sl, r3
    a93a:	9a1b      	ldr	r2, [sp, #108]	; 0x6c
    a93c:	2330      	movs	r3, #48	; 0x30
    a93e:	4651      	mov	r1, sl
    a940:	e001      	b.n	a946 <_ntoa_long+0x2c2>
    a942:	2c20      	cmp	r4, #32
    a944:	d003      	beq.n	a94e <_ntoa_long+0x2ca>
    a946:	3401      	adds	r4, #1
    a948:	550b      	strb	r3, [r1, r4]
    a94a:	42a2      	cmp	r2, r4
    a94c:	d8f9      	bhi.n	a942 <_ntoa_long+0x2be>
    a94e:	465b      	mov	r3, fp
    a950:	2b00      	cmp	r3, #0
    a952:	d100      	bne.n	a956 <_ntoa_long+0x2d2>
    a954:	e6ed      	b.n	a732 <_ntoa_long+0xae>
    a956:	9b1c      	ldr	r3, [sp, #112]	; 0x70
    a958:	429c      	cmp	r4, r3
    a95a:	d213      	bcs.n	a984 <_ntoa_long+0x300>
    a95c:	2c1f      	cmp	r4, #31
    a95e:	d900      	bls.n	a962 <_ntoa_long+0x2de>
    a960:	e745      	b.n	a7ee <_ntoa_long+0x16a>
    a962:	aa06      	add	r2, sp, #24
    a964:	2301      	movs	r3, #1
    a966:	4694      	mov	ip, r2
    a968:	425b      	negs	r3, r3
    a96a:	4463      	add	r3, ip
    a96c:	469a      	mov	sl, r3
    a96e:	9a1c      	ldr	r2, [sp, #112]	; 0x70
    a970:	2330      	movs	r3, #48	; 0x30
    a972:	4651      	mov	r1, sl
    a974:	e002      	b.n	a97c <_ntoa_long+0x2f8>
    a976:	2c20      	cmp	r4, #32
    a978:	d100      	bne.n	a97c <_ntoa_long+0x2f8>
    a97a:	e738      	b.n	a7ee <_ntoa_long+0x16a>
    a97c:	3401      	adds	r4, #1
    a97e:	550b      	strb	r3, [r1, r4]
    a980:	4294      	cmp	r4, r2
    a982:	d1f8      	bne.n	a976 <_ntoa_long+0x2f2>
    a984:	2300      	movs	r3, #0
    a986:	469b      	mov	fp, r3
    a988:	9b03      	ldr	r3, [sp, #12]
    a98a:	2b00      	cmp	r3, #0
    a98c:	d000      	beq.n	a990 <_ntoa_long+0x30c>
    a98e:	e6d4      	b.n	a73a <_ntoa_long+0xb6>
    a990:	e758      	b.n	a844 <_ntoa_long+0x1c0>
    a992:	1c63      	adds	r3, r4, #1
    a994:	9301      	str	r3, [sp, #4]
    a996:	ab06      	add	r3, sp, #24
    a998:	469a      	mov	sl, r3
    a99a:	232b      	movs	r3, #43	; 0x2b
    a99c:	4652      	mov	r2, sl
    a99e:	5513      	strb	r3, [r2, r4]
    a9a0:	e6e9      	b.n	a776 <_ntoa_long+0xf2>
    a9a2:	9b1b      	ldr	r3, [sp, #108]	; 0x6c
    a9a4:	42a3      	cmp	r3, r4
    a9a6:	d800      	bhi.n	a9aa <_ntoa_long+0x326>
    a9a8:	e6c3      	b.n	a732 <_ntoa_long+0xae>
    a9aa:	2c20      	cmp	r4, #32
    a9ac:	d1bf      	bne.n	a92e <_ntoa_long+0x2aa>
    a9ae:	e6c0      	b.n	a732 <_ntoa_long+0xae>
    a9b0:	0000ba91 	.word	0x0000ba91
    a9b4:	9b1d      	ldr	r3, [sp, #116]	; 0x74
    a9b6:	069b      	lsls	r3, r3, #26
    a9b8:	d410      	bmi.n	a9dc <_ntoa_long+0x358>
    a9ba:	2c20      	cmp	r4, #32
    a9bc:	d100      	bne.n	a9c0 <_ntoa_long+0x33c>
    a9be:	e743      	b.n	a848 <_ntoa_long+0x1c4>
    a9c0:	ab06      	add	r3, sp, #24
    a9c2:	191a      	adds	r2, r3, r4
    a9c4:	3401      	adds	r4, #1
    a9c6:	2378      	movs	r3, #120	; 0x78
    a9c8:	7013      	strb	r3, [r2, #0]
    a9ca:	e732      	b.n	a832 <_ntoa_long+0x1ae>
    a9cc:	1c63      	adds	r3, r4, #1
    a9ce:	9301      	str	r3, [sp, #4]
    a9d0:	ab06      	add	r3, sp, #24
    a9d2:	469a      	mov	sl, r3
    a9d4:	2320      	movs	r3, #32
    a9d6:	4652      	mov	r2, sl
    a9d8:	5513      	strb	r3, [r2, r4]
    a9da:	e6cc      	b.n	a776 <_ntoa_long+0xf2>
    a9dc:	2c20      	cmp	r4, #32
    a9de:	d100      	bne.n	a9e2 <_ntoa_long+0x35e>
    a9e0:	e732      	b.n	a848 <_ntoa_long+0x1c4>
    a9e2:	aa06      	add	r2, sp, #24
    a9e4:	4692      	mov	sl, r2
    a9e6:	0023      	movs	r3, r4
    a9e8:	2258      	movs	r2, #88	; 0x58
    a9ea:	4651      	mov	r1, sl
    a9ec:	3401      	adds	r4, #1
    a9ee:	54ca      	strb	r2, [r1, r3]
    a9f0:	e71f      	b.n	a832 <_ntoa_long+0x1ae>
    a9f2:	ab06      	add	r3, sp, #24
    a9f4:	469a      	mov	sl, r3
    a9f6:	2362      	movs	r3, #98	; 0x62
    a9f8:	4652      	mov	r2, sl
    a9fa:	7013      	strb	r3, [r2, #0]
    a9fc:	3b61      	subs	r3, #97	; 0x61
    a9fe:	e71d      	b.n	a83c <_ntoa_long+0x1b8>
    aa00:	2a10      	cmp	r2, #16
    aa02:	d01e      	beq.n	aa42 <_ntoa_long+0x3be>
    aa04:	aa06      	add	r2, sp, #24
    aa06:	4692      	mov	sl, r2
    aa08:	464a      	mov	r2, r9
    aa0a:	2a02      	cmp	r2, #2
    aa0c:	d000      	beq.n	aa10 <_ntoa_long+0x38c>
    aa0e:	e715      	b.n	a83c <_ntoa_long+0x1b8>
    aa10:	2362      	movs	r3, #98	; 0x62
    aa12:	4652      	mov	r2, sl
    aa14:	7013      	strb	r3, [r2, #0]
    aa16:	3b61      	subs	r3, #97	; 0x61
    aa18:	e710      	b.n	a83c <_ntoa_long+0x1b8>
    aa1a:	9b1d      	ldr	r3, [sp, #116]	; 0x74
    aa1c:	069b      	lsls	r3, r3, #26
    aa1e:	d4e0      	bmi.n	a9e2 <_ntoa_long+0x35e>
    aa20:	ab06      	add	r3, sp, #24
    aa22:	469a      	mov	sl, r3
    aa24:	2378      	movs	r3, #120	; 0x78
    aa26:	4652      	mov	r2, sl
    aa28:	7013      	strb	r3, [r2, #0]
    aa2a:	3b77      	subs	r3, #119	; 0x77
    aa2c:	e706      	b.n	a83c <_ntoa_long+0x1b8>
    aa2e:	9a1d      	ldr	r2, [sp, #116]	; 0x74
    aa30:	3c02      	subs	r4, #2
    aa32:	0692      	lsls	r2, r2, #26
    aa34:	d4d5      	bmi.n	a9e2 <_ntoa_long+0x35e>
    aa36:	aa06      	add	r2, sp, #24
    aa38:	4692      	mov	sl, r2
    aa3a:	0022      	movs	r2, r4
    aa3c:	001c      	movs	r4, r3
    aa3e:	4452      	add	r2, sl
    aa40:	e7c1      	b.n	a9c6 <_ntoa_long+0x342>
    aa42:	9b1d      	ldr	r3, [sp, #116]	; 0x74
    aa44:	069b      	lsls	r3, r3, #26
    aa46:	d5eb      	bpl.n	aa20 <_ntoa_long+0x39c>
    aa48:	ab06      	add	r3, sp, #24
    aa4a:	469a      	mov	sl, r3
    aa4c:	2358      	movs	r3, #88	; 0x58
    aa4e:	4652      	mov	r2, sl
    aa50:	7013      	strb	r3, [r2, #0]
    aa52:	3b57      	subs	r3, #87	; 0x57
    aa54:	e6f2      	b.n	a83c <_ntoa_long+0x1b8>
    aa56:	46c0      	nop			; (mov r8, r8)

0000aa58 <_vsnprintf>:
    aa58:	b5f0      	push	{r4, r5, r6, r7, lr}
    aa5a:	4657      	mov	r7, sl
    aa5c:	46de      	mov	lr, fp
    aa5e:	4645      	mov	r5, r8
    aa60:	464e      	mov	r6, r9
    aa62:	b5e0      	push	{r5, r6, r7, lr}
    aa64:	b08d      	sub	sp, #52	; 0x34
    aa66:	001f      	movs	r7, r3
    aa68:	9b16      	ldr	r3, [sp, #88]	; 0x58
    aa6a:	9006      	str	r0, [sp, #24]
    aa6c:	468a      	mov	sl, r1
    aa6e:	4690      	mov	r8, r2
    aa70:	469b      	mov	fp, r3
    aa72:	2900      	cmp	r1, #0
    aa74:	d100      	bne.n	aa78 <_vsnprintf+0x20>
    aa76:	e1c5      	b.n	ae04 <_vsnprintf+0x3ac>
    aa78:	2400      	movs	r4, #0
    aa7a:	7838      	ldrb	r0, [r7, #0]
    aa7c:	0025      	movs	r5, r4
    aa7e:	2800      	cmp	r0, #0
    aa80:	d065      	beq.n	ab4e <_vsnprintf+0xf6>
    aa82:	4bcc      	ldr	r3, [pc, #816]	; (adb4 <_vsnprintf+0x35c>)
    aa84:	4699      	mov	r9, r3
    aa86:	465b      	mov	r3, fp
    aa88:	46d3      	mov	fp, sl
    aa8a:	9307      	str	r3, [sp, #28]
    aa8c:	46c2      	mov	sl, r8
    aa8e:	e009      	b.n	aaa4 <_vsnprintf+0x4c>
    aa90:	1c65      	adds	r5, r4, #1
    aa92:	0022      	movs	r2, r4
    aa94:	4653      	mov	r3, sl
    aa96:	9c06      	ldr	r4, [sp, #24]
    aa98:	4659      	mov	r1, fp
    aa9a:	47a0      	blx	r4
    aa9c:	002c      	movs	r4, r5
    aa9e:	7838      	ldrb	r0, [r7, #0]
    aaa0:	2800      	cmp	r0, #0
    aaa2:	d051      	beq.n	ab48 <_vsnprintf+0xf0>
    aaa4:	3701      	adds	r7, #1
    aaa6:	2825      	cmp	r0, #37	; 0x25
    aaa8:	d1f2      	bne.n	aa90 <_vsnprintf+0x38>
    aaaa:	2304      	movs	r3, #4
    aaac:	7838      	ldrb	r0, [r7, #0]
    aaae:	4698      	mov	r8, r3
    aab0:	3b02      	subs	r3, #2
    aab2:	469c      	mov	ip, r3
    aab4:	0003      	movs	r3, r0
    aab6:	3b20      	subs	r3, #32
    aab8:	1c79      	adds	r1, r7, #1
    aaba:	b2db      	uxtb	r3, r3
    aabc:	2500      	movs	r5, #0
    aabe:	000e      	movs	r6, r1
    aac0:	2b10      	cmp	r3, #16
    aac2:	d80e      	bhi.n	aae2 <_vsnprintf+0x8a>
    aac4:	464a      	mov	r2, r9
    aac6:	009b      	lsls	r3, r3, #2
    aac8:	58d3      	ldr	r3, [r2, r3]
    aaca:	469f      	mov	pc, r3
    aacc:	2301      	movs	r3, #1
    aace:	000f      	movs	r7, r1
    aad0:	431d      	orrs	r5, r3
    aad2:	7838      	ldrb	r0, [r7, #0]
    aad4:	1c79      	adds	r1, r7, #1
    aad6:	0003      	movs	r3, r0
    aad8:	3b20      	subs	r3, #32
    aada:	b2db      	uxtb	r3, r3
    aadc:	000e      	movs	r6, r1
    aade:	2b10      	cmp	r3, #16
    aae0:	d9f0      	bls.n	aac4 <_vsnprintf+0x6c>
    aae2:	0003      	movs	r3, r0
    aae4:	3b30      	subs	r3, #48	; 0x30
    aae6:	2b09      	cmp	r3, #9
    aae8:	d943      	bls.n	ab72 <_vsnprintf+0x11a>
    aaea:	2300      	movs	r3, #0
    aaec:	4698      	mov	r8, r3
    aaee:	282a      	cmp	r0, #42	; 0x2a
    aaf0:	d06c      	beq.n	abcc <_vsnprintf+0x174>
    aaf2:	2300      	movs	r3, #0
    aaf4:	9308      	str	r3, [sp, #32]
    aaf6:	282e      	cmp	r0, #46	; 0x2e
    aaf8:	d053      	beq.n	aba2 <_vsnprintf+0x14a>
    aafa:	0003      	movs	r3, r0
    aafc:	3b68      	subs	r3, #104	; 0x68
    aafe:	b2db      	uxtb	r3, r3
    ab00:	2b12      	cmp	r3, #18
    ab02:	d861      	bhi.n	abc8 <_vsnprintf+0x170>
    ab04:	4aac      	ldr	r2, [pc, #688]	; (adb8 <_vsnprintf+0x360>)
    ab06:	009b      	lsls	r3, r3, #2
    ab08:	58d3      	ldr	r3, [r2, r3]
    ab0a:	469f      	mov	pc, r3
    ab0c:	4663      	mov	r3, ip
    ab0e:	000f      	movs	r7, r1
    ab10:	431d      	orrs	r5, r3
    ab12:	e7de      	b.n	aad2 <_vsnprintf+0x7a>
    ab14:	4643      	mov	r3, r8
    ab16:	000f      	movs	r7, r1
    ab18:	431d      	orrs	r5, r3
    ab1a:	e7da      	b.n	aad2 <_vsnprintf+0x7a>
    ab1c:	2310      	movs	r3, #16
    ab1e:	000f      	movs	r7, r1
    ab20:	431d      	orrs	r5, r3
    ab22:	e7d6      	b.n	aad2 <_vsnprintf+0x7a>
    ab24:	2308      	movs	r3, #8
    ab26:	000f      	movs	r7, r1
    ab28:	431d      	orrs	r5, r3
    ab2a:	e7d2      	b.n	aad2 <_vsnprintf+0x7a>
    ab2c:	2380      	movs	r3, #128	; 0x80
    ab2e:	005b      	lsls	r3, r3, #1
    ab30:	7878      	ldrb	r0, [r7, #1]
    ab32:	431d      	orrs	r5, r3
    ab34:	1c77      	adds	r7, r6, #1
    ab36:	0003      	movs	r3, r0
    ab38:	3b25      	subs	r3, #37	; 0x25
    ab3a:	b2db      	uxtb	r3, r3
    ab3c:	2b53      	cmp	r3, #83	; 0x53
    ab3e:	d8a7      	bhi.n	aa90 <_vsnprintf+0x38>
    ab40:	4a9e      	ldr	r2, [pc, #632]	; (adbc <_vsnprintf+0x364>)
    ab42:	009b      	lsls	r3, r3, #2
    ab44:	58d3      	ldr	r3, [r2, r3]
    ab46:	469f      	mov	pc, r3
    ab48:	46d0      	mov	r8, sl
    ab4a:	0025      	movs	r5, r4
    ab4c:	46da      	mov	sl, fp
    ab4e:	002a      	movs	r2, r5
    ab50:	45a8      	cmp	r8, r5
    ab52:	d801      	bhi.n	ab58 <_vsnprintf+0x100>
    ab54:	4643      	mov	r3, r8
    ab56:	1e5a      	subs	r2, r3, #1
    ab58:	4643      	mov	r3, r8
    ab5a:	4651      	mov	r1, sl
    ab5c:	2000      	movs	r0, #0
    ab5e:	9c06      	ldr	r4, [sp, #24]
    ab60:	47a0      	blx	r4
    ab62:	0028      	movs	r0, r5
    ab64:	b00d      	add	sp, #52	; 0x34
    ab66:	bc3c      	pop	{r2, r3, r4, r5}
    ab68:	4690      	mov	r8, r2
    ab6a:	4699      	mov	r9, r3
    ab6c:	46a2      	mov	sl, r4
    ab6e:	46ab      	mov	fp, r5
    ab70:	bdf0      	pop	{r4, r5, r6, r7, pc}
    ab72:	2300      	movs	r3, #0
    ab74:	0002      	movs	r2, r0
    ab76:	e001      	b.n	ab7c <_vsnprintf+0x124>
    ab78:	000f      	movs	r7, r1
    ab7a:	3101      	adds	r1, #1
    ab7c:	0098      	lsls	r0, r3, #2
    ab7e:	18c0      	adds	r0, r0, r3
    ab80:	0040      	lsls	r0, r0, #1
    ab82:	1880      	adds	r0, r0, r2
    ab84:	780a      	ldrb	r2, [r1, #0]
    ab86:	0003      	movs	r3, r0
    ab88:	0010      	movs	r0, r2
    ab8a:	3830      	subs	r0, #48	; 0x30
    ab8c:	3b30      	subs	r3, #48	; 0x30
    ab8e:	2809      	cmp	r0, #9
    ab90:	d9f2      	bls.n	ab78 <_vsnprintf+0x120>
    ab92:	4698      	mov	r8, r3
    ab94:	2300      	movs	r3, #0
    ab96:	1cbe      	adds	r6, r7, #2
    ab98:	0010      	movs	r0, r2
    ab9a:	000f      	movs	r7, r1
    ab9c:	9308      	str	r3, [sp, #32]
    ab9e:	282e      	cmp	r0, #46	; 0x2e
    aba0:	d1ab      	bne.n	aafa <_vsnprintf+0xa2>
    aba2:	2380      	movs	r3, #128	; 0x80
    aba4:	7878      	ldrb	r0, [r7, #1]
    aba6:	00db      	lsls	r3, r3, #3
    aba8:	431d      	orrs	r5, r3
    abaa:	0003      	movs	r3, r0
    abac:	3b30      	subs	r3, #48	; 0x30
    abae:	2b09      	cmp	r3, #9
    abb0:	d800      	bhi.n	abb4 <_vsnprintf+0x15c>
    abb2:	e12a      	b.n	ae0a <_vsnprintf+0x3b2>
    abb4:	282a      	cmp	r0, #42	; 0x2a
    abb6:	d100      	bne.n	abba <_vsnprintf+0x162>
    abb8:	e13b      	b.n	ae32 <_vsnprintf+0x3da>
    abba:	0003      	movs	r3, r0
    abbc:	3b68      	subs	r3, #104	; 0x68
    abbe:	b2db      	uxtb	r3, r3
    abc0:	0037      	movs	r7, r6
    abc2:	3601      	adds	r6, #1
    abc4:	2b12      	cmp	r3, #18
    abc6:	d99d      	bls.n	ab04 <_vsnprintf+0xac>
    abc8:	0037      	movs	r7, r6
    abca:	e7b4      	b.n	ab36 <_vsnprintf+0xde>
    abcc:	9b07      	ldr	r3, [sp, #28]
    abce:	cb04      	ldmia	r3!, {r2}
    abd0:	4690      	mov	r8, r2
    abd2:	2a00      	cmp	r2, #0
    abd4:	da00      	bge.n	abd8 <_vsnprintf+0x180>
    abd6:	e10b      	b.n	adf0 <_vsnprintf+0x398>
    abd8:	7878      	ldrb	r0, [r7, #1]
    abda:	1cbe      	adds	r6, r7, #2
    abdc:	9307      	str	r3, [sp, #28]
    abde:	000f      	movs	r7, r1
    abe0:	e787      	b.n	aaf2 <_vsnprintf+0x9a>
    abe2:	9b07      	ldr	r3, [sp, #28]
    abe4:	cb04      	ldmia	r3!, {r2}
    abe6:	930a      	str	r3, [sp, #40]	; 0x28
    abe8:	9b08      	ldr	r3, [sp, #32]
    abea:	9207      	str	r2, [sp, #28]
    abec:	7810      	ldrb	r0, [r2, #0]
    abee:	2b00      	cmp	r3, #0
    abf0:	d000      	beq.n	abf4 <_vsnprintf+0x19c>
    abf2:	e129      	b.n	ae48 <_vsnprintf+0x3f0>
    abf4:	2800      	cmp	r0, #0
    abf6:	d100      	bne.n	abfa <_vsnprintf+0x1a2>
    abf8:	e220      	b.n	b03c <_vsnprintf+0x5e4>
    abfa:	2602      	movs	r6, #2
    abfc:	0013      	movs	r3, r2
    abfe:	4276      	negs	r6, r6
    ac00:	1c72      	adds	r2, r6, #1
    ac02:	0019      	movs	r1, r3
    ac04:	4694      	mov	ip, r2
    ac06:	9209      	str	r2, [sp, #36]	; 0x24
    ac08:	4461      	add	r1, ip
    ac0a:	e001      	b.n	ac10 <_vsnprintf+0x1b8>
    ac0c:	428b      	cmp	r3, r1
    ac0e:	d006      	beq.n	ac1e <_vsnprintf+0x1c6>
    ac10:	3301      	adds	r3, #1
    ac12:	781a      	ldrb	r2, [r3, #0]
    ac14:	2a00      	cmp	r2, #0
    ac16:	d1f9      	bne.n	ac0c <_vsnprintf+0x1b4>
    ac18:	9a07      	ldr	r2, [sp, #28]
    ac1a:	1a9b      	subs	r3, r3, r2
    ac1c:	9309      	str	r3, [sp, #36]	; 0x24
    ac1e:	2680      	movs	r6, #128	; 0x80
    ac20:	00f6      	lsls	r6, r6, #3
    ac22:	402e      	ands	r6, r5
    ac24:	d005      	beq.n	ac32 <_vsnprintf+0x1da>
    ac26:	9b09      	ldr	r3, [sp, #36]	; 0x24
    ac28:	0019      	movs	r1, r3
    ac2a:	9b08      	ldr	r3, [sp, #32]
    ac2c:	4299      	cmp	r1, r3
    ac2e:	d900      	bls.n	ac32 <_vsnprintf+0x1da>
    ac30:	9309      	str	r3, [sp, #36]	; 0x24
    ac32:	2302      	movs	r3, #2
    ac34:	402b      	ands	r3, r5
    ac36:	930b      	str	r3, [sp, #44]	; 0x2c
    ac38:	d100      	bne.n	ac3c <_vsnprintf+0x1e4>
    ac3a:	e195      	b.n	af68 <_vsnprintf+0x510>
    ac3c:	2800      	cmp	r0, #0
    ac3e:	d100      	bne.n	ac42 <_vsnprintf+0x1ea>
    ac40:	e17d      	b.n	af3e <_vsnprintf+0x4e6>
    ac42:	2e00      	cmp	r6, #0
    ac44:	d100      	bne.n	ac48 <_vsnprintf+0x1f0>
    ac46:	e133      	b.n	aeb0 <_vsnprintf+0x458>
    ac48:	9b08      	ldr	r3, [sp, #32]
    ac4a:	0022      	movs	r2, r4
    ac4c:	191e      	adds	r6, r3, r4
    ac4e:	9b07      	ldr	r3, [sp, #28]
    ac50:	1b1c      	subs	r4, r3, r4
    ac52:	4643      	mov	r3, r8
    ac54:	9307      	str	r3, [sp, #28]
    ac56:	003b      	movs	r3, r7
    ac58:	46a0      	mov	r8, r4
    ac5a:	465f      	mov	r7, fp
    ac5c:	9c06      	ldr	r4, [sp, #24]
    ac5e:	469b      	mov	fp, r3
    ac60:	e009      	b.n	ac76 <_vsnprintf+0x21e>
    ac62:	4653      	mov	r3, sl
    ac64:	0039      	movs	r1, r7
    ac66:	1c55      	adds	r5, r2, #1
    ac68:	47a0      	blx	r4
    ac6a:	4643      	mov	r3, r8
    ac6c:	5d58      	ldrb	r0, [r3, r5]
    ac6e:	2800      	cmp	r0, #0
    ac70:	d100      	bne.n	ac74 <_vsnprintf+0x21c>
    ac72:	e13e      	b.n	aef2 <_vsnprintf+0x49a>
    ac74:	002a      	movs	r2, r5
    ac76:	4296      	cmp	r6, r2
    ac78:	d1f3      	bne.n	ac62 <_vsnprintf+0x20a>
    ac7a:	9b07      	ldr	r3, [sp, #28]
    ac7c:	0034      	movs	r4, r6
    ac7e:	4698      	mov	r8, r3
    ac80:	465b      	mov	r3, fp
    ac82:	46bb      	mov	fp, r7
    ac84:	001f      	movs	r7, r3
    ac86:	9b0b      	ldr	r3, [sp, #44]	; 0x2c
    ac88:	2b00      	cmp	r3, #0
    ac8a:	d000      	beq.n	ac8e <_vsnprintf+0x236>
    ac8c:	e157      	b.n	af3e <_vsnprintf+0x4e6>
    ac8e:	9b0a      	ldr	r3, [sp, #40]	; 0x28
    ac90:	9307      	str	r3, [sp, #28]
    ac92:	e704      	b.n	aa9e <_vsnprintf+0x46>
    ac94:	2321      	movs	r3, #33	; 0x21
    ac96:	431d      	orrs	r5, r3
    ac98:	3b19      	subs	r3, #25
    ac9a:	9304      	str	r3, [sp, #16]
    ac9c:	9b08      	ldr	r3, [sp, #32]
    ac9e:	9e07      	ldr	r6, [sp, #28]
    aca0:	9303      	str	r3, [sp, #12]
    aca2:	2310      	movs	r3, #16
    aca4:	9302      	str	r3, [sp, #8]
    aca6:	2300      	movs	r3, #0
    aca8:	9505      	str	r5, [sp, #20]
    acaa:	9301      	str	r3, [sp, #4]
    acac:	ce08      	ldmia	r6!, {r3}
    acae:	9300      	str	r3, [sp, #0]
    acb0:	0022      	movs	r2, r4
    acb2:	4653      	mov	r3, sl
    acb4:	4c42      	ldr	r4, [pc, #264]	; (adc0 <_vsnprintf+0x368>)
    acb6:	4659      	mov	r1, fp
    acb8:	9806      	ldr	r0, [sp, #24]
    acba:	47a0      	blx	r4
    acbc:	9607      	str	r6, [sp, #28]
    acbe:	0004      	movs	r4, r0
    acc0:	e6ed      	b.n	aa9e <_vsnprintf+0x46>
    acc2:	9b07      	ldr	r3, [sp, #28]
    acc4:	3304      	adds	r3, #4
    acc6:	9308      	str	r3, [sp, #32]
    acc8:	1c63      	adds	r3, r4, #1
    acca:	9309      	str	r3, [sp, #36]	; 0x24
    accc:	001e      	movs	r6, r3
    acce:	07ab      	lsls	r3, r5, #30
    acd0:	d400      	bmi.n	acd4 <_vsnprintf+0x27c>
    acd2:	e115      	b.n	af00 <_vsnprintf+0x4a8>
    acd4:	9b07      	ldr	r3, [sp, #28]
    acd6:	0022      	movs	r2, r4
    acd8:	7818      	ldrb	r0, [r3, #0]
    acda:	4659      	mov	r1, fp
    acdc:	4653      	mov	r3, sl
    acde:	9d06      	ldr	r5, [sp, #24]
    ace0:	47a8      	blx	r5
    ace2:	4643      	mov	r3, r8
    ace4:	4444      	add	r4, r8
    ace6:	2b01      	cmp	r3, #1
    ace8:	d800      	bhi.n	acec <_vsnprintf+0x294>
    acea:	e17e      	b.n	afea <_vsnprintf+0x592>
    acec:	003b      	movs	r3, r7
    acee:	46a0      	mov	r8, r4
    acf0:	4657      	mov	r7, sl
    acf2:	465c      	mov	r4, fp
    acf4:	469a      	mov	sl, r3
    acf6:	0032      	movs	r2, r6
    acf8:	9e06      	ldr	r6, [sp, #24]
    acfa:	1c55      	adds	r5, r2, #1
    acfc:	003b      	movs	r3, r7
    acfe:	0021      	movs	r1, r4
    ad00:	2020      	movs	r0, #32
    ad02:	47b0      	blx	r6
    ad04:	002a      	movs	r2, r5
    ad06:	45a8      	cmp	r8, r5
    ad08:	d1f7      	bne.n	acfa <_vsnprintf+0x2a2>
    ad0a:	4653      	mov	r3, sl
    ad0c:	46a3      	mov	fp, r4
    ad0e:	46ba      	mov	sl, r7
    ad10:	4644      	mov	r4, r8
    ad12:	001f      	movs	r7, r3
    ad14:	9b08      	ldr	r3, [sp, #32]
    ad16:	9307      	str	r3, [sp, #28]
    ad18:	e6c1      	b.n	aa9e <_vsnprintf+0x46>
    ad1a:	2878      	cmp	r0, #120	; 0x78
    ad1c:	d100      	bne.n	ad20 <_vsnprintf+0x2c8>
    ad1e:	e168      	b.n	aff2 <_vsnprintf+0x59a>
    ad20:	2858      	cmp	r0, #88	; 0x58
    ad22:	d100      	bne.n	ad26 <_vsnprintf+0x2ce>
    ad24:	e096      	b.n	ae54 <_vsnprintf+0x3fc>
    ad26:	286f      	cmp	r0, #111	; 0x6f
    ad28:	d100      	bne.n	ad2c <_vsnprintf+0x2d4>
    ad2a:	e149      	b.n	afc0 <_vsnprintf+0x568>
    ad2c:	2862      	cmp	r0, #98	; 0x62
    ad2e:	d100      	bne.n	ad32 <_vsnprintf+0x2da>
    ad30:	e15d      	b.n	afee <_vsnprintf+0x596>
    ad32:	2310      	movs	r3, #16
    ad34:	002a      	movs	r2, r5
    ad36:	439a      	bics	r2, r3
    ad38:	0013      	movs	r3, r2
    ad3a:	2280      	movs	r2, #128	; 0x80
    ad3c:	00d2      	lsls	r2, r2, #3
    ad3e:	402a      	ands	r2, r5
    ad40:	2869      	cmp	r0, #105	; 0x69
    ad42:	d000      	beq.n	ad46 <_vsnprintf+0x2ee>
    ad44:	e18a      	b.n	b05c <_vsnprintf+0x604>
    ad46:	2a00      	cmp	r2, #0
    ad48:	d000      	beq.n	ad4c <_vsnprintf+0x2f4>
    ad4a:	e137      	b.n	afbc <_vsnprintf+0x564>
    ad4c:	2280      	movs	r2, #128	; 0x80
    ad4e:	0092      	lsls	r2, r2, #2
    ad50:	4015      	ands	r5, r2
    ad52:	3af7      	subs	r2, #247	; 0xf7
    ad54:	3aff      	subs	r2, #255	; 0xff
    ad56:	2d00      	cmp	r5, #0
    ad58:	d000      	beq.n	ad5c <_vsnprintf+0x304>
    ad5a:	e6a0      	b.n	aa9e <_vsnprintf+0x46>
    ad5c:	9907      	ldr	r1, [sp, #28]
    ad5e:	1d0d      	adds	r5, r1, #4
    ad60:	05d9      	lsls	r1, r3, #23
    ad62:	d500      	bpl.n	ad66 <_vsnprintf+0x30e>
    ad64:	e150      	b.n	b008 <_vsnprintf+0x5b0>
    ad66:	0659      	lsls	r1, r3, #25
    ad68:	d500      	bpl.n	ad6c <_vsnprintf+0x314>
    ad6a:	e137      	b.n	afdc <_vsnprintf+0x584>
    ad6c:	0619      	lsls	r1, r3, #24
    ad6e:	d400      	bmi.n	ad72 <_vsnprintf+0x31a>
    ad70:	e166      	b.n	b040 <_vsnprintf+0x5e8>
    ad72:	9907      	ldr	r1, [sp, #28]
    ad74:	2000      	movs	r0, #0
    ad76:	5e09      	ldrsh	r1, [r1, r0]
    ad78:	17ce      	asrs	r6, r1, #31
    ad7a:	1988      	adds	r0, r1, r6
    ad7c:	4070      	eors	r0, r6
    ad7e:	9305      	str	r3, [sp, #20]
    ad80:	4643      	mov	r3, r8
    ad82:	9304      	str	r3, [sp, #16]
    ad84:	9b08      	ldr	r3, [sp, #32]
    ad86:	0fc9      	lsrs	r1, r1, #31
    ad88:	9303      	str	r3, [sp, #12]
    ad8a:	9202      	str	r2, [sp, #8]
    ad8c:	9101      	str	r1, [sp, #4]
    ad8e:	9000      	str	r0, [sp, #0]
    ad90:	0022      	movs	r2, r4
    ad92:	4653      	mov	r3, sl
    ad94:	4c0a      	ldr	r4, [pc, #40]	; (adc0 <_vsnprintf+0x368>)
    ad96:	4659      	mov	r1, fp
    ad98:	9806      	ldr	r0, [sp, #24]
    ad9a:	47a0      	blx	r4
    ad9c:	9507      	str	r5, [sp, #28]
    ad9e:	0004      	movs	r4, r0
    ada0:	e67d      	b.n	aa9e <_vsnprintf+0x46>
    ada2:	1c65      	adds	r5, r4, #1
    ada4:	0022      	movs	r2, r4
    ada6:	4653      	mov	r3, sl
    ada8:	9c06      	ldr	r4, [sp, #24]
    adaa:	4659      	mov	r1, fp
    adac:	2025      	movs	r0, #37	; 0x25
    adae:	47a0      	blx	r4
    adb0:	002c      	movs	r4, r5
    adb2:	e674      	b.n	aa9e <_vsnprintf+0x46>
    adb4:	0001f1ac 	.word	0x0001f1ac
    adb8:	0001f1f0 	.word	0x0001f1f0
    adbc:	0001f23c 	.word	0x0001f23c
    adc0:	0000a685 	.word	0x0000a685
    adc4:	7878      	ldrb	r0, [r7, #1]
    adc6:	286c      	cmp	r0, #108	; 0x6c
    adc8:	d100      	bne.n	adcc <_vsnprintf+0x374>
    adca:	e08c      	b.n	aee6 <_vsnprintf+0x48e>
    adcc:	2380      	movs	r3, #128	; 0x80
    adce:	005b      	lsls	r3, r3, #1
    add0:	431d      	orrs	r5, r3
    add2:	1c77      	adds	r7, r6, #1
    add4:	e6af      	b.n	ab36 <_vsnprintf+0xde>
    add6:	2380      	movs	r3, #128	; 0x80
    add8:	009b      	lsls	r3, r3, #2
    adda:	7878      	ldrb	r0, [r7, #1]
    addc:	431d      	orrs	r5, r3
    adde:	1c77      	adds	r7, r6, #1
    ade0:	e6a9      	b.n	ab36 <_vsnprintf+0xde>
    ade2:	7878      	ldrb	r0, [r7, #1]
    ade4:	2868      	cmp	r0, #104	; 0x68
    ade6:	d079      	beq.n	aedc <_vsnprintf+0x484>
    ade8:	2380      	movs	r3, #128	; 0x80
    adea:	1c77      	adds	r7, r6, #1
    adec:	431d      	orrs	r5, r3
    adee:	e6a2      	b.n	ab36 <_vsnprintf+0xde>
    adf0:	2202      	movs	r2, #2
    adf2:	4315      	orrs	r5, r2
    adf4:	4642      	mov	r2, r8
    adf6:	4252      	negs	r2, r2
    adf8:	7878      	ldrb	r0, [r7, #1]
    adfa:	1cbe      	adds	r6, r7, #2
    adfc:	4690      	mov	r8, r2
    adfe:	9307      	str	r3, [sp, #28]
    ae00:	000f      	movs	r7, r1
    ae02:	e676      	b.n	aaf2 <_vsnprintf+0x9a>
    ae04:	4b97      	ldr	r3, [pc, #604]	; (b064 <_vsnprintf+0x60c>)
    ae06:	9306      	str	r3, [sp, #24]
    ae08:	e636      	b.n	aa78 <_vsnprintf+0x20>
    ae0a:	2300      	movs	r3, #0
    ae0c:	0002      	movs	r2, r0
    ae0e:	e000      	b.n	ae12 <_vsnprintf+0x3ba>
    ae10:	003e      	movs	r6, r7
    ae12:	0098      	lsls	r0, r3, #2
    ae14:	18c0      	adds	r0, r0, r3
    ae16:	0040      	lsls	r0, r0, #1
    ae18:	1880      	adds	r0, r0, r2
    ae1a:	7872      	ldrb	r2, [r6, #1]
    ae1c:	0003      	movs	r3, r0
    ae1e:	0011      	movs	r1, r2
    ae20:	3930      	subs	r1, #48	; 0x30
    ae22:	1c77      	adds	r7, r6, #1
    ae24:	3b30      	subs	r3, #48	; 0x30
    ae26:	2909      	cmp	r1, #9
    ae28:	d9f2      	bls.n	ae10 <_vsnprintf+0x3b8>
    ae2a:	9308      	str	r3, [sp, #32]
    ae2c:	0010      	movs	r0, r2
    ae2e:	3602      	adds	r6, #2
    ae30:	e663      	b.n	aafa <_vsnprintf+0xa2>
    ae32:	9b07      	ldr	r3, [sp, #28]
    ae34:	78b8      	ldrb	r0, [r7, #2]
    ae36:	cb02      	ldmia	r3!, {r1}
    ae38:	1cfe      	adds	r6, r7, #3
    ae3a:	43ca      	mvns	r2, r1
    ae3c:	17d2      	asrs	r2, r2, #31
    ae3e:	4011      	ands	r1, r2
    ae40:	9108      	str	r1, [sp, #32]
    ae42:	9307      	str	r3, [sp, #28]
    ae44:	3702      	adds	r7, #2
    ae46:	e658      	b.n	aafa <_vsnprintf+0xa2>
    ae48:	2800      	cmp	r0, #0
    ae4a:	d100      	bne.n	ae4e <_vsnprintf+0x3f6>
    ae4c:	e0f5      	b.n	b03a <_vsnprintf+0x5e2>
    ae4e:	1e5e      	subs	r6, r3, #1
    ae50:	0013      	movs	r3, r2
    ae52:	e6d5      	b.n	ac00 <_vsnprintf+0x1a8>
    ae54:	230c      	movs	r3, #12
    ae56:	002a      	movs	r2, r5
    ae58:	439a      	bics	r2, r3
    ae5a:	3314      	adds	r3, #20
    ae5c:	4313      	orrs	r3, r2
    ae5e:	056a      	lsls	r2, r5, #21
    ae60:	d400      	bmi.n	ae64 <_vsnprintf+0x40c>
    ae62:	e0a5      	b.n	afb0 <_vsnprintf+0x558>
    ae64:	2210      	movs	r2, #16
    ae66:	2101      	movs	r1, #1
    ae68:	438b      	bics	r3, r1
    ae6a:	2580      	movs	r5, #128	; 0x80
    ae6c:	00ad      	lsls	r5, r5, #2
    ae6e:	401d      	ands	r5, r3
    ae70:	2869      	cmp	r0, #105	; 0x69
    ae72:	d100      	bne.n	ae76 <_vsnprintf+0x41e>
    ae74:	e76f      	b.n	ad56 <_vsnprintf+0x2fe>
    ae76:	2864      	cmp	r0, #100	; 0x64
    ae78:	d100      	bne.n	ae7c <_vsnprintf+0x424>
    ae7a:	e76c      	b.n	ad56 <_vsnprintf+0x2fe>
    ae7c:	2d00      	cmp	r5, #0
    ae7e:	d000      	beq.n	ae82 <_vsnprintf+0x42a>
    ae80:	e60d      	b.n	aa9e <_vsnprintf+0x46>
    ae82:	9907      	ldr	r1, [sp, #28]
    ae84:	1d0e      	adds	r6, r1, #4
    ae86:	05d9      	lsls	r1, r3, #23
    ae88:	d500      	bpl.n	ae8c <_vsnprintf+0x434>
    ae8a:	e0cc      	b.n	b026 <_vsnprintf+0x5ce>
    ae8c:	0659      	lsls	r1, r3, #25
    ae8e:	d500      	bpl.n	ae92 <_vsnprintf+0x43a>
    ae90:	e0a8      	b.n	afe4 <_vsnprintf+0x58c>
    ae92:	0619      	lsls	r1, r3, #24
    ae94:	d400      	bmi.n	ae98 <_vsnprintf+0x440>
    ae96:	e0d9      	b.n	b04c <_vsnprintf+0x5f4>
    ae98:	9907      	ldr	r1, [sp, #28]
    ae9a:	8809      	ldrh	r1, [r1, #0]
    ae9c:	9305      	str	r3, [sp, #20]
    ae9e:	4643      	mov	r3, r8
    aea0:	9304      	str	r3, [sp, #16]
    aea2:	9b08      	ldr	r3, [sp, #32]
    aea4:	9202      	str	r2, [sp, #8]
    aea6:	9303      	str	r3, [sp, #12]
    aea8:	2300      	movs	r3, #0
    aeaa:	9100      	str	r1, [sp, #0]
    aeac:	9301      	str	r3, [sp, #4]
    aeae:	e6ff      	b.n	acb0 <_vsnprintf+0x258>
    aeb0:	9b07      	ldr	r3, [sp, #28]
    aeb2:	0022      	movs	r2, r4
    aeb4:	1b1e      	subs	r6, r3, r4
    aeb6:	0033      	movs	r3, r6
    aeb8:	465e      	mov	r6, fp
    aeba:	46bb      	mov	fp, r7
    aebc:	4657      	mov	r7, sl
    aebe:	469a      	mov	sl, r3
    aec0:	9d06      	ldr	r5, [sp, #24]
    aec2:	003b      	movs	r3, r7
    aec4:	0031      	movs	r1, r6
    aec6:	1c54      	adds	r4, r2, #1
    aec8:	47a8      	blx	r5
    aeca:	4653      	mov	r3, sl
    aecc:	5d18      	ldrb	r0, [r3, r4]
    aece:	0022      	movs	r2, r4
    aed0:	2800      	cmp	r0, #0
    aed2:	d1f6      	bne.n	aec2 <_vsnprintf+0x46a>
    aed4:	46ba      	mov	sl, r7
    aed6:	465f      	mov	r7, fp
    aed8:	46b3      	mov	fp, r6
    aeda:	e6d4      	b.n	ac86 <_vsnprintf+0x22e>
    aedc:	23c0      	movs	r3, #192	; 0xc0
    aede:	78b8      	ldrb	r0, [r7, #2]
    aee0:	431d      	orrs	r5, r3
    aee2:	3703      	adds	r7, #3
    aee4:	e627      	b.n	ab36 <_vsnprintf+0xde>
    aee6:	23c0      	movs	r3, #192	; 0xc0
    aee8:	009b      	lsls	r3, r3, #2
    aeea:	78b8      	ldrb	r0, [r7, #2]
    aeec:	431d      	orrs	r5, r3
    aeee:	3703      	adds	r7, #3
    aef0:	e621      	b.n	ab36 <_vsnprintf+0xde>
    aef2:	9b07      	ldr	r3, [sp, #28]
    aef4:	002c      	movs	r4, r5
    aef6:	4698      	mov	r8, r3
    aef8:	465b      	mov	r3, fp
    aefa:	46bb      	mov	fp, r7
    aefc:	001f      	movs	r7, r3
    aefe:	e6c2      	b.n	ac86 <_vsnprintf+0x22e>
    af00:	4643      	mov	r3, r8
    af02:	2b01      	cmp	r3, #1
    af04:	d800      	bhi.n	af08 <_vsnprintf+0x4b0>
    af06:	e0a6      	b.n	b056 <_vsnprintf+0x5fe>
    af08:	1e65      	subs	r5, r4, #1
    af0a:	4445      	add	r5, r8
    af0c:	0022      	movs	r2, r4
    af0e:	46b8      	mov	r8, r7
    af10:	9e06      	ldr	r6, [sp, #24]
    af12:	465f      	mov	r7, fp
    af14:	9c09      	ldr	r4, [sp, #36]	; 0x24
    af16:	e000      	b.n	af1a <_vsnprintf+0x4c2>
    af18:	3401      	adds	r4, #1
    af1a:	4653      	mov	r3, sl
    af1c:	0039      	movs	r1, r7
    af1e:	2020      	movs	r0, #32
    af20:	47b0      	blx	r6
    af22:	0022      	movs	r2, r4
    af24:	42ac      	cmp	r4, r5
    af26:	d1f7      	bne.n	af18 <_vsnprintf+0x4c0>
    af28:	46bb      	mov	fp, r7
    af2a:	4647      	mov	r7, r8
    af2c:	3401      	adds	r4, #1
    af2e:	9b07      	ldr	r3, [sp, #28]
    af30:	002a      	movs	r2, r5
    af32:	7818      	ldrb	r0, [r3, #0]
    af34:	4659      	mov	r1, fp
    af36:	4653      	mov	r3, sl
    af38:	9d06      	ldr	r5, [sp, #24]
    af3a:	47a8      	blx	r5
    af3c:	e6ea      	b.n	ad14 <_vsnprintf+0x2bc>
    af3e:	9b09      	ldr	r3, [sp, #36]	; 0x24
    af40:	0022      	movs	r2, r4
    af42:	4598      	cmp	r8, r3
    af44:	d800      	bhi.n	af48 <_vsnprintf+0x4f0>
    af46:	e6a2      	b.n	ac8e <_vsnprintf+0x236>
    af48:	4444      	add	r4, r8
    af4a:	46b8      	mov	r8, r7
    af4c:	465f      	mov	r7, fp
    af4e:	9e06      	ldr	r6, [sp, #24]
    af50:	1ae4      	subs	r4, r4, r3
    af52:	1c55      	adds	r5, r2, #1
    af54:	4653      	mov	r3, sl
    af56:	0039      	movs	r1, r7
    af58:	2020      	movs	r0, #32
    af5a:	47b0      	blx	r6
    af5c:	002a      	movs	r2, r5
    af5e:	42a5      	cmp	r5, r4
    af60:	d1f7      	bne.n	af52 <_vsnprintf+0x4fa>
    af62:	46bb      	mov	fp, r7
    af64:	4647      	mov	r7, r8
    af66:	e692      	b.n	ac8e <_vsnprintf+0x236>
    af68:	9a09      	ldr	r2, [sp, #36]	; 0x24
    af6a:	1c53      	adds	r3, r2, #1
    af6c:	4590      	cmp	r8, r2
    af6e:	d970      	bls.n	b052 <_vsnprintf+0x5fa>
    af70:	4643      	mov	r3, r8
    af72:	191b      	adds	r3, r3, r4
    af74:	1a9b      	subs	r3, r3, r2
    af76:	9609      	str	r6, [sp, #36]	; 0x24
    af78:	001e      	movs	r6, r3
    af7a:	003b      	movs	r3, r7
    af7c:	465f      	mov	r7, fp
    af7e:	469b      	mov	fp, r3
    af80:	0022      	movs	r2, r4
    af82:	9c06      	ldr	r4, [sp, #24]
    af84:	1c55      	adds	r5, r2, #1
    af86:	4653      	mov	r3, sl
    af88:	0039      	movs	r1, r7
    af8a:	2020      	movs	r0, #32
    af8c:	47a0      	blx	r4
    af8e:	002a      	movs	r2, r5
    af90:	42b5      	cmp	r5, r6
    af92:	d1f7      	bne.n	af84 <_vsnprintf+0x52c>
    af94:	465b      	mov	r3, fp
    af96:	46bb      	mov	fp, r7
    af98:	001f      	movs	r7, r3
    af9a:	4643      	mov	r3, r8
    af9c:	002c      	movs	r4, r5
    af9e:	3301      	adds	r3, #1
    afa0:	9e09      	ldr	r6, [sp, #36]	; 0x24
    afa2:	9309      	str	r3, [sp, #36]	; 0x24
    afa4:	9b07      	ldr	r3, [sp, #28]
    afa6:	7818      	ldrb	r0, [r3, #0]
    afa8:	2800      	cmp	r0, #0
    afaa:	d000      	beq.n	afae <_vsnprintf+0x556>
    afac:	e649      	b.n	ac42 <_vsnprintf+0x1ea>
    afae:	e66e      	b.n	ac8e <_vsnprintf+0x236>
    afb0:	2280      	movs	r2, #128	; 0x80
    afb2:	0092      	lsls	r2, r2, #2
    afb4:	4015      	ands	r5, r2
    afb6:	3af1      	subs	r2, #241	; 0xf1
    afb8:	3aff      	subs	r2, #255	; 0xff
    afba:	e75f      	b.n	ae7c <_vsnprintf+0x424>
    afbc:	220a      	movs	r2, #10
    afbe:	e752      	b.n	ae66 <_vsnprintf+0x40e>
    afc0:	2208      	movs	r2, #8
    afc2:	002b      	movs	r3, r5
    afc4:	2180      	movs	r1, #128	; 0x80
    afc6:	00c9      	lsls	r1, r1, #3
    afc8:	4019      	ands	r1, r3
    afca:	2864      	cmp	r0, #100	; 0x64
    afcc:	d148      	bne.n	b060 <_vsnprintf+0x608>
    afce:	2900      	cmp	r1, #0
    afd0:	d000      	beq.n	afd4 <_vsnprintf+0x57c>
    afd2:	e748      	b.n	ae66 <_vsnprintf+0x40e>
    afd4:	2580      	movs	r5, #128	; 0x80
    afd6:	00ad      	lsls	r5, r5, #2
    afd8:	401d      	ands	r5, r3
    afda:	e6bc      	b.n	ad56 <_vsnprintf+0x2fe>
    afdc:	9907      	ldr	r1, [sp, #28]
    afde:	7809      	ldrb	r1, [r1, #0]
    afe0:	0008      	movs	r0, r1
    afe2:	e6cc      	b.n	ad7e <_vsnprintf+0x326>
    afe4:	9907      	ldr	r1, [sp, #28]
    afe6:	7809      	ldrb	r1, [r1, #0]
    afe8:	e758      	b.n	ae9c <_vsnprintf+0x444>
    afea:	9c09      	ldr	r4, [sp, #36]	; 0x24
    afec:	e692      	b.n	ad14 <_vsnprintf+0x2bc>
    afee:	2202      	movs	r2, #2
    aff0:	e7e7      	b.n	afc2 <_vsnprintf+0x56a>
    aff2:	2180      	movs	r1, #128	; 0x80
    aff4:	2210      	movs	r2, #16
    aff6:	00c9      	lsls	r1, r1, #3
    aff8:	4029      	ands	r1, r5
    affa:	230c      	movs	r3, #12
    affc:	439d      	bics	r5, r3
    affe:	002b      	movs	r3, r5
    b000:	2900      	cmp	r1, #0
    b002:	d000      	beq.n	b006 <_vsnprintf+0x5ae>
    b004:	e72f      	b.n	ae66 <_vsnprintf+0x40e>
    b006:	e730      	b.n	ae6a <_vsnprintf+0x412>
    b008:	9907      	ldr	r1, [sp, #28]
    b00a:	6809      	ldr	r1, [r1, #0]
    b00c:	9305      	str	r3, [sp, #20]
    b00e:	4643      	mov	r3, r8
    b010:	9304      	str	r3, [sp, #16]
    b012:	9b08      	ldr	r3, [sp, #32]
    b014:	9202      	str	r2, [sp, #8]
    b016:	9303      	str	r3, [sp, #12]
    b018:	0fcb      	lsrs	r3, r1, #31
    b01a:	9301      	str	r3, [sp, #4]
    b01c:	17cb      	asrs	r3, r1, #31
    b01e:	18c9      	adds	r1, r1, r3
    b020:	4059      	eors	r1, r3
    b022:	9100      	str	r1, [sp, #0]
    b024:	e6b4      	b.n	ad90 <_vsnprintf+0x338>
    b026:	9305      	str	r3, [sp, #20]
    b028:	4643      	mov	r3, r8
    b02a:	9304      	str	r3, [sp, #16]
    b02c:	9b08      	ldr	r3, [sp, #32]
    b02e:	9202      	str	r2, [sp, #8]
    b030:	9303      	str	r3, [sp, #12]
    b032:	9b07      	ldr	r3, [sp, #28]
    b034:	9501      	str	r5, [sp, #4]
    b036:	681b      	ldr	r3, [r3, #0]
    b038:	e639      	b.n	acae <_vsnprintf+0x256>
    b03a:	2300      	movs	r3, #0
    b03c:	9309      	str	r3, [sp, #36]	; 0x24
    b03e:	e5ee      	b.n	ac1e <_vsnprintf+0x1c6>
    b040:	9907      	ldr	r1, [sp, #28]
    b042:	6809      	ldr	r1, [r1, #0]
    b044:	17ce      	asrs	r6, r1, #31
    b046:	1988      	adds	r0, r1, r6
    b048:	4070      	eors	r0, r6
    b04a:	e698      	b.n	ad7e <_vsnprintf+0x326>
    b04c:	9907      	ldr	r1, [sp, #28]
    b04e:	6809      	ldr	r1, [r1, #0]
    b050:	e724      	b.n	ae9c <_vsnprintf+0x444>
    b052:	9309      	str	r3, [sp, #36]	; 0x24
    b054:	e7a8      	b.n	afa8 <_vsnprintf+0x550>
    b056:	0025      	movs	r5, r4
    b058:	9c09      	ldr	r4, [sp, #36]	; 0x24
    b05a:	e768      	b.n	af2e <_vsnprintf+0x4d6>
    b05c:	220a      	movs	r2, #10
    b05e:	e7b1      	b.n	afc4 <_vsnprintf+0x56c>
    b060:	001d      	movs	r5, r3
    b062:	e7ca      	b.n	affa <_vsnprintf+0x5a2>
    b064:	0000a681 	.word	0x0000a681

0000b068 <snprintf_>:
    b068:	b40c      	push	{r2, r3}
    b06a:	b510      	push	{r4, lr}
    b06c:	b084      	sub	sp, #16
    b06e:	ac06      	add	r4, sp, #24
    b070:	cc08      	ldmia	r4!, {r3}
    b072:	000a      	movs	r2, r1
    b074:	9403      	str	r4, [sp, #12]
    b076:	9400      	str	r4, [sp, #0]
    b078:	0001      	movs	r1, r0
    b07a:	4c04      	ldr	r4, [pc, #16]	; (b08c <snprintf_+0x24>)
    b07c:	4804      	ldr	r0, [pc, #16]	; (b090 <snprintf_+0x28>)
    b07e:	47a0      	blx	r4
    b080:	b004      	add	sp, #16
    b082:	bc10      	pop	{r4}
    b084:	bc08      	pop	{r3}
    b086:	b002      	add	sp, #8
    b088:	4718      	bx	r3
    b08a:	46c0      	nop			; (mov r8, r8)
    b08c:	0000aa59 	.word	0x0000aa59
    b090:	0000a679 	.word	0x0000a679

0000b094 <rand>:
    b094:	b570      	push	{r4, r5, r6, lr}
    b096:	4d12      	ldr	r5, [pc, #72]	; (b0e0 <rand+0x4c>)
    b098:	682e      	ldr	r6, [r5, #0]
    b09a:	2e00      	cmp	r6, #0
    b09c:	d01c      	beq.n	b0d8 <rand+0x44>
    b09e:	4b11      	ldr	r3, [pc, #68]	; (b0e4 <rand+0x50>)
    b0a0:	4911      	ldr	r1, [pc, #68]	; (b0e8 <rand+0x54>)
    b0a2:	0030      	movs	r0, r6
    b0a4:	4798      	blx	r3
    b0a6:	4c11      	ldr	r4, [pc, #68]	; (b0ec <rand+0x58>)
    b0a8:	4b11      	ldr	r3, [pc, #68]	; (b0f0 <rand+0x5c>)
    b0aa:	434c      	muls	r4, r1
    b0ac:	0030      	movs	r0, r6
    b0ae:	490e      	ldr	r1, [pc, #56]	; (b0e8 <rand+0x54>)
    b0b0:	4798      	blx	r3
    b0b2:	0503      	lsls	r3, r0, #20
    b0b4:	1a1b      	subs	r3, r3, r0
    b0b6:	009b      	lsls	r3, r3, #2
    b0b8:	181b      	adds	r3, r3, r0
    b0ba:	009b      	lsls	r3, r3, #2
    b0bc:	181b      	adds	r3, r3, r0
    b0be:	011b      	lsls	r3, r3, #4
    b0c0:	1a1b      	subs	r3, r3, r0
    b0c2:	009b      	lsls	r3, r3, #2
    b0c4:	1a18      	subs	r0, r3, r0
    b0c6:	0080      	lsls	r0, r0, #2
    b0c8:	1820      	adds	r0, r4, r0
    b0ca:	d502      	bpl.n	b0d2 <rand+0x3e>
    b0cc:	4b09      	ldr	r3, [pc, #36]	; (b0f4 <rand+0x60>)
    b0ce:	469c      	mov	ip, r3
    b0d0:	4460      	add	r0, ip
    b0d2:	0003      	movs	r3, r0
    b0d4:	602b      	str	r3, [r5, #0]
    b0d6:	bd70      	pop	{r4, r5, r6, pc}
    b0d8:	4b07      	ldr	r3, [pc, #28]	; (b0f8 <rand+0x64>)
    b0da:	0018      	movs	r0, r3
    b0dc:	e7fa      	b.n	b0d4 <rand+0x40>
    b0de:	46c0      	nop			; (mov r8, r8)
    b0e0:	2000004c 	.word	0x2000004c
    b0e4:	0000ba91 	.word	0x0000ba91
    b0e8:	0001f31d 	.word	0x0001f31d
    b0ec:	000041a7 	.word	0x000041a7
    b0f0:	0000b985 	.word	0x0000b985
    b0f4:	7fffffff 	.word	0x7fffffff
    b0f8:	1f0cce42 	.word	0x1f0cce42

0000b0fc <srand>:
    b0fc:	4b01      	ldr	r3, [pc, #4]	; (b104 <srand+0x8>)
    b0fe:	6018      	str	r0, [r3, #0]
    b100:	4770      	bx	lr
    b102:	46c0      	nop			; (mov r8, r8)
    b104:	2000004c 	.word	0x2000004c

0000b108 <waitTillHasEnoughTime>:
    b108:	2383      	movs	r3, #131	; 0x83
    b10a:	21c8      	movs	r1, #200	; 0xc8
    b10c:	0940      	lsrs	r0, r0, #5
    b10e:	009b      	lsls	r3, r3, #2
    b110:	4a04      	ldr	r2, [pc, #16]	; (b124 <waitTillHasEnoughTime+0x1c>)
    b112:	1a18      	subs	r0, r3, r0
    b114:	0049      	lsls	r1, r1, #1
    b116:	6813      	ldr	r3, [r2, #0]
    b118:	428b      	cmp	r3, r1
    b11a:	d9fc      	bls.n	b116 <waitTillHasEnoughTime+0xe>
    b11c:	6813      	ldr	r3, [r2, #0]
    b11e:	4283      	cmp	r3, r0
    b120:	d2f9      	bcs.n	b116 <waitTillHasEnoughTime+0xe>
    b122:	4770      	bx	lr
    b124:	200059c0 	.word	0x200059c0

0000b128 <f_millis16>:
    b128:	4b01      	ldr	r3, [pc, #4]	; (b130 <f_millis16+0x8>)
    b12a:	6918      	ldr	r0, [r3, #16]
    b12c:	b280      	uxth	r0, r0
    b12e:	4770      	bx	lr
    b130:	42003000 	.word	0x42003000

0000b134 <initUsvc>:
    b134:	2200      	movs	r2, #0
    b136:	4b55      	ldr	r3, [pc, #340]	; (b28c <initUsvc+0x158>)
    b138:	b570      	push	{r4, r5, r6, lr}
    b13a:	701a      	strb	r2, [r3, #0]
    b13c:	2380      	movs	r3, #128	; 0x80
    b13e:	0005      	movs	r5, r0
    b140:	4853      	ldr	r0, [pc, #332]	; (b290 <initUsvc+0x15c>)
    b142:	059b      	lsls	r3, r3, #22
    b144:	6018      	str	r0, [r3, #0]
    b146:	321c      	adds	r2, #28
    b148:	2100      	movs	r1, #0
    b14a:	4b52      	ldr	r3, [pc, #328]	; (b294 <initUsvc+0x160>)
    b14c:	4798      	blx	r3
    b14e:	211e      	movs	r1, #30
    b150:	2002      	movs	r0, #2
    b152:	4a51      	ldr	r2, [pc, #324]	; (b298 <initUsvc+0x164>)
    b154:	2435      	movs	r4, #53	; 0x35
    b156:	6853      	ldr	r3, [r2, #4]
    b158:	438b      	bics	r3, r1
    b15a:	4303      	orrs	r3, r0
    b15c:	6053      	str	r3, [r2, #4]
    b15e:	4b4f      	ldr	r3, [pc, #316]	; (b29c <initUsvc+0x168>)
    b160:	3916      	subs	r1, #22
    b162:	699a      	ldr	r2, [r3, #24]
    b164:	430a      	orrs	r2, r1
    b166:	619a      	str	r2, [r3, #24]
    b168:	4a4d      	ldr	r2, [pc, #308]	; (b2a0 <initUsvc+0x16c>)
    b16a:	3907      	subs	r1, #7
    b16c:	7011      	strb	r1, [r2, #0]
    b16e:	310d      	adds	r1, #13
    b170:	6199      	str	r1, [r3, #24]
    b172:	230f      	movs	r3, #15
    b174:	494b      	ldr	r1, [pc, #300]	; (b2a4 <initUsvc+0x170>)
    b176:	5d0e      	ldrb	r6, [r1, r4]
    b178:	4033      	ands	r3, r6
    b17a:	2670      	movs	r6, #112	; 0x70
    b17c:	4333      	orrs	r3, r6
    b17e:	2601      	movs	r6, #1
    b180:	550b      	strb	r3, [r1, r4]
    b182:	3416      	adds	r4, #22
    b184:	5d0b      	ldrb	r3, [r1, r4]
    b186:	4333      	orrs	r3, r6
    b188:	550b      	strb	r3, [r1, r4]
    b18a:	4b47      	ldr	r3, [pc, #284]	; (b2a8 <initUsvc+0x174>)
    b18c:	2150      	movs	r1, #80	; 0x50
    b18e:	6093      	str	r3, [r2, #8]
    b190:	4b46      	ldr	r3, [pc, #280]	; (b2ac <initUsvc+0x178>)
    b192:	6053      	str	r3, [r2, #4]
    b194:	4b46      	ldr	r3, [pc, #280]	; (b2b0 <initUsvc+0x17c>)
    b196:	8053      	strh	r3, [r2, #2]
    b198:	222f      	movs	r2, #47	; 0x2f
    b19a:	4b46      	ldr	r3, [pc, #280]	; (b2b4 <initUsvc+0x180>)
    b19c:	649a      	str	r2, [r3, #72]	; 0x48
    b19e:	3a0f      	subs	r2, #15
    b1a0:	64da      	str	r2, [r3, #76]	; 0x4c
    b1a2:	3224      	adds	r2, #36	; 0x24
    b1a4:	5498      	strb	r0, [r3, r2]
    b1a6:	3a41      	subs	r2, #65	; 0x41
    b1a8:	5c58      	ldrb	r0, [r3, r1]
    b1aa:	4202      	tst	r2, r0
    b1ac:	d0fc      	beq.n	b1a8 <initUsvc+0x74>
    b1ae:	2380      	movs	r3, #128	; 0x80
    b1b0:	4c3b      	ldr	r4, [pc, #236]	; (b2a0 <initUsvc+0x16c>)
    b1b2:	005b      	lsls	r3, r3, #1
    b1b4:	60a3      	str	r3, [r4, #8]
    b1b6:	23a1      	movs	r3, #161	; 0xa1
    b1b8:	2200      	movs	r2, #0
    b1ba:	02db      	lsls	r3, r3, #11
    b1bc:	6063      	str	r3, [r4, #4]
    b1be:	4b37      	ldr	r3, [pc, #220]	; (b29c <initUsvc+0x168>)
    b1c0:	721a      	strb	r2, [r3, #8]
    b1c2:	725a      	strb	r2, [r3, #9]
    b1c4:	729a      	strb	r2, [r3, #10]
    b1c6:	72da      	strb	r2, [r3, #11]
    b1c8:	4a3b      	ldr	r2, [pc, #236]	; (b2b8 <initUsvc+0x184>)
    b1ca:	621a      	str	r2, [r3, #32]
    b1cc:	4b3b      	ldr	r3, [pc, #236]	; (b2bc <initUsvc+0x188>)
    b1ce:	4a3c      	ldr	r2, [pc, #240]	; (b2c0 <initUsvc+0x18c>)
    b1d0:	8063      	strh	r3, [r4, #2]
    b1d2:	4b3c      	ldr	r3, [pc, #240]	; (b2c4 <initUsvc+0x190>)
    b1d4:	8063      	strh	r3, [r4, #2]
    b1d6:	4b3c      	ldr	r3, [pc, #240]	; (b2c8 <initUsvc+0x194>)
    b1d8:	601a      	str	r2, [r3, #0]
    b1da:	2280      	movs	r2, #128	; 0x80
    b1dc:	4b3b      	ldr	r3, [pc, #236]	; (b2cc <initUsvc+0x198>)
    b1de:	601a      	str	r2, [r3, #0]
    b1e0:	4b3b      	ldr	r3, [pc, #236]	; (b2d0 <initUsvc+0x19c>)
    b1e2:	4798      	blx	r3
    b1e4:	0028      	movs	r0, r5
    b1e6:	4b3b      	ldr	r3, [pc, #236]	; (b2d4 <initUsvc+0x1a0>)
    b1e8:	4798      	blx	r3
    b1ea:	4b3b      	ldr	r3, [pc, #236]	; (b2d8 <initUsvc+0x1a4>)
    b1ec:	4798      	blx	r3
    b1ee:	4b3b      	ldr	r3, [pc, #236]	; (b2dc <initUsvc+0x1a8>)
    b1f0:	4a3b      	ldr	r2, [pc, #236]	; (b2e0 <initUsvc+0x1ac>)
    b1f2:	2510      	movs	r5, #16
    b1f4:	801a      	strh	r2, [r3, #0]
    b1f6:	2286      	movs	r2, #134	; 0x86
    b1f8:	4b3a      	ldr	r3, [pc, #232]	; (b2e4 <initUsvc+0x1b0>)
    b1fa:	0112      	lsls	r2, r2, #4
    b1fc:	801a      	strh	r2, [r3, #0]
    b1fe:	4a3a      	ldr	r2, [pc, #232]	; (b2e8 <initUsvc+0x1b4>)
    b200:	493a      	ldr	r1, [pc, #232]	; (b2ec <initUsvc+0x1b8>)
    b202:	7015      	strb	r5, [r2, #0]
    b204:	4a3a      	ldr	r2, [pc, #232]	; (b2f0 <initUsvc+0x1bc>)
    b206:	2002      	movs	r0, #2
    b208:	8011      	strh	r1, [r2, #0]
    b20a:	2180      	movs	r1, #128	; 0x80
    b20c:	4a39      	ldr	r2, [pc, #228]	; (b2f4 <initUsvc+0x1c0>)
    b20e:	0149      	lsls	r1, r1, #5
    b210:	8011      	strh	r1, [r2, #0]
    b212:	2102      	movs	r1, #2
    b214:	799a      	ldrb	r2, [r3, #6]
    b216:	430a      	orrs	r2, r1
    b218:	719a      	strb	r2, [r3, #6]
    b21a:	2240      	movs	r2, #64	; 0x40
    b21c:	8819      	ldrh	r1, [r3, #0]
    b21e:	4301      	orrs	r1, r0
    b220:	8019      	strh	r1, [r3, #0]
    b222:	4b35      	ldr	r3, [pc, #212]	; (b2f8 <initUsvc+0x1c4>)
    b224:	4935      	ldr	r1, [pc, #212]	; (b2fc <initUsvc+0x1c8>)
    b226:	701a      	strb	r2, [r3, #0]
    b228:	4b35      	ldr	r3, [pc, #212]	; (b300 <initUsvc+0x1cc>)
    b22a:	4a36      	ldr	r2, [pc, #216]	; (b304 <initUsvc+0x1d0>)
    b22c:	701d      	strb	r5, [r3, #0]
    b22e:	4b36      	ldr	r3, [pc, #216]	; (b308 <initUsvc+0x1d4>)
    b230:	601a      	str	r2, [r3, #0]
    b232:	4b36      	ldr	r3, [pc, #216]	; (b30c <initUsvc+0x1d8>)
    b234:	4a36      	ldr	r2, [pc, #216]	; (b310 <initUsvc+0x1dc>)
    b236:	801a      	strh	r2, [r3, #0]
    b238:	4b36      	ldr	r3, [pc, #216]	; (b314 <initUsvc+0x1e0>)
    b23a:	8063      	strh	r3, [r4, #2]
    b23c:	4b36      	ldr	r3, [pc, #216]	; (b318 <initUsvc+0x1e4>)
    b23e:	881a      	ldrh	r2, [r3, #0]
    b240:	4311      	orrs	r1, r2
    b242:	8019      	strh	r1, [r3, #0]
    b244:	2122      	movs	r1, #34	; 0x22
    b246:	4a35      	ldr	r2, [pc, #212]	; (b31c <initUsvc+0x1e8>)
    b248:	8011      	strh	r1, [r2, #0]
    b24a:	881a      	ldrh	r2, [r3, #0]
    b24c:	4934      	ldr	r1, [pc, #208]	; (b320 <initUsvc+0x1ec>)
    b24e:	4302      	orrs	r2, r0
    b250:	801a      	strh	r2, [r3, #0]
    b252:	4a34      	ldr	r2, [pc, #208]	; (b324 <initUsvc+0x1f0>)
    b254:	4834      	ldr	r0, [pc, #208]	; (b328 <initUsvc+0x1f4>)
    b256:	805a      	strh	r2, [r3, #2]
    b258:	2380      	movs	r3, #128	; 0x80
    b25a:	059b      	lsls	r3, r3, #22
    b25c:	4a33      	ldr	r2, [pc, #204]	; (b32c <initUsvc+0x1f8>)
    b25e:	681b      	ldr	r3, [r3, #0]
    b260:	611a      	str	r2, [r3, #16]
    b262:	4b33      	ldr	r3, [pc, #204]	; (b330 <initUsvc+0x1fc>)
    b264:	4798      	blx	r3
    b266:	4b33      	ldr	r3, [pc, #204]	; (b334 <initUsvc+0x200>)
    b268:	4798      	blx	r3
    b26a:	2137      	movs	r1, #55	; 0x37
    b26c:	230f      	movs	r3, #15
    b26e:	4a0d      	ldr	r2, [pc, #52]	; (b2a4 <initUsvc+0x170>)
    b270:	5c50      	ldrb	r0, [r2, r1]
    b272:	4003      	ands	r3, r0
    b274:	2070      	movs	r0, #112	; 0x70
    b276:	4303      	orrs	r3, r0
    b278:	2001      	movs	r0, #1
    b27a:	5453      	strb	r3, [r2, r1]
    b27c:	3118      	adds	r1, #24
    b27e:	5c53      	ldrb	r3, [r2, r1]
    b280:	4303      	orrs	r3, r0
    b282:	5453      	strb	r3, [r2, r1]
    b284:	4b2c      	ldr	r3, [pc, #176]	; (b338 <initUsvc+0x204>)
    b286:	6063      	str	r3, [r4, #4]
    b288:	bd70      	pop	{r4, r5, r6, pc}
    b28a:	46c0      	nop			; (mov r8, r8)
    b28c:	40001000 	.word	0x40001000
    b290:	200006b8 	.word	0x200006b8
    b294:	0000bd5d 	.word	0x0000bd5d
    b298:	41004000 	.word	0x41004000
    b29c:	40000400 	.word	0x40000400
    b2a0:	40000c00 	.word	0x40000c00
    b2a4:	41004400 	.word	0x41004400
    b2a8:	00001005 	.word	0x00001005
    b2ac:	00010105 	.word	0x00010105
    b2b0:	00004501 	.word	0x00004501
    b2b4:	40000800 	.word	0x40000800
    b2b8:	00053ffe 	.word	0x00053ffe
    b2bc:	00004021 	.word	0x00004021
    b2c0:	0002000e 	.word	0x0002000e
    b2c4:	00004014 	.word	0x00004014
    b2c8:	42000800 	.word	0x42000800
    b2cc:	41004404 	.word	0x41004404
    b2d0:	00009c6d 	.word	0x00009c6d
    b2d4:	00009cc1 	.word	0x00009cc1
    b2d8:	0000b569 	.word	0x0000b569
    b2dc:	40000c02 	.word	0x40000c02
    b2e0:	0000401b 	.word	0x0000401b
    b2e4:	42002c00 	.word	0x42002c00
    b2e8:	42002c0e 	.word	0x42002c0e
    b2ec:	ffffbb7f 	.word	0xffffbb7f
    b2f0:	42002c18 	.word	0x42002c18
    b2f4:	42002c0a 	.word	0x42002c0a
    b2f8:	42002c05 	.word	0x42002c05
    b2fc:	00000808 	.word	0x00000808
    b300:	42000400 	.word	0x42000400
    b304:	06340001 	.word	0x06340001
    b308:	42000404 	.word	0x42000404
    b30c:	42000408 	.word	0x42000408
    b310:	00000213 	.word	0x00000213
    b314:	0000401c 	.word	0x0000401c
    b318:	42003000 	.word	0x42003000
    b31c:	4200300a 	.word	0x4200300a
    b320:	0000b459 	.word	0x0000b459
    b324:	00004010 	.word	0x00004010
    b328:	0001f49c 	.word	0x0001f49c
    b32c:	0001f48c 	.word	0x0001f48c
    b330:	0000b469 	.word	0x0000b469
    b334:	0000b4c1 	.word	0x0000b4c1
    b338:	00040001 	.word	0x00040001

0000b33c <millis>:
    b33c:	4b01      	ldr	r3, [pc, #4]	; (b344 <millis+0x8>)
    b33e:	6918      	ldr	r0, [r3, #16]
    b340:	4770      	bx	lr
    b342:	46c0      	nop			; (mov r8, r8)
    b344:	42003000 	.word	0x42003000

0000b348 <setPortMux>:
    b348:	4a0e      	ldr	r2, [pc, #56]	; (b384 <setPortMux+0x3c>)
    b34a:	0843      	lsrs	r3, r0, #1
    b34c:	4694      	mov	ip, r2
    b34e:	b510      	push	{r4, lr}
    b350:	4463      	add	r3, ip
    b352:	07c2      	lsls	r2, r0, #31
    b354:	d50e      	bpl.n	b374 <setPortMux+0x2c>
    b356:	220f      	movs	r2, #15
    b358:	781c      	ldrb	r4, [r3, #0]
    b35a:	0109      	lsls	r1, r1, #4
    b35c:	4022      	ands	r2, r4
    b35e:	4311      	orrs	r1, r2
    b360:	b2c9      	uxtb	r1, r1
    b362:	7019      	strb	r1, [r3, #0]
    b364:	4b08      	ldr	r3, [pc, #32]	; (b388 <setPortMux+0x40>)
    b366:	2201      	movs	r2, #1
    b368:	469c      	mov	ip, r3
    b36a:	4460      	add	r0, ip
    b36c:	7803      	ldrb	r3, [r0, #0]
    b36e:	4313      	orrs	r3, r2
    b370:	7003      	strb	r3, [r0, #0]
    b372:	bd10      	pop	{r4, pc}
    b374:	240f      	movs	r4, #15
    b376:	781a      	ldrb	r2, [r3, #0]
    b378:	4021      	ands	r1, r4
    b37a:	43a2      	bics	r2, r4
    b37c:	4311      	orrs	r1, r2
    b37e:	7019      	strb	r1, [r3, #0]
    b380:	e7f0      	b.n	b364 <setPortMux+0x1c>
    b382:	46c0      	nop			; (mov r8, r8)
    b384:	41004430 	.word	0x41004430
    b388:	41004440 	.word	0x41004440

0000b38c <setLed>:
    b38c:	2800      	cmp	r0, #0
    b38e:	d00d      	beq.n	b3ac <setLed+0x20>
    b390:	2133      	movs	r1, #51	; 0x33
    b392:	230f      	movs	r3, #15
    b394:	4a0b      	ldr	r2, [pc, #44]	; (b3c4 <setLed+0x38>)
    b396:	5c50      	ldrb	r0, [r2, r1]
    b398:	4003      	ands	r3, r0
    b39a:	2030      	movs	r0, #48	; 0x30
    b39c:	4303      	orrs	r3, r0
    b39e:	2001      	movs	r0, #1
    b3a0:	5453      	strb	r3, [r2, r1]
    b3a2:	3114      	adds	r1, #20
    b3a4:	5c53      	ldrb	r3, [r2, r1]
    b3a6:	4303      	orrs	r3, r0
    b3a8:	5453      	strb	r3, [r2, r1]
    b3aa:	4770      	bx	lr
    b3ac:	2133      	movs	r1, #51	; 0x33
    b3ae:	220f      	movs	r2, #15
    b3b0:	4b04      	ldr	r3, [pc, #16]	; (b3c4 <setLed+0x38>)
    b3b2:	5c58      	ldrb	r0, [r3, r1]
    b3b4:	4002      	ands	r2, r0
    b3b6:	2001      	movs	r0, #1
    b3b8:	545a      	strb	r2, [r3, r1]
    b3ba:	3114      	adds	r1, #20
    b3bc:	5c5a      	ldrb	r2, [r3, r1]
    b3be:	4302      	orrs	r2, r0
    b3c0:	545a      	strb	r2, [r3, r1]
    b3c2:	e7f2      	b.n	b3aa <setLed+0x1e>
    b3c4:	41004400 	.word	0x41004400

0000b3c8 <usbHidBootKeyboardInstaller>:
    b3c8:	b510      	push	{r4, lr}
    b3ca:	4b02      	ldr	r3, [pc, #8]	; (b3d4 <usbHidBootKeyboardInstaller+0xc>)
    b3cc:	681b      	ldr	r3, [r3, #0]
    b3ce:	6c9b      	ldr	r3, [r3, #72]	; 0x48
    b3d0:	4798      	blx	r3
    b3d2:	bd10      	pop	{r4, pc}
    b3d4:	000020b0 	.word	0x000020b0

0000b3d8 <usbHidBootKeyboardIsInstalled>:
    b3d8:	b510      	push	{r4, lr}
    b3da:	4b02      	ldr	r3, [pc, #8]	; (b3e4 <usbHidBootKeyboardIsInstalled+0xc>)
    b3dc:	681b      	ldr	r3, [r3, #0]
    b3de:	6cdb      	ldr	r3, [r3, #76]	; 0x4c
    b3e0:	4798      	blx	r3
    b3e2:	bd10      	pop	{r4, pc}
    b3e4:	000020b0 	.word	0x000020b0

0000b3e8 <usbGetKey>:
    b3e8:	b510      	push	{r4, lr}
    b3ea:	4b02      	ldr	r3, [pc, #8]	; (b3f4 <usbGetKey+0xc>)
    b3ec:	681b      	ldr	r3, [r3, #0]
    b3ee:	6d1b      	ldr	r3, [r3, #80]	; 0x50
    b3f0:	4798      	blx	r3
    b3f2:	bd10      	pop	{r4, pc}
    b3f4:	000020b0 	.word	0x000020b0

0000b3f8 <usbKeyboardPoll>:
    b3f8:	b510      	push	{r4, lr}
    b3fa:	4b02      	ldr	r3, [pc, #8]	; (b404 <usbKeyboardPoll+0xc>)
    b3fc:	681b      	ldr	r3, [r3, #0]
    b3fe:	6d5b      	ldr	r3, [r3, #84]	; 0x54
    b400:	4798      	blx	r3
    b402:	bd10      	pop	{r4, pc}
    b404:	000020b0 	.word	0x000020b0

0000b408 <usbGetCurrentAsciiKeyboardStateEx>:
    b408:	b510      	push	{r4, lr}
    b40a:	4b02      	ldr	r3, [pc, #8]	; (b414 <usbGetCurrentAsciiKeyboardStateEx+0xc>)
    b40c:	681b      	ldr	r3, [r3, #0]
    b40e:	6e1b      	ldr	r3, [r3, #96]	; 0x60
    b410:	4798      	blx	r3
    b412:	bd10      	pop	{r4, pc}
    b414:	000020b0 	.word	0x000020b0

0000b418 <usbHidGenericGamepadInstaller>:
    b418:	b510      	push	{r4, lr}
    b41a:	4b02      	ldr	r3, [pc, #8]	; (b424 <usbHidGenericGamepadInstaller+0xc>)
    b41c:	681b      	ldr	r3, [r3, #0]
    b41e:	6e9b      	ldr	r3, [r3, #104]	; 0x68
    b420:	4798      	blx	r3
    b422:	bd10      	pop	{r4, pc}
    b424:	000020b0 	.word	0x000020b0

0000b428 <usbHidGenericGamepadIsInstalled>:
    b428:	b510      	push	{r4, lr}
    b42a:	4b02      	ldr	r3, [pc, #8]	; (b434 <usbHidGenericGamepadIsInstalled+0xc>)
    b42c:	681b      	ldr	r3, [r3, #0]
    b42e:	6edb      	ldr	r3, [r3, #108]	; 0x6c
    b430:	4798      	blx	r3
    b432:	bd10      	pop	{r4, pc}
    b434:	000020b0 	.word	0x000020b0

0000b438 <usbHidGenericGamepadPoll>:
    b438:	b510      	push	{r4, lr}
    b43a:	4b02      	ldr	r3, [pc, #8]	; (b444 <usbHidGenericGamepadPoll+0xc>)
    b43c:	681b      	ldr	r3, [r3, #0]
    b43e:	6f1b      	ldr	r3, [r3, #112]	; 0x70
    b440:	4798      	blx	r3
    b442:	bd10      	pop	{r4, pc}
    b444:	000020b0 	.word	0x000020b0

0000b448 <getCurrentGamepadState>:
    b448:	b510      	push	{r4, lr}
    b44a:	4b02      	ldr	r3, [pc, #8]	; (b454 <getCurrentGamepadState+0xc>)
    b44c:	681b      	ldr	r3, [r3, #0]
    b44e:	6f5b      	ldr	r3, [r3, #116]	; 0x74
    b450:	4798      	blx	r3
    b452:	bd10      	pop	{r4, pc}
    b454:	000020b0 	.word	0x000020b0

0000b458 <usbStandardSingleDeviceAllocateDriverMemory>:
    b458:	285c      	cmp	r0, #92	; 0x5c
    b45a:	d801      	bhi.n	b460 <usbStandardSingleDeviceAllocateDriverMemory+0x8>
    b45c:	4801      	ldr	r0, [pc, #4]	; (b464 <usbStandardSingleDeviceAllocateDriverMemory+0xc>)
    b45e:	4770      	bx	lr
    b460:	2000      	movs	r0, #0
    b462:	e7fc      	b.n	b45e <usbStandardSingleDeviceAllocateDriverMemory+0x6>
    b464:	20000a48 	.word	0x20000a48

0000b468 <initUSBModule>:
    b468:	4b0e      	ldr	r3, [pc, #56]	; (b4a4 <initUSBModule+0x3c>)
    b46a:	4a0f      	ldr	r2, [pc, #60]	; (b4a8 <initUSBModule+0x40>)
    b46c:	6118      	str	r0, [r3, #16]
    b46e:	601a      	str	r2, [r3, #0]
    b470:	4a0e      	ldr	r2, [pc, #56]	; (b4ac <initUSBModule+0x44>)
    b472:	62d9      	str	r1, [r3, #44]	; 0x2c
    b474:	619a      	str	r2, [r3, #24]
    b476:	4a0e      	ldr	r2, [pc, #56]	; (b4b0 <initUSBModule+0x48>)
    b478:	615a      	str	r2, [r3, #20]
    b47a:	4a0e      	ldr	r2, [pc, #56]	; (b4b4 <initUSBModule+0x4c>)
    b47c:	609a      	str	r2, [r3, #8]
    b47e:	4a0e      	ldr	r2, [pc, #56]	; (b4b8 <initUSBModule+0x50>)
    b480:	60da      	str	r2, [r3, #12]
    b482:	4a0e      	ldr	r2, [pc, #56]	; (b4bc <initUSBModule+0x54>)
    b484:	605a      	str	r2, [r3, #4]
    b486:	2211      	movs	r2, #17
    b488:	631a      	str	r2, [r3, #48]	; 0x30
    b48a:	32ef      	adds	r2, #239	; 0xef
    b48c:	635a      	str	r2, [r3, #52]	; 0x34
    b48e:	22c0      	movs	r2, #192	; 0xc0
    b490:	0292      	lsls	r2, r2, #10
    b492:	639a      	str	r2, [r3, #56]	; 0x38
    b494:	22ff      	movs	r2, #255	; 0xff
    b496:	4252      	negs	r2, r2
    b498:	879a      	strh	r2, [r3, #60]	; 0x3c
    b49a:	2280      	movs	r2, #128	; 0x80
    b49c:	0592      	lsls	r2, r2, #22
    b49e:	6812      	ldr	r2, [r2, #0]
    b4a0:	6053      	str	r3, [r2, #4]
    b4a2:	4770      	bx	lr
    b4a4:	20000ac4 	.word	0x20000ac4
    b4a8:	200009d4 	.word	0x200009d4
    b4ac:	20000b04 	.word	0x20000b04
    b4b0:	20000aa4 	.word	0x20000aa4
    b4b4:	20000874 	.word	0x20000874
    b4b8:	20000a40 	.word	0x20000a40
    b4bc:	20000974 	.word	0x20000974

0000b4c0 <usbHostInit>:
    b4c0:	b510      	push	{r4, lr}
    b4c2:	4b02      	ldr	r3, [pc, #8]	; (b4cc <usbHostInit+0xc>)
    b4c4:	681b      	ldr	r3, [r3, #0]
    b4c6:	69db      	ldr	r3, [r3, #28]
    b4c8:	4798      	blx	r3
    b4ca:	bd10      	pop	{r4, pc}
    b4cc:	000020b0 	.word	0x000020b0

0000b4d0 <usbHostTask>:
    b4d0:	b510      	push	{r4, lr}
    b4d2:	4b02      	ldr	r3, [pc, #8]	; (b4dc <usbHostTask+0xc>)
    b4d4:	681b      	ldr	r3, [r3, #0]
    b4d6:	6a1b      	ldr	r3, [r3, #32]
    b4d8:	4798      	blx	r3
    b4da:	bd10      	pop	{r4, pc}
    b4dc:	000020b0 	.word	0x000020b0

0000b4e0 <initPaletteEntries>:
    b4e0:	b5f0      	push	{r4, r5, r6, r7, lr}
    b4e2:	2480      	movs	r4, #128	; 0x80
    b4e4:	00e4      	lsls	r4, r4, #3
    b4e6:	1aa4      	subs	r4, r4, r2
    b4e8:	428c      	cmp	r4, r1
    b4ea:	d900      	bls.n	b4ee <initPaletteEntries+0xe>
    b4ec:	000c      	movs	r4, r1
    b4ee:	4b1d      	ldr	r3, [pc, #116]	; (b564 <initPaletteEntries+0x84>)
    b4f0:	0092      	lsls	r2, r2, #2
    b4f2:	18d5      	adds	r5, r2, r3
    b4f4:	2c00      	cmp	r4, #0
    b4f6:	dd2a      	ble.n	b54e <initPaletteEntries+0x6e>
    b4f8:	3208      	adds	r2, #8
    b4fa:	18d2      	adds	r2, r2, r3
    b4fc:	2300      	movs	r3, #0
    b4fe:	0019      	movs	r1, r3
    b500:	4290      	cmp	r0, r2
    b502:	4159      	adcs	r1, r3
    b504:	000a      	movs	r2, r1
    b506:	0001      	movs	r1, r0
    b508:	3108      	adds	r1, #8
    b50a:	428d      	cmp	r5, r1
    b50c:	415b      	adcs	r3, r3
    b50e:	210b      	movs	r1, #11
    b510:	4313      	orrs	r3, r2
    b512:	1e62      	subs	r2, r4, #1
    b514:	4291      	cmp	r1, r2
    b516:	4192      	sbcs	r2, r2
    b518:	4252      	negs	r2, r2
    b51a:	421a      	tst	r2, r3
    b51c:	d018      	beq.n	b550 <initPaletteEntries+0x70>
    b51e:	0003      	movs	r3, r0
    b520:	432b      	orrs	r3, r5
    b522:	075b      	lsls	r3, r3, #29
    b524:	d114      	bne.n	b550 <initPaletteEntries+0x70>
    b526:	0863      	lsrs	r3, r4, #1
    b528:	469c      	mov	ip, r3
    b52a:	0001      	movs	r1, r0
    b52c:	002a      	movs	r2, r5
    b52e:	2300      	movs	r3, #0
    b530:	c9c0      	ldmia	r1!, {r6, r7}
    b532:	3301      	adds	r3, #1
    b534:	c2c0      	stmia	r2!, {r6, r7}
    b536:	4563      	cmp	r3, ip
    b538:	d1fa      	bne.n	b530 <initPaletteEntries+0x50>
    b53a:	2301      	movs	r3, #1
    b53c:	0022      	movs	r2, r4
    b53e:	439a      	bics	r2, r3
    b540:	0093      	lsls	r3, r2, #2
    b542:	18c0      	adds	r0, r0, r3
    b544:	18eb      	adds	r3, r5, r3
    b546:	4294      	cmp	r4, r2
    b548:	d001      	beq.n	b54e <initPaletteEntries+0x6e>
    b54a:	6802      	ldr	r2, [r0, #0]
    b54c:	601a      	str	r2, [r3, #0]
    b54e:	bdf0      	pop	{r4, r5, r6, r7, pc}
    b550:	2200      	movs	r2, #0
    b552:	2300      	movs	r3, #0
    b554:	5881      	ldr	r1, [r0, r2]
    b556:	3301      	adds	r3, #1
    b558:	50a9      	str	r1, [r5, r2]
    b55a:	3204      	adds	r2, #4
    b55c:	429c      	cmp	r4, r3
    b55e:	d1f9      	bne.n	b554 <initPaletteEntries+0x74>
    b560:	e7f5      	b.n	b54e <initPaletteEntries+0x6e>
    b562:	46c0      	nop			; (mov r8, r8)
    b564:	200049c0 	.word	0x200049c0

0000b568 <initVga>:
    b568:	b5f8      	push	{r3, r4, r5, r6, r7, lr}
    b56a:	2203      	movs	r2, #3
    b56c:	46de      	mov	lr, fp
    b56e:	4657      	mov	r7, sl
    b570:	464e      	mov	r6, r9
    b572:	4645      	mov	r5, r8
    b574:	4b50      	ldr	r3, [pc, #320]	; (b6b8 <initVga+0x150>)
    b576:	b5e0      	push	{r5, r6, r7, lr}
    b578:	601a      	str	r2, [r3, #0]
    b57a:	4b50      	ldr	r3, [pc, #320]	; (b6bc <initVga+0x154>)
    b57c:	4c50      	ldr	r4, [pc, #320]	; (b6c0 <initVga+0x158>)
    b57e:	4699      	mov	r9, r3
    b580:	464a      	mov	r2, r9
    b582:	4b50      	ldr	r3, [pc, #320]	; (b6c4 <initVga+0x15c>)
    b584:	2107      	movs	r1, #7
    b586:	60d3      	str	r3, [r2, #12]
    b588:	4b4f      	ldr	r3, [pc, #316]	; (b6c8 <initVga+0x160>)
    b58a:	200a      	movs	r0, #10
    b58c:	6153      	str	r3, [r2, #20]
    b58e:	4b4f      	ldr	r3, [pc, #316]	; (b6cc <initVga+0x164>)
    b590:	4f4f      	ldr	r7, [pc, #316]	; (b6d0 <initVga+0x168>)
    b592:	6113      	str	r3, [r2, #16]
    b594:	4b4f      	ldr	r3, [pc, #316]	; (b6d4 <initVga+0x16c>)
    b596:	4d50      	ldr	r5, [pc, #320]	; (b6d8 <initVga+0x170>)
    b598:	6193      	str	r3, [r2, #24]
    b59a:	2280      	movs	r2, #128	; 0x80
    b59c:	4b4f      	ldr	r3, [pc, #316]	; (b6dc <initVga+0x174>)
    b59e:	0092      	lsls	r2, r2, #2
    b5a0:	601a      	str	r2, [r3, #0]
    b5a2:	4b4f      	ldr	r3, [pc, #316]	; (b6e0 <initVga+0x178>)
    b5a4:	4e4f      	ldr	r6, [pc, #316]	; (b6e4 <initVga+0x17c>)
    b5a6:	6023      	str	r3, [r4, #0]
    b5a8:	4b4f      	ldr	r3, [pc, #316]	; (b6e8 <initVga+0x180>)
    b5aa:	4798      	blx	r3
    b5ac:	2204      	movs	r2, #4
    b5ae:	4b4f      	ldr	r3, [pc, #316]	; (b6ec <initVga+0x184>)
    b5b0:	2110      	movs	r1, #16
    b5b2:	605a      	str	r2, [r3, #4]
    b5b4:	2302      	movs	r3, #2
    b5b6:	4698      	mov	r8, r3
    b5b8:	4642      	mov	r2, r8
    b5ba:	335c      	adds	r3, #92	; 0x5c
    b5bc:	54e2      	strb	r2, [r4, r3]
    b5be:	3301      	adds	r3, #1
    b5c0:	54e2      	strb	r2, [r4, r3]
    b5c2:	4b4b      	ldr	r3, [pc, #300]	; (b6f0 <initVga+0x188>)
    b5c4:	4a4b      	ldr	r2, [pc, #300]	; (b6f4 <initVga+0x18c>)
    b5c6:	2080      	movs	r0, #128	; 0x80
    b5c8:	801a      	strh	r2, [r3, #0]
    b5ca:	4a4b      	ldr	r2, [pc, #300]	; (b6f8 <initVga+0x190>)
    b5cc:	24ff      	movs	r4, #255	; 0xff
    b5ce:	7011      	strb	r1, [r2, #0]
    b5d0:	4a4a      	ldr	r2, [pc, #296]	; (b6fc <initVga+0x194>)
    b5d2:	0040      	lsls	r0, r0, #1
    b5d4:	4693      	mov	fp, r2
    b5d6:	4659      	mov	r1, fp
    b5d8:	4a49      	ldr	r2, [pc, #292]	; (b700 <initVga+0x198>)
    b5da:	600a      	str	r2, [r1, #0]
    b5dc:	21c2      	movs	r1, #194	; 0xc2
    b5de:	4a49      	ldr	r2, [pc, #292]	; (b704 <initVga+0x19c>)
    b5e0:	0089      	lsls	r1, r1, #2
    b5e2:	6010      	str	r0, [r2, #0]
    b5e4:	587a      	ldr	r2, [r7, r1]
    b5e6:	43a2      	bics	r2, r4
    b5e8:	507a      	str	r2, [r7, r1]
    b5ea:	4a47      	ldr	r2, [pc, #284]	; (b708 <initVga+0x1a0>)
    b5ec:	6038      	str	r0, [r7, #0]
    b5ee:	801a      	strh	r2, [r3, #0]
    b5f0:	4a46      	ldr	r2, [pc, #280]	; (b70c <initVga+0x1a4>)
    b5f2:	4c47      	ldr	r4, [pc, #284]	; (b710 <initVga+0x1a8>)
    b5f4:	801a      	strh	r2, [r3, #0]
    b5f6:	2301      	movs	r3, #1
    b5f8:	4642      	mov	r2, r8
    b5fa:	6023      	str	r3, [r4, #0]
    b5fc:	6033      	str	r3, [r6, #0]
    b5fe:	602b      	str	r3, [r5, #0]
    b600:	63e2      	str	r2, [r4, #60]	; 0x3c
    b602:	2200      	movs	r2, #0
    b604:	6362      	str	r2, [r4, #52]	; 0x34
    b606:	4692      	mov	sl, r2
    b608:	4a42      	ldr	r2, [pc, #264]	; (b714 <initVga+0x1ac>)
    b60a:	2105      	movs	r1, #5
    b60c:	6013      	str	r3, [r2, #0]
    b60e:	33be      	adds	r3, #190	; 0xbe
    b610:	6463      	str	r3, [r4, #68]	; 0x44
    b612:	4b41      	ldr	r3, [pc, #260]	; (b718 <initVga+0x1b0>)
    b614:	38f8      	subs	r0, #248	; 0xf8
    b616:	6423      	str	r3, [r4, #64]	; 0x40
    b618:	2380      	movs	r3, #128	; 0x80
    b61a:	02db      	lsls	r3, r3, #11
    b61c:	61a3      	str	r3, [r4, #24]
    b61e:	2380      	movs	r3, #128	; 0x80
    b620:	029b      	lsls	r3, r3, #10
    b622:	62a3      	str	r3, [r4, #40]	; 0x28
    b624:	4a30      	ldr	r2, [pc, #192]	; (b6e8 <initVga+0x180>)
    b626:	4790      	blx	r2
    b628:	4642      	mov	r2, r8
    b62a:	63f2      	str	r2, [r6, #60]	; 0x3c
    b62c:	4652      	mov	r2, sl
    b62e:	4b3b      	ldr	r3, [pc, #236]	; (b71c <initVga+0x1b4>)
    b630:	6372      	str	r2, [r6, #52]	; 0x34
    b632:	320d      	adds	r2, #13
    b634:	32ff      	adds	r2, #255	; 0xff
    b636:	601a      	str	r2, [r3, #0]
    b638:	465a      	mov	r2, fp
    b63a:	4b37      	ldr	r3, [pc, #220]	; (b718 <initVga+0x1b0>)
    b63c:	2104      	movs	r1, #4
    b63e:	6433      	str	r3, [r6, #64]	; 0x40
    b640:	4b37      	ldr	r3, [pc, #220]	; (b720 <initVga+0x1b8>)
    b642:	2004      	movs	r0, #4
    b644:	6013      	str	r3, [r2, #0]
    b646:	4b37      	ldr	r3, [pc, #220]	; (b724 <initVga+0x1bc>)
    b648:	4a37      	ldr	r2, [pc, #220]	; (b728 <initVga+0x1c0>)
    b64a:	801a      	strh	r2, [r3, #0]
    b64c:	3a0a      	subs	r2, #10
    b64e:	801a      	strh	r2, [r3, #0]
    b650:	4643      	mov	r3, r8
    b652:	4652      	mov	r2, sl
    b654:	63eb      	str	r3, [r5, #60]	; 0x3c
    b656:	464b      	mov	r3, r9
    b658:	601a      	str	r2, [r3, #0]
    b65a:	2383      	movs	r3, #131	; 0x83
    b65c:	4642      	mov	r2, r8
    b65e:	009b      	lsls	r3, r3, #2
    b660:	642b      	str	r3, [r5, #64]	; 0x40
    b662:	6c2b      	ldr	r3, [r5, #64]	; 0x40
    b664:	3bc1      	subs	r3, #193	; 0xc1
    b666:	3bff      	subs	r3, #255	; 0xff
    b668:	636b      	str	r3, [r5, #52]	; 0x34
    b66a:	4b30      	ldr	r3, [pc, #192]	; (b72c <initVga+0x1c4>)
    b66c:	601a      	str	r2, [r3, #0]
    b66e:	2380      	movs	r3, #128	; 0x80
    b670:	025b      	lsls	r3, r3, #9
    b672:	61ab      	str	r3, [r5, #24]
    b674:	4698      	mov	r8, r3
    b676:	4b2e      	ldr	r3, [pc, #184]	; (b730 <initVga+0x1c8>)
    b678:	622b      	str	r3, [r5, #32]
    b67a:	4b1b      	ldr	r3, [pc, #108]	; (b6e8 <initVga+0x180>)
    b67c:	4798      	blx	r3
    b67e:	4b2d      	ldr	r3, [pc, #180]	; (b734 <initVga+0x1cc>)
    b680:	2080      	movs	r0, #128	; 0x80
    b682:	6233      	str	r3, [r6, #32]
    b684:	2380      	movs	r3, #128	; 0x80
    b686:	22c4      	movs	r2, #196	; 0xc4
    b688:	045b      	lsls	r3, r3, #17
    b68a:	6233      	str	r3, [r6, #32]
    b68c:	4b2a      	ldr	r3, [pc, #168]	; (b738 <initVga+0x1d0>)
    b68e:	0040      	lsls	r0, r0, #1
    b690:	6220      	str	r0, [r4, #32]
    b692:	602b      	str	r3, [r5, #0]
    b694:	6023      	str	r3, [r4, #0]
    b696:	24ff      	movs	r4, #255	; 0xff
    b698:	2140      	movs	r1, #64	; 0x40
    b69a:	6033      	str	r3, [r6, #0]
    b69c:	0092      	lsls	r2, r2, #2
    b69e:	58bb      	ldr	r3, [r7, r2]
    b6a0:	43a3      	bics	r3, r4
    b6a2:	430b      	orrs	r3, r1
    b6a4:	50bb      	str	r3, [r7, r2]
    b6a6:	4643      	mov	r3, r8
    b6a8:	603b      	str	r3, [r7, #0]
    b6aa:	bc3c      	pop	{r2, r3, r4, r5}
    b6ac:	4690      	mov	r8, r2
    b6ae:	4699      	mov	r9, r3
    b6b0:	46a2      	mov	sl, r4
    b6b2:	46ab      	mov	fp, r5
    b6b4:	bdf8      	pop	{r3, r4, r5, r6, r7, pc}
    b6b6:	46c0      	nop			; (mov r8, r8)
    b6b8:	41007110 	.word	0x41007110
    b6bc:	200059c0 	.word	0x200059c0
    b6c0:	41004400 	.word	0x41004400
    b6c4:	20000b40 	.word	0x20000b40
    b6c8:	60000010 	.word	0x60000010
    b6cc:	200049c0 	.word	0x200049c0
    b6d0:	e000e100 	.word	0xe000e100
    b6d4:	200059e0 	.word	0x200059e0
    b6d8:	42002000 	.word	0x42002000
    b6dc:	41004418 	.word	0x41004418
    b6e0:	c0cf0510 	.word	0xc0cf0510
    b6e4:	42002800 	.word	0x42002800
    b6e8:	0000b349 	.word	0x0000b349
    b6ec:	40000c00 	.word	0x40000c00
    b6f0:	40000c02 	.word	0x40000c02
    b6f4:	00004007 	.word	0x00004007
    b6f8:	42000400 	.word	0x42000400
    b6fc:	42000404 	.word	0x42000404
    b700:	04310000 	.word	0x04310000
    b704:	42000414 	.word	0x42000414
    b708:	0000401a 	.word	0x0000401a
    b70c:	0000401b 	.word	0x0000401b
    b710:	42002400 	.word	0x42002400
    b714:	42002448 	.word	0x42002448
    b718:	0000063d 	.word	0x0000063d
    b71c:	42002844 	.word	0x42002844
    b720:	06290002 	.word	0x06290002
    b724:	42000408 	.word	0x42000408
    b728:	0000030e 	.word	0x0000030e
    b72c:	42002044 	.word	0x42002044
    b730:	00004004 	.word	0x00004004
    b734:	00004001 	.word	0x00004001
    b738:	00000802 	.word	0x00000802

0000b73c <EVSYS_Handler>:
    b73c:	2380      	movs	r3, #128	; 0x80
    b73e:	4a03      	ldr	r2, [pc, #12]	; (b74c <EVSYS_Handler+0x10>)
    b740:	005b      	lsls	r3, r3, #1
    b742:	6811      	ldr	r1, [r2, #0]
    b744:	430b      	orrs	r3, r1
    b746:	6013      	str	r3, [r2, #0]
    b748:	4770      	bx	lr
    b74a:	46c0      	nop			; (mov r8, r8)
    b74c:	42000418 	.word	0x42000418

0000b750 <waitForVerticalBlank>:
    b750:	2292      	movs	r2, #146	; 0x92
    b752:	4903      	ldr	r1, [pc, #12]	; (b760 <waitForVerticalBlank+0x10>)
    b754:	32ff      	adds	r2, #255	; 0xff
    b756:	680b      	ldr	r3, [r1, #0]
    b758:	4293      	cmp	r3, r2
    b75a:	d1fc      	bne.n	b756 <waitForVerticalBlank+0x6>
    b75c:	4770      	bx	lr
    b75e:	46c0      	nop			; (mov r8, r8)
    b760:	200059c0 	.word	0x200059c0

0000b764 <printText>:
    b764:	b5f0      	push	{r4, r5, r6, r7, lr}
    b766:	4657      	mov	r7, sl
    b768:	46de      	mov	lr, fp
    b76a:	464e      	mov	r6, r9
    b76c:	4645      	mov	r5, r8
    b76e:	b5e0      	push	{r5, r6, r7, lr}
    b770:	b093      	sub	sp, #76	; 0x4c
    b772:	4684      	mov	ip, r0
    b774:	0010      	movs	r0, r2
    b776:	aa1c      	add	r2, sp, #112	; 0x70
    b778:	8814      	ldrh	r4, [r2, #0]
    b77a:	aa1d      	add	r2, sp, #116	; 0x74
    b77c:	8817      	ldrh	r7, [r2, #0]
    b77e:	2b18      	cmp	r3, #24
    b780:	d900      	bls.n	b784 <printText+0x20>
    b782:	e0ec      	b.n	b95e <printText+0x1fa>
    b784:	4662      	mov	r2, ip
    b786:	2a00      	cmp	r2, #0
    b788:	d100      	bne.n	b78c <printText+0x28>
    b78a:	e0ef      	b.n	b96c <printText+0x208>
    b78c:	2827      	cmp	r0, #39	; 0x27
    b78e:	dd00      	ble.n	b792 <printText+0x2e>
    b790:	e0e5      	b.n	b95e <printText+0x1fa>
    b792:	780a      	ldrb	r2, [r1, #0]
    b794:	2a00      	cmp	r2, #0
    b796:	d100      	bne.n	b79a <printText+0x36>
    b798:	e0e1      	b.n	b95e <printText+0x1fa>
    b79a:	2503      	movs	r5, #3
    b79c:	002e      	movs	r6, r5
    b79e:	403d      	ands	r5, r7
    b7a0:	009f      	lsls	r7, r3, #2
    b7a2:	18ff      	adds	r7, r7, r3
    b7a4:	01bf      	lsls	r7, r7, #6
    b7a6:	9701      	str	r7, [sp, #4]
    b7a8:	3101      	adds	r1, #1
    b7aa:	468a      	mov	sl, r1
    b7ac:	9901      	ldr	r1, [sp, #4]
    b7ae:	00db      	lsls	r3, r3, #3
    b7b0:	1841      	adds	r1, r0, r1
    b7b2:	0049      	lsls	r1, r1, #1
    b7b4:	4689      	mov	r9, r1
    b7b6:	3301      	adds	r3, #1
    b7b8:	009f      	lsls	r7, r3, #2
    b7ba:	18fb      	adds	r3, r7, r3
    b7bc:	00df      	lsls	r7, r3, #3
    b7be:	9710      	str	r7, [sp, #64]	; 0x40
    b7c0:	4f6c      	ldr	r7, [pc, #432]	; (b974 <printText+0x210>)
    b7c2:	496d      	ldr	r1, [pc, #436]	; (b978 <printText+0x214>)
    b7c4:	44b9      	add	r9, r7
    b7c6:	00df      	lsls	r7, r3, #3
    b7c8:	46b8      	mov	r8, r7
    b7ca:	4440      	add	r0, r8
    b7cc:	4680      	mov	r8, r0
    b7ce:	46bb      	mov	fp, r7
    b7d0:	0038      	movs	r0, r7
    b7d2:	4488      	add	r8, r1
    b7d4:	3127      	adds	r1, #39	; 0x27
    b7d6:	4459      	add	r1, fp
    b7d8:	9102      	str	r1, [sp, #8]
    b7da:	9901      	ldr	r1, [sp, #4]
    b7dc:	4026      	ands	r6, r4
    b7de:	4249      	negs	r1, r1
    b7e0:	0049      	lsls	r1, r1, #1
    b7e2:	9111      	str	r1, [sp, #68]	; 0x44
    b7e4:	0119      	lsls	r1, r3, #4
    b7e6:	0003      	movs	r3, r0
    b7e8:	3028      	adds	r0, #40	; 0x28
    b7ea:	900e      	str	r0, [sp, #56]	; 0x38
    b7ec:	0008      	movs	r0, r1
    b7ee:	3050      	adds	r0, #80	; 0x50
    b7f0:	900d      	str	r0, [sp, #52]	; 0x34
    b7f2:	4658      	mov	r0, fp
    b7f4:	3050      	adds	r0, #80	; 0x50
    b7f6:	910f      	str	r1, [sp, #60]	; 0x3c
    b7f8:	900c      	str	r0, [sp, #48]	; 0x30
    b7fa:	0008      	movs	r0, r1
    b7fc:	31a0      	adds	r1, #160	; 0xa0
    b7fe:	910b      	str	r1, [sp, #44]	; 0x2c
    b800:	4659      	mov	r1, fp
    b802:	3178      	adds	r1, #120	; 0x78
    b804:	910a      	str	r1, [sp, #40]	; 0x28
    b806:	0001      	movs	r1, r0
    b808:	30f0      	adds	r0, #240	; 0xf0
    b80a:	9009      	str	r0, [sp, #36]	; 0x24
    b80c:	4658      	mov	r0, fp
    b80e:	30a0      	adds	r0, #160	; 0xa0
    b810:	9008      	str	r0, [sp, #32]
    b812:	0008      	movs	r0, r1
    b814:	3041      	adds	r0, #65	; 0x41
    b816:	30ff      	adds	r0, #255	; 0xff
    b818:	9007      	str	r0, [sp, #28]
    b81a:	4658      	mov	r0, fp
    b81c:	30c8      	adds	r0, #200	; 0xc8
    b81e:	9006      	str	r0, [sp, #24]
    b820:	0008      	movs	r0, r1
    b822:	31e1      	adds	r1, #225	; 0xe1
    b824:	3091      	adds	r0, #145	; 0x91
    b826:	33f0      	adds	r3, #240	; 0xf0
    b828:	08a4      	lsrs	r4, r4, #2
    b82a:	30ff      	adds	r0, #255	; 0xff
    b82c:	31ff      	adds	r1, #255	; 0xff
    b82e:	9304      	str	r3, [sp, #16]
    b830:	b2e4      	uxtb	r4, r4
    b832:	9005      	str	r0, [sp, #20]
    b834:	9103      	str	r1, [sp, #12]
    b836:	4b51      	ldr	r3, [pc, #324]	; (b97c <printText+0x218>)
    b838:	e00b      	b.n	b852 <printText+0xee>
    b83a:	2101      	movs	r1, #1
    b83c:	468b      	mov	fp, r1
    b83e:	3101      	adds	r1, #1
    b840:	44da      	add	sl, fp
    b842:	468b      	mov	fp, r1
    b844:	3901      	subs	r1, #1
    b846:	44d9      	add	r9, fp
    b848:	468b      	mov	fp, r1
    b84a:	44d8      	add	r8, fp
    b84c:	2a00      	cmp	r2, #0
    b84e:	d100      	bne.n	b852 <printText+0xee>
    b850:	e085      	b.n	b95e <printText+0x1fa>
    b852:	4661      	mov	r1, ip
    b854:	00d2      	lsls	r2, r2, #3
    b856:	5c50      	ldrb	r0, [r2, r1]
    b858:	4462      	add	r2, ip
    b85a:	43c1      	mvns	r1, r0
    b85c:	b2c9      	uxtb	r1, r1
    b85e:	0049      	lsls	r1, r1, #1
    b860:	0040      	lsls	r0, r0, #1
    b862:	5a59      	ldrh	r1, [r3, r1]
    b864:	5a18      	ldrh	r0, [r3, r0]
    b866:	4369      	muls	r1, r5
    b868:	4370      	muls	r0, r6
    b86a:	4301      	orrs	r1, r0
    b86c:	4648      	mov	r0, r9
    b86e:	8001      	strh	r1, [r0, #0]
    b870:	4641      	mov	r1, r8
    b872:	9810      	ldr	r0, [sp, #64]	; 0x40
    b874:	9200      	str	r2, [sp, #0]
    b876:	1a09      	subs	r1, r1, r0
    b878:	9801      	ldr	r0, [sp, #4]
    b87a:	540c      	strb	r4, [r1, r0]
    b87c:	7857      	ldrb	r7, [r2, #1]
    b87e:	9a11      	ldr	r2, [sp, #68]	; 0x44
    b880:	444a      	add	r2, r9
    b882:	0010      	movs	r0, r2
    b884:	43fa      	mvns	r2, r7
    b886:	b2d2      	uxtb	r2, r2
    b888:	0052      	lsls	r2, r2, #1
    b88a:	007f      	lsls	r7, r7, #1
    b88c:	5a9a      	ldrh	r2, [r3, r2]
    b88e:	5bdf      	ldrh	r7, [r3, r7]
    b890:	436a      	muls	r2, r5
    b892:	4377      	muls	r7, r6
    b894:	4317      	orrs	r7, r2
    b896:	9a0f      	ldr	r2, [sp, #60]	; 0x3c
    b898:	5287      	strh	r7, [r0, r2]
    b89a:	4642      	mov	r2, r8
    b89c:	7014      	strb	r4, [r2, #0]
    b89e:	9a00      	ldr	r2, [sp, #0]
    b8a0:	7892      	ldrb	r2, [r2, #2]
    b8a2:	43d7      	mvns	r7, r2
    b8a4:	b2ff      	uxtb	r7, r7
    b8a6:	007f      	lsls	r7, r7, #1
    b8a8:	0052      	lsls	r2, r2, #1
    b8aa:	5bdf      	ldrh	r7, [r3, r7]
    b8ac:	5a9a      	ldrh	r2, [r3, r2]
    b8ae:	436f      	muls	r7, r5
    b8b0:	4372      	muls	r2, r6
    b8b2:	4317      	orrs	r7, r2
    b8b4:	9a0d      	ldr	r2, [sp, #52]	; 0x34
    b8b6:	5287      	strh	r7, [r0, r2]
    b8b8:	9a0e      	ldr	r2, [sp, #56]	; 0x38
    b8ba:	548c      	strb	r4, [r1, r2]
    b8bc:	9a00      	ldr	r2, [sp, #0]
    b8be:	78d2      	ldrb	r2, [r2, #3]
    b8c0:	43d7      	mvns	r7, r2
    b8c2:	b2ff      	uxtb	r7, r7
    b8c4:	007f      	lsls	r7, r7, #1
    b8c6:	0052      	lsls	r2, r2, #1
    b8c8:	5bdf      	ldrh	r7, [r3, r7]
    b8ca:	5a9a      	ldrh	r2, [r3, r2]
    b8cc:	436f      	muls	r7, r5
    b8ce:	4372      	muls	r2, r6
    b8d0:	4317      	orrs	r7, r2
    b8d2:	9a0b      	ldr	r2, [sp, #44]	; 0x2c
    b8d4:	5287      	strh	r7, [r0, r2]
    b8d6:	9a0c      	ldr	r2, [sp, #48]	; 0x30
    b8d8:	548c      	strb	r4, [r1, r2]
    b8da:	9a00      	ldr	r2, [sp, #0]
    b8dc:	7912      	ldrb	r2, [r2, #4]
    b8de:	43d7      	mvns	r7, r2
    b8e0:	b2ff      	uxtb	r7, r7
    b8e2:	007f      	lsls	r7, r7, #1
    b8e4:	0052      	lsls	r2, r2, #1
    b8e6:	5bdf      	ldrh	r7, [r3, r7]
    b8e8:	5a9a      	ldrh	r2, [r3, r2]
    b8ea:	436f      	muls	r7, r5
    b8ec:	4372      	muls	r2, r6
    b8ee:	4317      	orrs	r7, r2
    b8f0:	9a09      	ldr	r2, [sp, #36]	; 0x24
    b8f2:	5287      	strh	r7, [r0, r2]
    b8f4:	9a0a      	ldr	r2, [sp, #40]	; 0x28
    b8f6:	548c      	strb	r4, [r1, r2]
    b8f8:	9a00      	ldr	r2, [sp, #0]
    b8fa:	7952      	ldrb	r2, [r2, #5]
    b8fc:	43d7      	mvns	r7, r2
    b8fe:	b2ff      	uxtb	r7, r7
    b900:	007f      	lsls	r7, r7, #1
    b902:	0052      	lsls	r2, r2, #1
    b904:	5bdf      	ldrh	r7, [r3, r7]
    b906:	5a9a      	ldrh	r2, [r3, r2]
    b908:	436f      	muls	r7, r5
    b90a:	4372      	muls	r2, r6
    b90c:	4317      	orrs	r7, r2
    b90e:	9a07      	ldr	r2, [sp, #28]
    b910:	5287      	strh	r7, [r0, r2]
    b912:	9a08      	ldr	r2, [sp, #32]
    b914:	548c      	strb	r4, [r1, r2]
    b916:	9a00      	ldr	r2, [sp, #0]
    b918:	7992      	ldrb	r2, [r2, #6]
    b91a:	43d7      	mvns	r7, r2
    b91c:	b2ff      	uxtb	r7, r7
    b91e:	007f      	lsls	r7, r7, #1
    b920:	0052      	lsls	r2, r2, #1
    b922:	5bdf      	ldrh	r7, [r3, r7]
    b924:	5a9a      	ldrh	r2, [r3, r2]
    b926:	436f      	muls	r7, r5
    b928:	4372      	muls	r2, r6
    b92a:	4317      	orrs	r7, r2
    b92c:	9a05      	ldr	r2, [sp, #20]
    b92e:	5287      	strh	r7, [r0, r2]
    b930:	9a06      	ldr	r2, [sp, #24]
    b932:	548c      	strb	r4, [r1, r2]
    b934:	9a00      	ldr	r2, [sp, #0]
    b936:	79d7      	ldrb	r7, [r2, #7]
    b938:	43fa      	mvns	r2, r7
    b93a:	b2d2      	uxtb	r2, r2
    b93c:	0052      	lsls	r2, r2, #1
    b93e:	007f      	lsls	r7, r7, #1
    b940:	5a9a      	ldrh	r2, [r3, r2]
    b942:	5bdf      	ldrh	r7, [r3, r7]
    b944:	436a      	muls	r2, r5
    b946:	4377      	muls	r7, r6
    b948:	433a      	orrs	r2, r7
    b94a:	9f03      	ldr	r7, [sp, #12]
    b94c:	53c2      	strh	r2, [r0, r7]
    b94e:	9a04      	ldr	r2, [sp, #16]
    b950:	548c      	strb	r4, [r1, r2]
    b952:	4652      	mov	r2, sl
    b954:	7812      	ldrb	r2, [r2, #0]
    b956:	9902      	ldr	r1, [sp, #8]
    b958:	4541      	cmp	r1, r8
    b95a:	d000      	beq.n	b95e <printText+0x1fa>
    b95c:	e76d      	b.n	b83a <printText+0xd6>
    b95e:	b013      	add	sp, #76	; 0x4c
    b960:	bc3c      	pop	{r2, r3, r4, r5}
    b962:	4690      	mov	r8, r2
    b964:	4699      	mov	r9, r3
    b966:	46a2      	mov	sl, r4
    b968:	46ab      	mov	fp, r5
    b96a:	bdf0      	pop	{r4, r5, r6, r7, pc}
    b96c:	4a04      	ldr	r2, [pc, #16]	; (b980 <printText+0x21c>)
    b96e:	4694      	mov	ip, r2
    b970:	e70c      	b.n	b78c <printText+0x28>
    b972:	46c0      	nop			; (mov r8, r8)
    b974:	20000b40 	.word	0x20000b40
    b978:	200059e0 	.word	0x200059e0
    b97c:	0001f4a8 	.word	0x0001f4a8
    b980:	0001edac 	.word	0x0001edac

0000b984 <__udivsi3>:
    b984:	2200      	movs	r2, #0
    b986:	0843      	lsrs	r3, r0, #1
    b988:	428b      	cmp	r3, r1
    b98a:	d374      	bcc.n	ba76 <__udivsi3+0xf2>
    b98c:	0903      	lsrs	r3, r0, #4
    b98e:	428b      	cmp	r3, r1
    b990:	d35f      	bcc.n	ba52 <__udivsi3+0xce>
    b992:	0a03      	lsrs	r3, r0, #8
    b994:	428b      	cmp	r3, r1
    b996:	d344      	bcc.n	ba22 <__udivsi3+0x9e>
    b998:	0b03      	lsrs	r3, r0, #12
    b99a:	428b      	cmp	r3, r1
    b99c:	d328      	bcc.n	b9f0 <__udivsi3+0x6c>
    b99e:	0c03      	lsrs	r3, r0, #16
    b9a0:	428b      	cmp	r3, r1
    b9a2:	d30d      	bcc.n	b9c0 <__udivsi3+0x3c>
    b9a4:	22ff      	movs	r2, #255	; 0xff
    b9a6:	0209      	lsls	r1, r1, #8
    b9a8:	ba12      	rev	r2, r2
    b9aa:	0c03      	lsrs	r3, r0, #16
    b9ac:	428b      	cmp	r3, r1
    b9ae:	d302      	bcc.n	b9b6 <__udivsi3+0x32>
    b9b0:	1212      	asrs	r2, r2, #8
    b9b2:	0209      	lsls	r1, r1, #8
    b9b4:	d065      	beq.n	ba82 <__udivsi3+0xfe>
    b9b6:	0b03      	lsrs	r3, r0, #12
    b9b8:	428b      	cmp	r3, r1
    b9ba:	d319      	bcc.n	b9f0 <__udivsi3+0x6c>
    b9bc:	e000      	b.n	b9c0 <__udivsi3+0x3c>
    b9be:	0a09      	lsrs	r1, r1, #8
    b9c0:	0bc3      	lsrs	r3, r0, #15
    b9c2:	428b      	cmp	r3, r1
    b9c4:	d301      	bcc.n	b9ca <__udivsi3+0x46>
    b9c6:	03cb      	lsls	r3, r1, #15
    b9c8:	1ac0      	subs	r0, r0, r3
    b9ca:	4152      	adcs	r2, r2
    b9cc:	0b83      	lsrs	r3, r0, #14
    b9ce:	428b      	cmp	r3, r1
    b9d0:	d301      	bcc.n	b9d6 <__udivsi3+0x52>
    b9d2:	038b      	lsls	r3, r1, #14
    b9d4:	1ac0      	subs	r0, r0, r3
    b9d6:	4152      	adcs	r2, r2
    b9d8:	0b43      	lsrs	r3, r0, #13
    b9da:	428b      	cmp	r3, r1
    b9dc:	d301      	bcc.n	b9e2 <__udivsi3+0x5e>
    b9de:	034b      	lsls	r3, r1, #13
    b9e0:	1ac0      	subs	r0, r0, r3
    b9e2:	4152      	adcs	r2, r2
    b9e4:	0b03      	lsrs	r3, r0, #12
    b9e6:	428b      	cmp	r3, r1
    b9e8:	d301      	bcc.n	b9ee <__udivsi3+0x6a>
    b9ea:	030b      	lsls	r3, r1, #12
    b9ec:	1ac0      	subs	r0, r0, r3
    b9ee:	4152      	adcs	r2, r2
    b9f0:	0ac3      	lsrs	r3, r0, #11
    b9f2:	428b      	cmp	r3, r1
    b9f4:	d301      	bcc.n	b9fa <__udivsi3+0x76>
    b9f6:	02cb      	lsls	r3, r1, #11
    b9f8:	1ac0      	subs	r0, r0, r3
    b9fa:	4152      	adcs	r2, r2
    b9fc:	0a83      	lsrs	r3, r0, #10
    b9fe:	428b      	cmp	r3, r1
    ba00:	d301      	bcc.n	ba06 <__udivsi3+0x82>
    ba02:	028b      	lsls	r3, r1, #10
    ba04:	1ac0      	subs	r0, r0, r3
    ba06:	4152      	adcs	r2, r2
    ba08:	0a43      	lsrs	r3, r0, #9
    ba0a:	428b      	cmp	r3, r1
    ba0c:	d301      	bcc.n	ba12 <__udivsi3+0x8e>
    ba0e:	024b      	lsls	r3, r1, #9
    ba10:	1ac0      	subs	r0, r0, r3
    ba12:	4152      	adcs	r2, r2
    ba14:	0a03      	lsrs	r3, r0, #8
    ba16:	428b      	cmp	r3, r1
    ba18:	d301      	bcc.n	ba1e <__udivsi3+0x9a>
    ba1a:	020b      	lsls	r3, r1, #8
    ba1c:	1ac0      	subs	r0, r0, r3
    ba1e:	4152      	adcs	r2, r2
    ba20:	d2cd      	bcs.n	b9be <__udivsi3+0x3a>
    ba22:	09c3      	lsrs	r3, r0, #7
    ba24:	428b      	cmp	r3, r1
    ba26:	d301      	bcc.n	ba2c <__udivsi3+0xa8>
    ba28:	01cb      	lsls	r3, r1, #7
    ba2a:	1ac0      	subs	r0, r0, r3
    ba2c:	4152      	adcs	r2, r2
    ba2e:	0983      	lsrs	r3, r0, #6
    ba30:	428b      	cmp	r3, r1
    ba32:	d301      	bcc.n	ba38 <__udivsi3+0xb4>
    ba34:	018b      	lsls	r3, r1, #6
    ba36:	1ac0      	subs	r0, r0, r3
    ba38:	4152      	adcs	r2, r2
    ba3a:	0943      	lsrs	r3, r0, #5
    ba3c:	428b      	cmp	r3, r1
    ba3e:	d301      	bcc.n	ba44 <__udivsi3+0xc0>
    ba40:	014b      	lsls	r3, r1, #5
    ba42:	1ac0      	subs	r0, r0, r3
    ba44:	4152      	adcs	r2, r2
    ba46:	0903      	lsrs	r3, r0, #4
    ba48:	428b      	cmp	r3, r1
    ba4a:	d301      	bcc.n	ba50 <__udivsi3+0xcc>
    ba4c:	010b      	lsls	r3, r1, #4
    ba4e:	1ac0      	subs	r0, r0, r3
    ba50:	4152      	adcs	r2, r2
    ba52:	08c3      	lsrs	r3, r0, #3
    ba54:	428b      	cmp	r3, r1
    ba56:	d301      	bcc.n	ba5c <__udivsi3+0xd8>
    ba58:	00cb      	lsls	r3, r1, #3
    ba5a:	1ac0      	subs	r0, r0, r3
    ba5c:	4152      	adcs	r2, r2
    ba5e:	0883      	lsrs	r3, r0, #2
    ba60:	428b      	cmp	r3, r1
    ba62:	d301      	bcc.n	ba68 <__udivsi3+0xe4>
    ba64:	008b      	lsls	r3, r1, #2
    ba66:	1ac0      	subs	r0, r0, r3
    ba68:	4152      	adcs	r2, r2
    ba6a:	0843      	lsrs	r3, r0, #1
    ba6c:	428b      	cmp	r3, r1
    ba6e:	d301      	bcc.n	ba74 <__udivsi3+0xf0>
    ba70:	004b      	lsls	r3, r1, #1
    ba72:	1ac0      	subs	r0, r0, r3
    ba74:	4152      	adcs	r2, r2
    ba76:	1a41      	subs	r1, r0, r1
    ba78:	d200      	bcs.n	ba7c <__udivsi3+0xf8>
    ba7a:	4601      	mov	r1, r0
    ba7c:	4152      	adcs	r2, r2
    ba7e:	4610      	mov	r0, r2
    ba80:	4770      	bx	lr
    ba82:	e7ff      	b.n	ba84 <__udivsi3+0x100>
    ba84:	b501      	push	{r0, lr}
    ba86:	2000      	movs	r0, #0
    ba88:	f000 f8f0 	bl	bc6c <__aeabi_idiv0>
    ba8c:	bd02      	pop	{r1, pc}
    ba8e:	46c0      	nop			; (mov r8, r8)

0000ba90 <__aeabi_uidivmod>:
    ba90:	2900      	cmp	r1, #0
    ba92:	d0f7      	beq.n	ba84 <__udivsi3+0x100>
    ba94:	e776      	b.n	b984 <__udivsi3>
    ba96:	4770      	bx	lr

0000ba98 <__divsi3>:
    ba98:	4603      	mov	r3, r0
    ba9a:	430b      	orrs	r3, r1
    ba9c:	d47f      	bmi.n	bb9e <__divsi3+0x106>
    ba9e:	2200      	movs	r2, #0
    baa0:	0843      	lsrs	r3, r0, #1
    baa2:	428b      	cmp	r3, r1
    baa4:	d374      	bcc.n	bb90 <__divsi3+0xf8>
    baa6:	0903      	lsrs	r3, r0, #4
    baa8:	428b      	cmp	r3, r1
    baaa:	d35f      	bcc.n	bb6c <__divsi3+0xd4>
    baac:	0a03      	lsrs	r3, r0, #8
    baae:	428b      	cmp	r3, r1
    bab0:	d344      	bcc.n	bb3c <__divsi3+0xa4>
    bab2:	0b03      	lsrs	r3, r0, #12
    bab4:	428b      	cmp	r3, r1
    bab6:	d328      	bcc.n	bb0a <__divsi3+0x72>
    bab8:	0c03      	lsrs	r3, r0, #16
    baba:	428b      	cmp	r3, r1
    babc:	d30d      	bcc.n	bada <__divsi3+0x42>
    babe:	22ff      	movs	r2, #255	; 0xff
    bac0:	0209      	lsls	r1, r1, #8
    bac2:	ba12      	rev	r2, r2
    bac4:	0c03      	lsrs	r3, r0, #16
    bac6:	428b      	cmp	r3, r1
    bac8:	d302      	bcc.n	bad0 <__divsi3+0x38>
    baca:	1212      	asrs	r2, r2, #8
    bacc:	0209      	lsls	r1, r1, #8
    bace:	d065      	beq.n	bb9c <__divsi3+0x104>
    bad0:	0b03      	lsrs	r3, r0, #12
    bad2:	428b      	cmp	r3, r1
    bad4:	d319      	bcc.n	bb0a <__divsi3+0x72>
    bad6:	e000      	b.n	bada <__divsi3+0x42>
    bad8:	0a09      	lsrs	r1, r1, #8
    bada:	0bc3      	lsrs	r3, r0, #15
    badc:	428b      	cmp	r3, r1
    bade:	d301      	bcc.n	bae4 <__divsi3+0x4c>
    bae0:	03cb      	lsls	r3, r1, #15
    bae2:	1ac0      	subs	r0, r0, r3
    bae4:	4152      	adcs	r2, r2
    bae6:	0b83      	lsrs	r3, r0, #14
    bae8:	428b      	cmp	r3, r1
    baea:	d301      	bcc.n	baf0 <__divsi3+0x58>
    baec:	038b      	lsls	r3, r1, #14
    baee:	1ac0      	subs	r0, r0, r3
    baf0:	4152      	adcs	r2, r2
    baf2:	0b43      	lsrs	r3, r0, #13
    baf4:	428b      	cmp	r3, r1
    baf6:	d301      	bcc.n	bafc <__divsi3+0x64>
    baf8:	034b      	lsls	r3, r1, #13
    bafa:	1ac0      	subs	r0, r0, r3
    bafc:	4152      	adcs	r2, r2
    bafe:	0b03      	lsrs	r3, r0, #12
    bb00:	428b      	cmp	r3, r1
    bb02:	d301      	bcc.n	bb08 <__divsi3+0x70>
    bb04:	030b      	lsls	r3, r1, #12
    bb06:	1ac0      	subs	r0, r0, r3
    bb08:	4152      	adcs	r2, r2
    bb0a:	0ac3      	lsrs	r3, r0, #11
    bb0c:	428b      	cmp	r3, r1
    bb0e:	d301      	bcc.n	bb14 <__divsi3+0x7c>
    bb10:	02cb      	lsls	r3, r1, #11
    bb12:	1ac0      	subs	r0, r0, r3
    bb14:	4152      	adcs	r2, r2
    bb16:	0a83      	lsrs	r3, r0, #10
    bb18:	428b      	cmp	r3, r1
    bb1a:	d301      	bcc.n	bb20 <__divsi3+0x88>
    bb1c:	028b      	lsls	r3, r1, #10
    bb1e:	1ac0      	subs	r0, r0, r3
    bb20:	4152      	adcs	r2, r2
    bb22:	0a43      	lsrs	r3, r0, #9
    bb24:	428b      	cmp	r3, r1
    bb26:	d301      	bcc.n	bb2c <__divsi3+0x94>
    bb28:	024b      	lsls	r3, r1, #9
    bb2a:	1ac0      	subs	r0, r0, r3
    bb2c:	4152      	adcs	r2, r2
    bb2e:	0a03      	lsrs	r3, r0, #8
    bb30:	428b      	cmp	r3, r1
    bb32:	d301      	bcc.n	bb38 <__divsi3+0xa0>
    bb34:	020b      	lsls	r3, r1, #8
    bb36:	1ac0      	subs	r0, r0, r3
    bb38:	4152      	adcs	r2, r2
    bb3a:	d2cd      	bcs.n	bad8 <__divsi3+0x40>
    bb3c:	09c3      	lsrs	r3, r0, #7
    bb3e:	428b      	cmp	r3, r1
    bb40:	d301      	bcc.n	bb46 <__divsi3+0xae>
    bb42:	01cb      	lsls	r3, r1, #7
    bb44:	1ac0      	subs	r0, r0, r3
    bb46:	4152      	adcs	r2, r2
    bb48:	0983      	lsrs	r3, r0, #6
    bb4a:	428b      	cmp	r3, r1
    bb4c:	d301      	bcc.n	bb52 <__divsi3+0xba>
    bb4e:	018b      	lsls	r3, r1, #6
    bb50:	1ac0      	subs	r0, r0, r3
    bb52:	4152      	adcs	r2, r2
    bb54:	0943      	lsrs	r3, r0, #5
    bb56:	428b      	cmp	r3, r1
    bb58:	d301      	bcc.n	bb5e <__divsi3+0xc6>
    bb5a:	014b      	lsls	r3, r1, #5
    bb5c:	1ac0      	subs	r0, r0, r3
    bb5e:	4152      	adcs	r2, r2
    bb60:	0903      	lsrs	r3, r0, #4
    bb62:	428b      	cmp	r3, r1
    bb64:	d301      	bcc.n	bb6a <__divsi3+0xd2>
    bb66:	010b      	lsls	r3, r1, #4
    bb68:	1ac0      	subs	r0, r0, r3
    bb6a:	4152      	adcs	r2, r2
    bb6c:	08c3      	lsrs	r3, r0, #3
    bb6e:	428b      	cmp	r3, r1
    bb70:	d301      	bcc.n	bb76 <__divsi3+0xde>
    bb72:	00cb      	lsls	r3, r1, #3
    bb74:	1ac0      	subs	r0, r0, r3
    bb76:	4152      	adcs	r2, r2
    bb78:	0883      	lsrs	r3, r0, #2
    bb7a:	428b      	cmp	r3, r1
    bb7c:	d301      	bcc.n	bb82 <__divsi3+0xea>
    bb7e:	008b      	lsls	r3, r1, #2
    bb80:	1ac0      	subs	r0, r0, r3
    bb82:	4152      	adcs	r2, r2
    bb84:	0843      	lsrs	r3, r0, #1
    bb86:	428b      	cmp	r3, r1
    bb88:	d301      	bcc.n	bb8e <__divsi3+0xf6>
    bb8a:	004b      	lsls	r3, r1, #1
    bb8c:	1ac0      	subs	r0, r0, r3
    bb8e:	4152      	adcs	r2, r2
    bb90:	1a41      	subs	r1, r0, r1
    bb92:	d200      	bcs.n	bb96 <__divsi3+0xfe>
    bb94:	4601      	mov	r1, r0
    bb96:	4152      	adcs	r2, r2
    bb98:	4610      	mov	r0, r2
    bb9a:	4770      	bx	lr
    bb9c:	e05d      	b.n	bc5a <__divsi3+0x1c2>
    bb9e:	0fca      	lsrs	r2, r1, #31
    bba0:	d000      	beq.n	bba4 <__divsi3+0x10c>
    bba2:	4249      	negs	r1, r1
    bba4:	1003      	asrs	r3, r0, #32
    bba6:	d300      	bcc.n	bbaa <__divsi3+0x112>
    bba8:	4240      	negs	r0, r0
    bbaa:	4053      	eors	r3, r2
    bbac:	2200      	movs	r2, #0
    bbae:	469c      	mov	ip, r3
    bbb0:	0903      	lsrs	r3, r0, #4
    bbb2:	428b      	cmp	r3, r1
    bbb4:	d32d      	bcc.n	bc12 <__divsi3+0x17a>
    bbb6:	0a03      	lsrs	r3, r0, #8
    bbb8:	428b      	cmp	r3, r1
    bbba:	d312      	bcc.n	bbe2 <__divsi3+0x14a>
    bbbc:	22fc      	movs	r2, #252	; 0xfc
    bbbe:	0189      	lsls	r1, r1, #6
    bbc0:	ba12      	rev	r2, r2
    bbc2:	0a03      	lsrs	r3, r0, #8
    bbc4:	428b      	cmp	r3, r1
    bbc6:	d30c      	bcc.n	bbe2 <__divsi3+0x14a>
    bbc8:	0189      	lsls	r1, r1, #6
    bbca:	1192      	asrs	r2, r2, #6
    bbcc:	428b      	cmp	r3, r1
    bbce:	d308      	bcc.n	bbe2 <__divsi3+0x14a>
    bbd0:	0189      	lsls	r1, r1, #6
    bbd2:	1192      	asrs	r2, r2, #6
    bbd4:	428b      	cmp	r3, r1
    bbd6:	d304      	bcc.n	bbe2 <__divsi3+0x14a>
    bbd8:	0189      	lsls	r1, r1, #6
    bbda:	d03a      	beq.n	bc52 <__divsi3+0x1ba>
    bbdc:	1192      	asrs	r2, r2, #6
    bbde:	e000      	b.n	bbe2 <__divsi3+0x14a>
    bbe0:	0989      	lsrs	r1, r1, #6
    bbe2:	09c3      	lsrs	r3, r0, #7
    bbe4:	428b      	cmp	r3, r1
    bbe6:	d301      	bcc.n	bbec <__divsi3+0x154>
    bbe8:	01cb      	lsls	r3, r1, #7
    bbea:	1ac0      	subs	r0, r0, r3
    bbec:	4152      	adcs	r2, r2
    bbee:	0983      	lsrs	r3, r0, #6
    bbf0:	428b      	cmp	r3, r1
    bbf2:	d301      	bcc.n	bbf8 <__divsi3+0x160>
    bbf4:	018b      	lsls	r3, r1, #6
    bbf6:	1ac0      	subs	r0, r0, r3
    bbf8:	4152      	adcs	r2, r2
    bbfa:	0943      	lsrs	r3, r0, #5
    bbfc:	428b      	cmp	r3, r1
    bbfe:	d301      	bcc.n	bc04 <__divsi3+0x16c>
    bc00:	014b      	lsls	r3, r1, #5
    bc02:	1ac0      	subs	r0, r0, r3
    bc04:	4152      	adcs	r2, r2
    bc06:	0903      	lsrs	r3, r0, #4
    bc08:	428b      	cmp	r3, r1
    bc0a:	d301      	bcc.n	bc10 <__divsi3+0x178>
    bc0c:	010b      	lsls	r3, r1, #4
    bc0e:	1ac0      	subs	r0, r0, r3
    bc10:	4152      	adcs	r2, r2
    bc12:	08c3      	lsrs	r3, r0, #3
    bc14:	428b      	cmp	r3, r1
    bc16:	d301      	bcc.n	bc1c <__divsi3+0x184>
    bc18:	00cb      	lsls	r3, r1, #3
    bc1a:	1ac0      	subs	r0, r0, r3
    bc1c:	4152      	adcs	r2, r2
    bc1e:	0883      	lsrs	r3, r0, #2
    bc20:	428b      	cmp	r3, r1
    bc22:	d301      	bcc.n	bc28 <__divsi3+0x190>
    bc24:	008b      	lsls	r3, r1, #2
    bc26:	1ac0      	subs	r0, r0, r3
    bc28:	4152      	adcs	r2, r2
    bc2a:	d2d9      	bcs.n	bbe0 <__divsi3+0x148>
    bc2c:	0843      	lsrs	r3, r0, #1
    bc2e:	428b      	cmp	r3, r1
    bc30:	d301      	bcc.n	bc36 <__divsi3+0x19e>
    bc32:	004b      	lsls	r3, r1, #1
    bc34:	1ac0      	subs	r0, r0, r3
    bc36:	4152      	adcs	r2, r2
    bc38:	1a41      	subs	r1, r0, r1
    bc3a:	d200      	bcs.n	bc3e <__divsi3+0x1a6>
    bc3c:	4601      	mov	r1, r0
    bc3e:	4663      	mov	r3, ip
    bc40:	4152      	adcs	r2, r2
    bc42:	105b      	asrs	r3, r3, #1
    bc44:	4610      	mov	r0, r2
    bc46:	d301      	bcc.n	bc4c <__divsi3+0x1b4>
    bc48:	4240      	negs	r0, r0
    bc4a:	2b00      	cmp	r3, #0
    bc4c:	d500      	bpl.n	bc50 <__divsi3+0x1b8>
    bc4e:	4249      	negs	r1, r1
    bc50:	4770      	bx	lr
    bc52:	4663      	mov	r3, ip
    bc54:	105b      	asrs	r3, r3, #1
    bc56:	d300      	bcc.n	bc5a <__divsi3+0x1c2>
    bc58:	4240      	negs	r0, r0
    bc5a:	b501      	push	{r0, lr}
    bc5c:	2000      	movs	r0, #0
    bc5e:	f000 f805 	bl	bc6c <__aeabi_idiv0>
    bc62:	bd02      	pop	{r1, pc}

0000bc64 <__aeabi_idivmod>:
    bc64:	2900      	cmp	r1, #0
    bc66:	d0f8      	beq.n	bc5a <__divsi3+0x1c2>
    bc68:	e716      	b.n	ba98 <__divsi3>
    bc6a:	4770      	bx	lr

0000bc6c <__aeabi_idiv0>:
    bc6c:	4770      	bx	lr
    bc6e:	46c0      	nop			; (mov r8, r8)

0000bc70 <__libc_init_array>:
    bc70:	b570      	push	{r4, r5, r6, lr}
    bc72:	4d0c      	ldr	r5, [pc, #48]	; (bca4 <__libc_init_array+0x34>)
    bc74:	4e0c      	ldr	r6, [pc, #48]	; (bca8 <__libc_init_array+0x38>)
    bc76:	1b76      	subs	r6, r6, r5
    bc78:	10b6      	asrs	r6, r6, #2
    bc7a:	d005      	beq.n	bc88 <__libc_init_array+0x18>
    bc7c:	2400      	movs	r4, #0
    bc7e:	cd08      	ldmia	r5!, {r3}
    bc80:	3401      	adds	r4, #1
    bc82:	4798      	blx	r3
    bc84:	42a6      	cmp	r6, r4
    bc86:	d1fa      	bne.n	bc7e <__libc_init_array+0xe>
    bc88:	f013 fd10 	bl	1f6ac <_init>
    bc8c:	4d07      	ldr	r5, [pc, #28]	; (bcac <__libc_init_array+0x3c>)
    bc8e:	4e08      	ldr	r6, [pc, #32]	; (bcb0 <__libc_init_array+0x40>)
    bc90:	1b76      	subs	r6, r6, r5
    bc92:	10b6      	asrs	r6, r6, #2
    bc94:	d005      	beq.n	bca2 <__libc_init_array+0x32>
    bc96:	2400      	movs	r4, #0
    bc98:	cd08      	ldmia	r5!, {r3}
    bc9a:	3401      	adds	r4, #1
    bc9c:	4798      	blx	r3
    bc9e:	42a6      	cmp	r6, r4
    bca0:	d1fa      	bne.n	bc98 <__libc_init_array+0x28>
    bca2:	bd70      	pop	{r4, r5, r6, pc}
    bca4:	0001f6b8 	.word	0x0001f6b8
    bca8:	0001f6b8 	.word	0x0001f6b8
    bcac:	0001f6b8 	.word	0x0001f6b8
    bcb0:	0001f6c0 	.word	0x0001f6c0

0000bcb4 <memcpy>:
    bcb4:	b5f0      	push	{r4, r5, r6, r7, lr}
    bcb6:	46c6      	mov	lr, r8
    bcb8:	b500      	push	{lr}
    bcba:	2a0f      	cmp	r2, #15
    bcbc:	d943      	bls.n	bd46 <memcpy+0x92>
    bcbe:	000b      	movs	r3, r1
    bcc0:	2603      	movs	r6, #3
    bcc2:	4303      	orrs	r3, r0
    bcc4:	401e      	ands	r6, r3
    bcc6:	000c      	movs	r4, r1
    bcc8:	0003      	movs	r3, r0
    bcca:	2e00      	cmp	r6, #0
    bccc:	d140      	bne.n	bd50 <memcpy+0x9c>
    bcce:	0015      	movs	r5, r2
    bcd0:	3d10      	subs	r5, #16
    bcd2:	092d      	lsrs	r5, r5, #4
    bcd4:	46ac      	mov	ip, r5
    bcd6:	012d      	lsls	r5, r5, #4
    bcd8:	46a8      	mov	r8, r5
    bcda:	4480      	add	r8, r0
    bcdc:	e000      	b.n	bce0 <memcpy+0x2c>
    bcde:	003b      	movs	r3, r7
    bce0:	6867      	ldr	r7, [r4, #4]
    bce2:	6825      	ldr	r5, [r4, #0]
    bce4:	605f      	str	r7, [r3, #4]
    bce6:	68e7      	ldr	r7, [r4, #12]
    bce8:	601d      	str	r5, [r3, #0]
    bcea:	60df      	str	r7, [r3, #12]
    bcec:	001f      	movs	r7, r3
    bcee:	68a5      	ldr	r5, [r4, #8]
    bcf0:	3710      	adds	r7, #16
    bcf2:	609d      	str	r5, [r3, #8]
    bcf4:	3410      	adds	r4, #16
    bcf6:	4543      	cmp	r3, r8
    bcf8:	d1f1      	bne.n	bcde <memcpy+0x2a>
    bcfa:	4665      	mov	r5, ip
    bcfc:	230f      	movs	r3, #15
    bcfe:	240c      	movs	r4, #12
    bd00:	3501      	adds	r5, #1
    bd02:	012d      	lsls	r5, r5, #4
    bd04:	1949      	adds	r1, r1, r5
    bd06:	4013      	ands	r3, r2
    bd08:	1945      	adds	r5, r0, r5
    bd0a:	4214      	tst	r4, r2
    bd0c:	d023      	beq.n	bd56 <memcpy+0xa2>
    bd0e:	598c      	ldr	r4, [r1, r6]
    bd10:	51ac      	str	r4, [r5, r6]
    bd12:	3604      	adds	r6, #4
    bd14:	1b9c      	subs	r4, r3, r6
    bd16:	2c03      	cmp	r4, #3
    bd18:	d8f9      	bhi.n	bd0e <memcpy+0x5a>
    bd1a:	2403      	movs	r4, #3
    bd1c:	3b04      	subs	r3, #4
    bd1e:	089b      	lsrs	r3, r3, #2
    bd20:	3301      	adds	r3, #1
    bd22:	009b      	lsls	r3, r3, #2
    bd24:	4022      	ands	r2, r4
    bd26:	18ed      	adds	r5, r5, r3
    bd28:	18c9      	adds	r1, r1, r3
    bd2a:	1e56      	subs	r6, r2, #1
    bd2c:	2a00      	cmp	r2, #0
    bd2e:	d007      	beq.n	bd40 <memcpy+0x8c>
    bd30:	2300      	movs	r3, #0
    bd32:	e000      	b.n	bd36 <memcpy+0x82>
    bd34:	0023      	movs	r3, r4
    bd36:	5cca      	ldrb	r2, [r1, r3]
    bd38:	1c5c      	adds	r4, r3, #1
    bd3a:	54ea      	strb	r2, [r5, r3]
    bd3c:	429e      	cmp	r6, r3
    bd3e:	d1f9      	bne.n	bd34 <memcpy+0x80>
    bd40:	bc04      	pop	{r2}
    bd42:	4690      	mov	r8, r2
    bd44:	bdf0      	pop	{r4, r5, r6, r7, pc}
    bd46:	0005      	movs	r5, r0
    bd48:	1e56      	subs	r6, r2, #1
    bd4a:	2a00      	cmp	r2, #0
    bd4c:	d1f0      	bne.n	bd30 <memcpy+0x7c>
    bd4e:	e7f7      	b.n	bd40 <memcpy+0x8c>
    bd50:	1e56      	subs	r6, r2, #1
    bd52:	0005      	movs	r5, r0
    bd54:	e7ec      	b.n	bd30 <memcpy+0x7c>
    bd56:	001a      	movs	r2, r3
    bd58:	e7f6      	b.n	bd48 <memcpy+0x94>
    bd5a:	46c0      	nop			; (mov r8, r8)

0000bd5c <memset>:
    bd5c:	b5f0      	push	{r4, r5, r6, r7, lr}
    bd5e:	0005      	movs	r5, r0
    bd60:	0783      	lsls	r3, r0, #30
    bd62:	d04a      	beq.n	bdfa <memset+0x9e>
    bd64:	1e54      	subs	r4, r2, #1
    bd66:	2a00      	cmp	r2, #0
    bd68:	d044      	beq.n	bdf4 <memset+0x98>
    bd6a:	b2ce      	uxtb	r6, r1
    bd6c:	0003      	movs	r3, r0
    bd6e:	2203      	movs	r2, #3
    bd70:	e002      	b.n	bd78 <memset+0x1c>
    bd72:	3501      	adds	r5, #1
    bd74:	3c01      	subs	r4, #1
    bd76:	d33d      	bcc.n	bdf4 <memset+0x98>
    bd78:	3301      	adds	r3, #1
    bd7a:	702e      	strb	r6, [r5, #0]
    bd7c:	4213      	tst	r3, r2
    bd7e:	d1f8      	bne.n	bd72 <memset+0x16>
    bd80:	2c03      	cmp	r4, #3
    bd82:	d92f      	bls.n	bde4 <memset+0x88>
    bd84:	22ff      	movs	r2, #255	; 0xff
    bd86:	400a      	ands	r2, r1
    bd88:	0215      	lsls	r5, r2, #8
    bd8a:	4315      	orrs	r5, r2
    bd8c:	042a      	lsls	r2, r5, #16
    bd8e:	4315      	orrs	r5, r2
    bd90:	2c0f      	cmp	r4, #15
    bd92:	d935      	bls.n	be00 <memset+0xa4>
    bd94:	0027      	movs	r7, r4
    bd96:	3f10      	subs	r7, #16
    bd98:	093f      	lsrs	r7, r7, #4
    bd9a:	013e      	lsls	r6, r7, #4
    bd9c:	46b4      	mov	ip, r6
    bd9e:	001e      	movs	r6, r3
    bda0:	001a      	movs	r2, r3
    bda2:	3610      	adds	r6, #16
    bda4:	4466      	add	r6, ip
    bda6:	6015      	str	r5, [r2, #0]
    bda8:	6055      	str	r5, [r2, #4]
    bdaa:	6095      	str	r5, [r2, #8]
    bdac:	60d5      	str	r5, [r2, #12]
    bdae:	3210      	adds	r2, #16
    bdb0:	42b2      	cmp	r2, r6
    bdb2:	d1f8      	bne.n	bda6 <memset+0x4a>
    bdb4:	260f      	movs	r6, #15
    bdb6:	220c      	movs	r2, #12
    bdb8:	3701      	adds	r7, #1
    bdba:	013f      	lsls	r7, r7, #4
    bdbc:	4026      	ands	r6, r4
    bdbe:	19db      	adds	r3, r3, r7
    bdc0:	0037      	movs	r7, r6
    bdc2:	4222      	tst	r2, r4
    bdc4:	d017      	beq.n	bdf6 <memset+0x9a>
    bdc6:	1f3e      	subs	r6, r7, #4
    bdc8:	08b6      	lsrs	r6, r6, #2
    bdca:	00b4      	lsls	r4, r6, #2
    bdcc:	46a4      	mov	ip, r4
    bdce:	001a      	movs	r2, r3
    bdd0:	1d1c      	adds	r4, r3, #4
    bdd2:	4464      	add	r4, ip
    bdd4:	c220      	stmia	r2!, {r5}
    bdd6:	42a2      	cmp	r2, r4
    bdd8:	d1fc      	bne.n	bdd4 <memset+0x78>
    bdda:	2403      	movs	r4, #3
    bddc:	3601      	adds	r6, #1
    bdde:	00b6      	lsls	r6, r6, #2
    bde0:	199b      	adds	r3, r3, r6
    bde2:	403c      	ands	r4, r7
    bde4:	2c00      	cmp	r4, #0
    bde6:	d005      	beq.n	bdf4 <memset+0x98>
    bde8:	b2c9      	uxtb	r1, r1
    bdea:	191c      	adds	r4, r3, r4
    bdec:	7019      	strb	r1, [r3, #0]
    bdee:	3301      	adds	r3, #1
    bdf0:	429c      	cmp	r4, r3
    bdf2:	d1fb      	bne.n	bdec <memset+0x90>
    bdf4:	bdf0      	pop	{r4, r5, r6, r7, pc}
    bdf6:	0034      	movs	r4, r6
    bdf8:	e7f4      	b.n	bde4 <memset+0x88>
    bdfa:	0014      	movs	r4, r2
    bdfc:	0003      	movs	r3, r0
    bdfe:	e7bf      	b.n	bd80 <memset+0x24>
    be00:	0027      	movs	r7, r4
    be02:	e7e0      	b.n	bdc6 <memset+0x6a>

0000be04 <strlen>:
    be04:	b510      	push	{r4, lr}
    be06:	0783      	lsls	r3, r0, #30
    be08:	d027      	beq.n	be5a <strlen+0x56>
    be0a:	7803      	ldrb	r3, [r0, #0]
    be0c:	2b00      	cmp	r3, #0
    be0e:	d026      	beq.n	be5e <strlen+0x5a>
    be10:	0003      	movs	r3, r0
    be12:	2103      	movs	r1, #3
    be14:	e002      	b.n	be1c <strlen+0x18>
    be16:	781a      	ldrb	r2, [r3, #0]
    be18:	2a00      	cmp	r2, #0
    be1a:	d01c      	beq.n	be56 <strlen+0x52>
    be1c:	3301      	adds	r3, #1
    be1e:	420b      	tst	r3, r1
    be20:	d1f9      	bne.n	be16 <strlen+0x12>
    be22:	6819      	ldr	r1, [r3, #0]
    be24:	4a0f      	ldr	r2, [pc, #60]	; (be64 <strlen+0x60>)
    be26:	4c10      	ldr	r4, [pc, #64]	; (be68 <strlen+0x64>)
    be28:	188a      	adds	r2, r1, r2
    be2a:	438a      	bics	r2, r1
    be2c:	4222      	tst	r2, r4
    be2e:	d10f      	bne.n	be50 <strlen+0x4c>
    be30:	3304      	adds	r3, #4
    be32:	6819      	ldr	r1, [r3, #0]
    be34:	4a0b      	ldr	r2, [pc, #44]	; (be64 <strlen+0x60>)
    be36:	188a      	adds	r2, r1, r2
    be38:	438a      	bics	r2, r1
    be3a:	4222      	tst	r2, r4
    be3c:	d108      	bne.n	be50 <strlen+0x4c>
    be3e:	3304      	adds	r3, #4
    be40:	6819      	ldr	r1, [r3, #0]
    be42:	4a08      	ldr	r2, [pc, #32]	; (be64 <strlen+0x60>)
    be44:	188a      	adds	r2, r1, r2
    be46:	438a      	bics	r2, r1
    be48:	4222      	tst	r2, r4
    be4a:	d0f1      	beq.n	be30 <strlen+0x2c>
    be4c:	e000      	b.n	be50 <strlen+0x4c>
    be4e:	3301      	adds	r3, #1
    be50:	781a      	ldrb	r2, [r3, #0]
    be52:	2a00      	cmp	r2, #0
    be54:	d1fb      	bne.n	be4e <strlen+0x4a>
    be56:	1a18      	subs	r0, r3, r0
    be58:	bd10      	pop	{r4, pc}
    be5a:	0003      	movs	r3, r0
    be5c:	e7e1      	b.n	be22 <strlen+0x1e>
    be5e:	2000      	movs	r0, #0
    be60:	e7fa      	b.n	be58 <strlen+0x54>
    be62:	46c0      	nop			; (mov r8, r8)
    be64:	fefefeff 	.word	0xfefefeff
    be68:	80808080 	.word	0x80808080

0000be6c <register_fini>:
    be6c:	4b03      	ldr	r3, [pc, #12]	; (be7c <register_fini+0x10>)
    be6e:	b510      	push	{r4, lr}
    be70:	2b00      	cmp	r3, #0
    be72:	d002      	beq.n	be7a <register_fini+0xe>
    be74:	4802      	ldr	r0, [pc, #8]	; (be80 <register_fini+0x14>)
    be76:	f000 f805 	bl	be84 <atexit>
    be7a:	bd10      	pop	{r4, pc}
    be7c:	00000000 	.word	0x00000000
    be80:	0000be95 	.word	0x0000be95

0000be84 <atexit>:
    be84:	b510      	push	{r4, lr}
    be86:	0001      	movs	r1, r0
    be88:	2300      	movs	r3, #0
    be8a:	2200      	movs	r2, #0
    be8c:	2000      	movs	r0, #0
    be8e:	f000 f819 	bl	bec4 <__register_exitproc>
    be92:	bd10      	pop	{r4, pc}

0000be94 <__libc_fini_array>:
    be94:	b570      	push	{r4, r5, r6, lr}
    be96:	4d07      	ldr	r5, [pc, #28]	; (beb4 <__libc_fini_array+0x20>)
    be98:	4c07      	ldr	r4, [pc, #28]	; (beb8 <__libc_fini_array+0x24>)
    be9a:	1b64      	subs	r4, r4, r5
    be9c:	10a4      	asrs	r4, r4, #2
    be9e:	d005      	beq.n	beac <__libc_fini_array+0x18>
    bea0:	3c01      	subs	r4, #1
    bea2:	00a3      	lsls	r3, r4, #2
    bea4:	58eb      	ldr	r3, [r5, r3]
    bea6:	4798      	blx	r3
    bea8:	2c00      	cmp	r4, #0
    beaa:	d1f9      	bne.n	bea0 <__libc_fini_array+0xc>
    beac:	f013 fc08 	bl	1f6c0 <_fini>
    beb0:	bd70      	pop	{r4, r5, r6, pc}
    beb2:	46c0      	nop			; (mov r8, r8)
    beb4:	0001f6cc 	.word	0x0001f6cc
    beb8:	0001f6d0 	.word	0x0001f6d0

0000bebc <__retarget_lock_acquire_recursive>:
    bebc:	4770      	bx	lr
    bebe:	46c0      	nop			; (mov r8, r8)

0000bec0 <__retarget_lock_release_recursive>:
    bec0:	4770      	bx	lr
    bec2:	46c0      	nop			; (mov r8, r8)

0000bec4 <__register_exitproc>:
    bec4:	b5f0      	push	{r4, r5, r6, r7, lr}
    bec6:	46de      	mov	lr, fp
    bec8:	4645      	mov	r5, r8
    beca:	464e      	mov	r6, r9
    becc:	4657      	mov	r7, sl
    bece:	b5e0      	push	{r5, r6, r7, lr}
    bed0:	4c2a      	ldr	r4, [pc, #168]	; (bf7c <__register_exitproc+0xb8>)
    bed2:	b083      	sub	sp, #12
    bed4:	0005      	movs	r5, r0
    bed6:	6820      	ldr	r0, [r4, #0]
    bed8:	4690      	mov	r8, r2
    beda:	469b      	mov	fp, r3
    bedc:	000e      	movs	r6, r1
    bede:	f7ff ffed 	bl	bebc <__retarget_lock_acquire_recursive>
    bee2:	4b27      	ldr	r3, [pc, #156]	; (bf80 <__register_exitproc+0xbc>)
    bee4:	681b      	ldr	r3, [r3, #0]
    bee6:	9301      	str	r3, [sp, #4]
    bee8:	23a4      	movs	r3, #164	; 0xa4
    beea:	9a01      	ldr	r2, [sp, #4]
    beec:	005b      	lsls	r3, r3, #1
    beee:	58d2      	ldr	r2, [r2, r3]
    bef0:	2a00      	cmp	r2, #0
    bef2:	d038      	beq.n	bf66 <__register_exitproc+0xa2>
    bef4:	6853      	ldr	r3, [r2, #4]
    bef6:	6820      	ldr	r0, [r4, #0]
    bef8:	2b1f      	cmp	r3, #31
    befa:	dc3a      	bgt.n	bf72 <__register_exitproc+0xae>
    befc:	2d00      	cmp	r5, #0
    befe:	d10e      	bne.n	bf1e <__register_exitproc+0x5a>
    bf00:	1c59      	adds	r1, r3, #1
    bf02:	3302      	adds	r3, #2
    bf04:	009b      	lsls	r3, r3, #2
    bf06:	6051      	str	r1, [r2, #4]
    bf08:	509e      	str	r6, [r3, r2]
    bf0a:	f7ff ffd9 	bl	bec0 <__retarget_lock_release_recursive>
    bf0e:	2000      	movs	r0, #0
    bf10:	b003      	add	sp, #12
    bf12:	bc3c      	pop	{r2, r3, r4, r5}
    bf14:	4690      	mov	r8, r2
    bf16:	4699      	mov	r9, r3
    bf18:	46a2      	mov	sl, r4
    bf1a:	46ab      	mov	fp, r5
    bf1c:	bdf0      	pop	{r4, r5, r6, r7, pc}
    bf1e:	0099      	lsls	r1, r3, #2
    bf20:	4689      	mov	r9, r1
    bf22:	4491      	add	r9, r2
    bf24:	4641      	mov	r1, r8
    bf26:	2488      	movs	r4, #136	; 0x88
    bf28:	464f      	mov	r7, r9
    bf2a:	5139      	str	r1, [r7, r4]
    bf2c:	21c4      	movs	r1, #196	; 0xc4
    bf2e:	0049      	lsls	r1, r1, #1
    bf30:	4688      	mov	r8, r1
    bf32:	4490      	add	r8, r2
    bf34:	4641      	mov	r1, r8
    bf36:	3c87      	subs	r4, #135	; 0x87
    bf38:	409c      	lsls	r4, r3
    bf3a:	6809      	ldr	r1, [r1, #0]
    bf3c:	46a2      	mov	sl, r4
    bf3e:	4321      	orrs	r1, r4
    bf40:	468c      	mov	ip, r1
    bf42:	4641      	mov	r1, r8
    bf44:	4664      	mov	r4, ip
    bf46:	600c      	str	r4, [r1, #0]
    bf48:	2184      	movs	r1, #132	; 0x84
    bf4a:	464c      	mov	r4, r9
    bf4c:	465f      	mov	r7, fp
    bf4e:	0049      	lsls	r1, r1, #1
    bf50:	5067      	str	r7, [r4, r1]
    bf52:	2d02      	cmp	r5, #2
    bf54:	d1d4      	bne.n	bf00 <__register_exitproc+0x3c>
    bf56:	0011      	movs	r1, r2
    bf58:	4655      	mov	r5, sl
    bf5a:	318d      	adds	r1, #141	; 0x8d
    bf5c:	31ff      	adds	r1, #255	; 0xff
    bf5e:	680c      	ldr	r4, [r1, #0]
    bf60:	4325      	orrs	r5, r4
    bf62:	600d      	str	r5, [r1, #0]
    bf64:	e7cc      	b.n	bf00 <__register_exitproc+0x3c>
    bf66:	9a01      	ldr	r2, [sp, #4]
    bf68:	9901      	ldr	r1, [sp, #4]
    bf6a:	324d      	adds	r2, #77	; 0x4d
    bf6c:	32ff      	adds	r2, #255	; 0xff
    bf6e:	50ca      	str	r2, [r1, r3]
    bf70:	e7c0      	b.n	bef4 <__register_exitproc+0x30>
    bf72:	f7ff ffa5 	bl	bec0 <__retarget_lock_release_recursive>
    bf76:	2001      	movs	r0, #1
    bf78:	4240      	negs	r0, r0
    bf7a:	e7c9      	b.n	bf10 <__register_exitproc+0x4c>
    bf7c:	20000610 	.word	0x20000610
    bf80:	0001f6a8 	.word	0x0001f6a8

0000bf84 <paletteEntries>:
    bf84:	02fc030c 02bc0314 000002f8              ............

0000bf90 <pic4_paletteIndexTable>:
    bf90:	2b2b2b2b 2b2b2dae 2b2b2b2b 2bae2b2b     ++++.-++++++++.+
    bfa0:	2b2b2b2b 2b2b2b2b 2b2b2bae 2b2b2b2b     ++++++++.+++++++
    bfb0:	2dae2b2b 2b2b2b2b 2b2b2b2b 2b2b2eae     ++.-++++++++..++
    bfc0:	2b2b2b2b 2eae2b2b 2b2b2b2b 2b2b2bae     ++++++..++++.+++
    bfd0:	2b2bae2e 2bae2b2b aeae2b2b 2b2b2b2b     ..++++.+++..++++
    bfe0:	2b2b2b2b 2b2b2eae ae2b2b2b aeac2b2b     ++++..+++++.++..
    bff0:	2b2b2b2b 2b2b1515 2b2dae2a 15152b2b     ++++..++*.-+++..
    c000:	2eb12b2e 2b2b152b 2b2e1515 152bae2b     .+..+.++...++.+.
    c010:	15152e15 aa2b2b2e 2e15152b 15151515     .....++.+.......
    c020:	152b32b2 15152b15 a82c1515 15151515     .2+..+....,.....
    c030:	15151515 1515a613 15281515 a92d2b15     ..........(..+-.
    c040:	15151532 2f311528 1531134a 28241515     2...(.1/J.1...$(
    c050:	49b6a628 15151531 28322824 15314ab5     (..I1...$(2(.J1.
    c060:	24241515 4d4a1624 151515ae 28322424     ..$$$.JM....$$2(
    c070:	15154d4d 24241515 51a62832 15152851     MM....$$2(.QQ(..
    c080:	28322424 24515116 24241524 51b92e32     $$2(.QQ$$.$$2..Q
    c090:	1524248c a6282424 32512009 24242824     .$$.$$(.. Q2$($$
    c0a0:	22202426 2424325a 2b8c2424 33511a0d     &$ "Z2$$$$.+..Q3
    c0b0:	24242424 1a021628 24243451 6a272424     $$$$(...Q4$$$$'j
    c0c0:	8c8c2000 24242424 00003dba 24248c8c     . ..$$$$.=....$$
    c0d0:	69512424 2a540060 24242424 02636c8c     $$Qi`.T*$$$$.lc.
    c0e0:	242e155b 1da62424 16595b73 2424242e     [..$$$..s[Y..$$$
    c0f0:	0f001328 2434b22b 13242424 b2240f00     (...+.4$$$$...$.
    c100:	24242434 9c00738e 24349a98 70382424     4$$$.s....4$$$8p
    c110:	3d73010d 2424242e 00629360 242d0f1d     ..s=.$$$`.b...-$
    c120:	3fa13524 0c4d0100 35242432 112020a0     $5.?..M.2$$5.  .
    c130:	2436ba2b 20a02424 661d181a 24242436     +.6$$$. ...f6$$$
    c140:	1a4a7996 24366a43 13632424 69530403     .yJ.Cj6$$$c...Si
    c150:	24242436 02160f88 24346a80 01083524     6$$$.....j4$$5..
    c160:	6304044c 2e35242e 00200007 2436581a     L..c.$5... ..X6$
    c170:	09872e24 0800609e 35352432 8e1d0984     $....`..2$55....
    c180:	2e36000a 12404436 0f6d6375 03352e34     ..6.6D@.ucm.4.5.
    c190:	0c0c5870 36350070 1f02002e 9e0c0862     pX..p.56....b...
    c1a0:	962e3696 22000f09 36930f20 6d00002e     .6....." ..6...m
    c1b0:	0d17170d b32e3005 005c2063 36210000     .....0..c \...!6
    c1c0:	00626d2e 04200000 082e300c 07090007     .mb... ..0......
    c1d0:	b66d0000 085c052e 6000203f 052e339e     ..m...\.? .`.3..
    c1e0:	0c702009 3900600f 0908582e 000b0c70     . p..`.9.X..p...
    c1f0:	0c36356d 0c090902 39a2720c 06020839     m56......r.99...
    c200:	9e090c00 08393906 0c0002a1 3d060f0c     .....99........=
    c210:	02210839 0e0c0c00 05393d06 790009a2     9.!......=9....y
    c220:	3d050e6d 12600539 73090800 5f394305     m..=9.`....s.C9_
    c230:	21936009 45246d09 969d0588 7002231d     .`.!.m$E.....#.p
    c240:	58ba9a40 b2b6b6a6 4793581d 8f66a954     @..X.....X.GT.f.
    c250:	7666761c 1d9647aa 76045016 4947886f     .vfv.G...P.vo.GI
    c260:	66408445 46708376 43784947 839d1a6f     E.@fv.pFGIxCo...
    c270:	47444478 57197f7c 44885c93 7d849347     xDDG|..W.\.DG..}
    c280:	691a4d1a 47444740 80007953 4458543d     .M.i@GDGSy..=TXD
    c290:	7d7d4547 2e027f1a 8049478f 801a7b80     GE}}.....GI..{..
    c2a0:	47430d88 7d834499 1a23477b 447c8f43     ..CG.D.}{G#.C.|D

0000c2b0 <pic4_palettes>:
    c2b0:	c28382c3 c28382ce 82cec282 82c3c283     ................
    c2c0:	c283c283 028ac283 8282c283 c283424d     ............MB..
    c2d0:	82c68282 82828282 c2838282 82c682c6     ................
    c2e0:	82c382c6 8282028a 82ce82ce 82c682ce     ................
    c2f0:	82838283 424d82c6 028a82c6 c283028a     ......MB........
    c300:	424d424d 424dc283 82cec283 c283c283     MBMB..MB........
    c310:	424d82c3 828382c6 82c382c6 024c024c     ..MB........L.L.
    c320:	8282c283 024c424d 8282424d c282424d     ....MBL.MB..MB..
    c330:	82cec2ce 82c682c6 82ce82cb 82ce82ce     ................
    c340:	82c682ce c283c283 82cec283 424dc283     ..............MB
    c350:	82ce82c3 82cb8285 c2cf82c6 82c682c6     ................
    c360:	82ce82cb 82cfc286 82c6c2cf 82ce82c6     ................
    c370:	82ce82ce c28382ce 828282ce 82c6c283     ................
    c380:	82c68282 028a8282 82ce82c6 828282c6     ................
    c390:	424d028a 82c682ce 424dc282 82ce424d     ..MB......MBMB..
    c3a0:	424d8282 424d82c6 c283424d 424d424d     ..MB..MBMB..MBMB
    c3b0:	82ce8282 82828282 028d8282 c2838283     ................
    c3c0:	420982c6 024c82ce 82ce82ce 82c6424d     ...B..L.....MB..
    c3d0:	424a424d c2838282 c28382c6 82cec283     MBJB............
    c3e0:	c2838282 82ce82c3 02450245 c2828285     ........E.E.....
    c3f0:	c28382c6 82c682c6 82c6028b 024c024d     ............M.L.
    c400:	82c3c282 8282c283 82cec283 424d8282     ..............MB
    c410:	024d024d 424d024d c245424c 424d424d     M.M.M.MBLBE.MBMB
    c420:	82858284 02450244 424a028a 028bc283     ....D.E...JB....
    c430:	82c6c283 c244c244 8285424d 024c424d     ....D.D.MB..MBL.
    c440:	4204424d 424d8282 424d028d 424d424a     MB.B..MB..MBJBMB
    c450:	82828282 028a8282 82828285 8282028a     ................
    c460:	028a028a 424d028d c282c283 028ac283     ......MB........
    c470:	424d424a 424c424c 424d424c c2838282     JBMBLBLBLBMB....
    c480:	424d8282 424d024c 424d424d 028a424d     ..MBL.MBMBMBMB..
    c490:	02440244 024c0244 c2458285 424a82c6     D.D.D.L...E...JB
    c4a0:	c282028a 4209024c 424ac283 02444204     ....L..B..JB.BD.
    c4b0:	8282424d c2838282 8282c283 c283c283     MB..............
    c4c0:	c2838282 82c682c6 82ce82c6 c28382c6     ................
    c4d0:	82ce0249 82c6028a 82ce024c c28382ce     I.......L.......
    c4e0:	8282c282 c283c282 82c6c283 82828282     ................
    c4f0:	424d82ce c283c283 8282c283 c286c283     ..MB............
    c500:	82828282 82838282 82848285 c283028a     ................
    c510:	424a024d 82c382ce 024c4201 4209424c     M.JB.....BL.LB.B
    c520:	c282424d 82848284 c2828284 c2448284     MB............D.
    c530:	c2448284 024c0244 c2828284 024d0245     ..D.D.L.....E.M.
    c540:	c2838285 c245c245 424a424a 0244424c     ....E.E.JBJBLBD.
    c550:	0244424d 028a424d 424a8282 82848284     MBD.MB....JB....
    c560:	424d8285 c245c244 c244c244 024d424d     ..MBD.E.D.D.MBM.
    c570:	424d8282 424a8282 028a8285 8282028a     ..MB..JB........
    c580:	424dc245 8285424d 424a424d 0242424d     E.MBMB..MBJBMBB.
    c590:	82848284 c241c241 8282c283 8285c244     ....A.A.....D...
    c5a0:	024d028a 024d024d 0245024d 424cc241     ..M.M.M.M.E.A.LB
    c5b0:	c245c282 c241c244 424d424c 424d424d     ..E.D.A.LBMBMBMB
    c5c0:	424c424d c2448284 82858285 c244c244     MBLB..D.....D.D.
    c5d0:	82c38282 c2418284 c2448284 82c38285     ......A...D.....
    c5e0:	828282c6 82850249 828582cb 424a4242     ....I.......BBJB
    c5f0:	8285c283 c244c244 8284c244 c244c245     ....D.D.D...E.D.
    c600:	8285424a 424a424d 82848284 82858285     JB..MBJB........
    c610:	82858282 82848284 c2448285 c28282cb     ..........D.....
    c620:	424c024c 8282c282 c282c283 424cc244     L.LB........D.LB
    c630:	8285c244 0249c244 8285c245 82858284     D...D.I.E.......
    c640:	82858285 82848285 c2858285 8285c282     ................
    c650:	c2838282 82828284 82858284 c2858284     ................
    c660:	82cb82ce c285c282 c282c282 024cc245     ............E.L.
    c670:	c285c285 8285424c 82850249 8285c285     ....LB..I.......
    c680:	424c8285 c2858285 c2448285 82858285     ..LB......D.....
    c690:	424d0245 82850249 424d028a c283c282     E.MBI.....MB....
    c6a0:	8285c285 028dc245 02494208 42094208     ....E....BI..B.B
    c6b0:	82828282 82858282 c283c283 0249424c     ............LBI.
    c6c0:	c2828282 828282c3 424d82c3 828282c6     ..........MB....
    c6d0:	424d0249 424c0249 82cb024c 8282c283     I.MBI.LBL.......
    c6e0:	028d424d 02490249 02494209 8282424d     MB..I.I..BI.MB..
    c6f0:	42010200 02490249 4201024c 024c024d     ...BI.I.L..BM.L.
    c700:	02494209 42094209 024c424c 024c424d     .BI..B.BLBL.MBL.
    c710:	8282424d 424d424d 424d024c 024c024c     MB..MBMBL.MBL.L.
    c720:	0249024c 42014201 024c4209 42014209     L.I..B.B.BL..B.B
    c730:	02440241 024c0249 024c024c 424d024c     A.D.I.L.L.L.L.MB
    c740:	4209024c 02494201 024cc283 c283424d     L..B.BI...L.MB..
    c750:	42014200 42004201 42094201 02004201     .B.B.B.B.B.B.B..
    c760:	42000200 424d0245 024d028b 42014201     ...BE.MB..M..B.B
    c770:	42014209 42094209 028b428b 024d424d     .B.B.B.B.B..MBM.
    c780:	424a028a 424d024d 424a424a 424d424d     ..JBM.MBJBJBMBMB
    c790:	028a8282 028a028a 0241024c 024d024d     ........L.A.M.M.
    c7a0:	c283c282 8282c283 024d424a 424d424a     ........JBM.JBMB
    c7b0:	0241424c 424a424d 02440244 424d424c     LBA.MBJBD.D.LBMB
    c7c0:	02440244 02450245 424d8285 8282028a     D.D.E.E...MB....
    c7d0:	424d028a 424c024c 0245024d 42044204     ..MBL.LBM.E..B.B
    c7e0:	024cc245 424d424c 424d424d 028a424d     E.L.LBMBMBMBMB..
    c7f0:	82848284 024d024c 024c024c 8284c244     ....L.M.L.L.D...
    c800:	02490241 82828282 424c8282 024c0249     A.I.......LBI.L.
    c810:	02410249 4201024c 024c4201 8282c283     I.A.L..B.BL.....
    c820:	8282424c 028d424c 82828285 424c424d     LB..LB......MBLB
    c830:	424d8282 02498282 82828285 82c682c6     ..MB..I.........
    c840:	424d028a 82ce82cb 82c6c283 024c4209     ..MB.........BL.
    c850:	8282424a 0244424c 0249424c 424d424d     JB..LBD.LBI.MBMB
    c860:	82c6424d 82c3c283 8282424d 424c424d     MB......MB..MBLB
    c870:	c2838282 424c82c3 82848284 82848285     ......LB........
    c880:	c28382c6 82c382c6 028d024c 424dc283     ........L.....MB
    c890:	424cc283 82c3c283 8284c245 424c424d     ..LB....E...MBLB
    c8a0:	8282424d 82c382c3 828282c3 82ce82ce     MB..............
    c8b0:	828282c3 424d8285 424d82c6 02000249     ......MB..MBI...
    c8c0:	82cb82cb 82c6024d 82ce82ce 82c6c283     ....M...........
    c8d0:	82cec283 024c424c 82c38282 c28382c3     ....LBL.........
    c8e0:	82c682c3 82c382c3 82c682ce c283c283     ................
    c8f0:	82ce82c6 c283028a 82c3028d 024c82ce     ..............L.
    c900:	8282c282 82c3c283 c282c283 82c38282     ................
    c910:	c28382c3 82cb8284 8282028d 424d424d     ............MBMB
    c920:	024d8282 82c38282 424d0244 c282028a     ..M.....D.MB....
    c930:	020082ce 024dc283 c286c286 c2834209     ......M......B..
    c940:	42014209 0244424d 028a0244 424d024d     .B.BMBD.D...M.MB
    c950:	028a0244 02450245 82828285 424d82cb     D...E.E.......MB
    c960:	424d024c c283024c 82c3c282 c282c282     L.MBL...........
    c970:	424dc282 82c3c283 c283424d 024c424d     ..MB....MB..MBL.
    c980:	424d82c3 424d024d 82cbc283 8282c283     ..MBM.MB........
    c990:	c2828282 82828282 424d8282 c28382c3     ..........MB....
    c9a0:	82ce82ce 028dc283 42044204 82cec2ce     .........B.B....
    c9b0:	c2838282 82ce82c3 424d028d c28382ce     ..........MB....
    c9c0:	028d82c6 828282c6 024c024c 424d024c     ........L.L.L.MB
    c9d0:	c283c282 c283c283 8282c286 024c8282     ..............L.
    c9e0:	828282c3 82c382c6 82c682ce 82cec283     ................
    c9f0:	82828282 424d8282 82ce82c6 82c682c6     ......MB........
    ca00:	8282028d 82c382ce c283424d 8285424d     ........MB..MB..
    ca10:	024c8282 c28382ce c282c283 8282424d     ..L.........MB..
    ca20:	42098285 c28382c6 4201028a 8282024c     ...B.......BL...
    ca30:	c283024c c283024d 82c6c282 424c424d     L...M.......MBLB
    ca40:	c2838283 424c024c 02494201 024c424c     ....L.LB.BI.LBL.
    ca50:	424d8282 42010244 82ce82ce c28382ce     ..MBD..B........
    ca60:	82c3c283 028ac283 028d424c 4201424c     ........LB..LB.B
    ca70:	82c3424d c283424d 02410241 42014201     MB..MB..A.A..B.B
    ca80:	024c0241 02010201 024c0249 02490249     A.L.....I.L.I.I.
    ca90:	424c024c 42014200 424c4201 02494201     L.LB.B.B.BLB.BI.
    caa0:	02014201 424d424c 024c424d 02410241     .B..LBMBMBL.A.A.
    cab0:	42010241 0241024c 0244024c 42014201     A..BL.A.L.D..B.B
    cac0:	424c0244 024c0244 02440244 02410244     D.LBD.L.D.D.D.A.
    cad0:	42010249 424c0249 424d024c 024c4201     I..BI.LBL.MB.BL.
    cae0:	024c4204 02410241 424d0241 024c024c     .BL.A.A.A.MBL.L.
    caf0:	02410241 424d0241 024c82c6 02410249     A.A.A.MB..L.I.A.
    cb00:	024c024c 8282024c 42014200 02414201     L.L.L....B.B.BA.
    cb10:	42004201 c283c283 024cc283 82824209     .B.B......L..B..
    cb20:	424c424c 0241424c 82cb8285 c286c283     LBLBLBA.........
    cb30:	42098282 82ce8284 c2828285 028d8285     ...B............
    cb40:	82cb8285 82ce8285 4209024c c282024c     ........L..BL...
    cb50:	8285028d 028d028d c28282ce 82ce82ce     ................
    cb60:	8282c282 c282c282 c286c283 82828282     ................
    cb70:	42040244 024c8285 424d8285 024c0249     D..B..L...MBI.L.
    cb80:	024d028a 024c024c 02454204 02444204     ..M.L.L..BE..BD.
    cb90:	424c4209 8284424c c244424c 024c424c     .BLBLB..LBD.LBL.
    cba0:	82828282 82858284 82848284 024c424d     ............MBL.
    cbb0:	82c38282 82ce8282 028a028a 82cb82cb     ................
    cbc0:	c28382cb 424a024d 420182ce 024c4201     ....M.JB...B.BL.
    cbd0:	8282424c 42000200 42094209 424d424d     LB.....B.B.BMBMB
    cbe0:	024c8282 828582c3 02490249 82ce82ce     ..L.....I.I.....
    cbf0:	82c382ce 82ce82cf 42014201 82cec282     .........B.B....
    cc00:	c282c283 42094209 82ce424d 424d424d     .....B.BMB..MBMB
    cc10:	42000200 c28382c6 42090249 82c6c283     ...B....I..B....
    cc20:	028d8285 c2838285 c28682c6 c283028a     ................
    cc30:	0244024c c28682ce 8282424a 024c424c     L.D.....JB..LBL.
    cc40:	028d424c 424d8282 c283c283 024c424d     LB....MB....MBL.
    cc50:	424c8282 424d8282 82858285 c2458285     ..LB..MB......E.
    cc60:	024c024c 4200024c 424d024c 02004200     L.L.L..BL.MB.B..
    cc70:	42004200 42014201 c283c283 42014209     .B.B.B.B.....B.B
    cc80:	024c4209 024c424d 424d028a 424d424c     .BL.MBL...MBLBMB
    cc90:	82ce8282 c2838282 024c82c6 82c682c6     ..........L.....
    cca0:	424d028a c283024d c28382ce 82c682ce     ..MBM...........
    ccb0:	c282c283 8283424a 424d424c 024c424c     ....JB..LBMBLBL.
    ccc0:	82ce424d 8282c283 424dc283 82c6424d     MB........MBMB..
    ccd0:	82c682c3 82ce82c3 028d8285 024c8285     ..............L.
    cce0:	c28382c6 82ce82c6 0249024c c286024c     ........L.I.L...
    ccf0:	c283024c 424d82ce 02004201 424dc283     L.....MB.B....MB
    cd00:	8282c283 8282424c 82c6424d 82c3c283     ....LB..MB......
    cd10:	c2838282 024d8282 82848284 02450244     ......M.....D.E.
    cd20:	c2828284 42098285 0244024c 424d024c     .......BL.D.L.MB
    cd30:	0245024d 024dc282 82c3c283 82c6c283     M.E...M.........
    cd40:	c283424a 024d0245 024d024d c244c244     JB..E.M.M.M.D.D.
    cd50:	82828283 024d0245 42010249 024c0249     ....E.M.I..BI.L.
    cd60:	c244028b 024c024c 8283024c 424d024d     ..D.L.L.L...M.MB
    cd70:	024d024d 8282c283 c282c283 02494209     M.M..........BI.
    cd80:	42094209 424a0242 c244c244 c241c244     .B.BB.JBD.D.D.A.
    cd90:	424d0244 c244c241 8285c241 c245c241     D.MBA.D.A...A.E.
    cda0:	c245c244 c241c244 8285c244 8282c244     D.E.D.A.D...D...
    cdb0:	0249c244 c2414249 c2444249 424d424a     D.I.IBA.IBD.JBMB
    cdc0:	c244424d 424a0242 c241c241 c244c244     MBD.B.JBA.A.D.D.
    cdd0:	424a0242 424d8283 424d8284 02450245     B.JB..MB..MBE.E.
    cde0:	02440245 424c024c 424a024d c241c241     E.D.L.LBM.JBA.A.
    cdf0:	c244c244 424dc244 42044205 424dc245     D.D.D.MB.B.BE.MB
    ce00:	4205424d 0245424d 8283424d 424d424d     MB.BMBE.MB..MBMB
    ce10:	82828282 028a8282 82858285 82848285     ................
    ce20:	c283028a 024c028a 028b028a c286028b     ......L.........
    ce30:	82c6028b 8285c241 028ac286 82c6c2c7     ....A...........
    ce40:	028b424a 8285424d 424d424d 028a424d     JB..MB..MBMBMB..
    ce50:	c2828282 424a8283 82848284 c2828285     ......JB........
    ce60:	424c8285 020082c6 028a028a 8283028a     ..LB............
    ce70:	8282028a 028a024d 428e028e 82c6c283     ....M......B....
    ce80:	8282c244 82ce4209 424c424c 428b424d     D....B..LBLBMB.B

0000ce90 <pic4_data>:
    ce90:	dddddddd dddddddd 555d1eee dddddddd     ..........]U....
    cea0:	dddddddd dddddddd dddddddd ddd22eee     ................
    ceb0:	dddddddd dddddddd dddddddd dddddddd     ................
    cec0:	ddd231ee dddddddd dddddddd dddddddd     .1..............
    ced0:	dddddddd 55dd11ee dddddddd dddddddd     .......U........
    cee0:	dddddddd dddddddd 119ff1ee dddddddd     ................
    cef0:	dddddddd dddddddd dddddddd 119f41e1     .............A..
    cf00:	dddddddd dddddddd ddddff1e dddddddd     ................
    cf10:	ee5a7f1f dddddddd dddddddd ddddff1e     ..Z.............
    cf20:	dddddddd ee598fee dddddddd dddddddd     ......Y.........
    cf30:	dddddddd dddddddd f11961ee dddddddd     .........a......
    cf40:	dddddddd f1eedddd ddddd222 eeecf979     ........"...y...
    cf50:	dddddddd dddddddd dddddddd 2dddd222     ............"..-
    cf60:	ee5ce666 dddd5d55 dddddddd dddddddd     f.\.U]..........
    cf70:	22dd9fff 11fcad32 dddd222d dddddd22     ..."2...-".."...
    cf80:	dddddddd 222d9fff efcba02d dddd222d     ......-"-...-"..
    cf90:	19ffdddd dddddddd 2d2d9fff fe4db41d     ..........--..M.
    cfa0:	dddd222d 19ffdddd dddddddd dddddddd     -"..............
    cfb0:	9bc7dfb7 dddd222d d222dddd dddddddd     ....-"....".....
    cfc0:	dddddddd 78f5edcb dddddddd dddddddd     .......x........
    cfd0:	dddddddd dddddddd fc7eccc3 dddddddd     ..........~.....
    cfe0:	dddddddd ddddee0b f222dddd db92f998     ..........".....
    cff0:	dddd99ea dddddddd ddddee0b f9bb1e33     ............3...
    d000:	627fcfdb dddd335f dddddddd e0bbdddd     ...b_3..........
    d010:	94ff0bee 9faeb7ce dddd33e8 dddddddd     .........3......
    d020:	e0bbdddd f4ee2ea9 5f6afca3 dddd33f4     ..........j_.3..
    d030:	dddddddd dddddddd 0e99dddd e7a2ceed     ................
    d040:	ddddffc0 dddddddd dddddddd 38eeea2e     ...............8
    d050:	e1ad2bd7 dddddd69 dddddddd dddddddd     .+..i...........
    d060:	37d0ea2e 0e168de6 eb00cf57 dddddddd     ...7....W.......
    d070:	dddddddd 18dbea2e 0e0d0c13 ddfdcc57     ............W...
    d080:	dddddddd dddddddd b5f0a2ee da43c5ba     ..............C.
    d090:	ddfdee87 dddddddd dddddddd a0f2e0bb     ................
    d0a0:	f373f111 ae2ecc54 e0bbdddd dddddddd     ..s.T...........
    d0b0:	13f6d755 d977fffc aa2eaa7f dddddddd     U.....w.........
    d0c0:	dddddddd 78f94dee e5c1dd1d aeaacf2a     .....M.x....*...
    d0d0:	dddddddd dddddddd f39afcbb e5c1111c     ................
    d0e0:	6f66cf9a dddddddd dddddddd f2bdae21     ..fo........!...
    d0f0:	c3334444 92deea5f dddddddd dddddddd     DD3._...........
    d100:	ec64afc2 940feee3 92deea5c dddddddd     ..d.....\.......
    d110:	dddddddd da35168c 4346bf7f d7a303fb     ......5...FC....
    d120:	ddddddd6 dddddddd 885e601e b25d9e35     .........`^.5.].
    d130:	ea386e34 dddd000e dddddddd f614d352     4n8.........R...
    d140:	284c68da f7d4efba dddd000e dddddddd     .hL(............
    d150:	49ff69cb 2e41e9f7 43c2cf4e dddd666c     .i.I..A.N..Clf..
    d160:	dddddddd 49e911ed 2e49e9f7 a3c2d642     .......I..I.B...
    d170:	dddd666c dddddddd 70f3cb85 9f8ab9f7     lf.........p....
    d180:	def3ae86 dddd666c dddddddd dc8ffc89     ....lf..........
    d190:	f74d2d5a cd92bf5e dddd000c dddddddd     Z-M.^...........
    d1a0:	d18a3f51 74a5dc39 fed012ef dddd444c     Q?..9..t....LD..
    d1b0:	f222dddd 694ee1c7 f0004404 bd4c3d98     .."...Ni.D...=L.
    d1c0:	ddddeee8 f222dddd 5dc8ecfb 6ddde375     ......"....]u..m
    d1d0:	d5b93a0e dddd11d3 dddddddd 33caec7a     .:..........z..3
    d1e0:	bcbcfee1 b80eb40f dddd111f dddddddd     ................
    d1f0:	f34cde15 35eebfd7 53e07e3b dddd11d6     ..L....5;~.S....
    d200:	dddddddd dfba329d 4e44888f e7a356ed     .....2....DN.V..
    d210:	dddd11d5 dddddddd c357fca1 c2cc33f3     ..........W..3..
    d220:	ac94c3a2 dddd667e 2f22dddd c0571f59     ....~f...."/Y.W.
    d230:	777ef498 9cbf44e4 dddd00e2 000ef222     ..~w.D......"...
    d240:	be4e878d d99a37eb 80ebee37 dddd11d0     ..N..7..7.......
    d250:	eee3dddd dcf23f92 79bf3e1d 333f4e3a     .....?...>.y:N?3
    d260:	ddddeef8 333e2f22 fb1df9be 8fe9fd03     ...."/>3........
    d270:	eeec799f 000ebdc3 111cdb11 d29d0bf9     .y..............
    d280:	bf7459c4 fef5637d 00ee7a7e ffff3f22     .Yt.}c..~z.."?..
    d290:	d36cbf07 3f2016ea a637603d bdcc3dca     ..l... ?=`7..=..
    d2a0:	99a6eeee 569dde41 f54358d7 5e3cf016     ....A..V.XC...<^
    d2b0:	bdccb2fe e639eeee 36afe41f 99d79999     ......9....6....
    d2c0:	28af2e33 cdc8e20d eeeeeeee e45c999b     3..(..........\.
    d2d0:	ccce8ddd ab8dcecc 666d771d dcbeeeee     .........wmf....
    d2e0:	1d33c6af 4444e54d 49444a0b cccffebd     ..3.M.DD.JDI....
    d2f0:	43c2eeee 244042ec eeee1eee e4c7be75     ...C.B@$....u...
    d300:	666e96fc 33f2eeee 4cfe7c58 55ccdf11     ..nf...3X|.L...U
    d310:	c3feeb1e 932de597 fffeeeee 51f1495f     ......-....._I.Q
    d320:	221db68f e7db0404 1ebc81d7 333eeeee     ..."..........>3
    d330:	355d3f02 cce23e05 7fca0fef e103fe03     .?]5.>..........
    d340:	d035eeee f771764f c8e13e05 76b8c357     ..5.Ovq..>..W..v
    d350:	c3348b3c 3c60ecec fccfae36 c5e10cfe     <.4...`<6.......
    d360:	e4d7c016 6f2efdb4 f7320c27 ec8e9e76     .......o'.2.v...
    d370:	c5e11e81 fd703cdb 0f2dc6fb f732fcc7     .....<p...-...2.
    d380:	e66ed948 cce1fe81 bda4c616 f81dc6fb     H.n.............
    d390:	f732fcc6 e66ec2ae cce1fe81 f9e8c016     ..2...n.........
    d3a0:	a08dc70b d1fecc26 fcc291fc 94d7fe31     ....&.......1...
    d3b0:	64e868fd bf2cfb4f 68feccc2 c99278c0     .h.dO.,....h.x..
    d3c0:	ff441efe f59624d2 f91ffa4f bcc8a9c2     ..D..$..O.......
    d3d0:	a6e6b97e 223fd53f 36f86bda 7d102c09     ~...?.?".k.6.,.}
    d3e0:	d26ec832 fe7ad27a 63bc72e1 024e7f1c     2.n.z.z..r.c..N.
    d3f0:	754ce362 0e450e43 54fee1b0 e51fae1f     b.LuC.E....T....
    d400:	f1e0f382 fde8e90b da9ec2fe 369ff4a3     ...............6
    d410:	7e69e45d f437c379 1edfc5b2 3c50c8f4     ].i~y.7.......P<
    d420:	8feefd8b 7d0c97db 60f7a64e b6c8f06e     .......}N..`n...
    d430:	4c73d273 236d4f8d 93ed2abd 9cef709e     s.sL.Om#.*...p..
    d440:	ccd61c36 1fff65f7 e9a5dcba 936da4f3     6....e........m.
    d450:	beba5cba 336edddf dc33832e efd3afdd     .\....n3..3.....
    d460:	6b1d47be 02ae6cdb 699e31f1 9cdb403d     .G.k.l...1.i=@..
    d470:	fce67bee 8fcb6bea 1d65ecfb d32045dd     .{...k....e..E .
    d480:	af5ec8bd e54f5a99 d65be73d ddeb72e0     ..^..ZO.=.[..r..
    d490:	9bd7e311 2cc004ec e58aeeea bcbbcccc     .......,........
    d4a0:	1d2eefc3 38fbd4b5 bd7cf513 a1f7eeed     .......8..|.....
    d4b0:	b8ddf998 1c939d3a df9afcdb c7ffbac1     ....:...........
    d4c0:	7d64686e e5003ef3 ddbe233d d299635c     nhd}.>..=#..\c..

0000d4d0 <pic3_paletteIndexTable>:
    d4d0:	1a1a1a1a 1a1a1a1a 1a1a1a1a 1a1a1a1a     ................
    d4e0:	1a1a1a1a 1a1a1a1a 1a1a1a67 1a1a1a1a     ........g.......
    d4f0:	1a1a1a1a 1a1a1a1a 1a1a1a1a 1a1a1a1a     ................
    d500:	1a1a1a1a 1a671a1a 1a1a1a1a 1a1a1a1a     ......g.........
    d510:	1a1a8e1a 1a1a1a1a 8e1a1a1a 1a1a1a1a     ................
    d520:	1a1a1a1a 1a1a1a1a 1a1a1a1a 1a611a1a     ..............a.
    d530:	1a1a1a1a 1a1a1a1a 1a1a1a2c 1a1a1a1a     ........,.......
    d540:	52611a1a 1a1a1a1a 1a1a1a1a 1a1a1a65     ..aR........e...
    d550:	1a1a1a1a 61681a1a 1a1a1a1a 1a1a1a1a     ......ha........
    d560:	1a1a716f 1a1a1a1a a11c1a1a 1a1a1a1a     oq..............
    d570:	1a1a1a1a 1a1a591d 1a1a1a1a 271b1a1a     .....Y.........'
    d580:	1a1a1a1a 8e1a1a1a 1a1a752a 1a1a1a1a     ........*u......
    d590:	a1a77b1a 1a1a1a8e a11a1a1a 1a6fa1a6     .{............o.
    d5a0:	1a1a1a1a 29291c1a 1a1a1a61 671a1a1a     ......))a......g
    d5b0:	1aa12a2a 1a1a1a1a 2765691a 1a1a1a6f     **.......ie'o...
    d5c0:	671a1a1a 1a6f2727 1a1a1a1a 13a91b1a     ...g''o.........
    d5d0:	1a1a1aa0 531a1a1a 1a6f3900 1a1a1a1a     .......S.9o.....
    d5e0:	79197b2d 1a1a1a52 161b1a1a 2c52100e     -{.yR.........R,
    d5f0:	1a1a1a1a 10101a52 1a1a1a1c 27641a1a     ....R.........d'
    d600:	64911700 1a1a1a1a 30007961 1a1a6491     ...d....ay.0.d..
    d610:	55631a1a 71690c4c 1a1a1a2c 097f0c90     ..cUL.iq,.......
    d620:	1a8e165a 3aa01a1a 16692010 1a1a1a8e     Z......:. i.....
    d630:	340d0965 1a6f8268 247b1a1a 822e330d     e..4h.o...{$.3..
    d640:	1a1a1a6f 2f0d7916 1a6f133a 5c611a1a     o....y./:.o...a\
    d650:	911a340f 1a1a1a52 0d6d4982 1a61380a     .4..R....Im..8a.
    d660:	79951a1a 34720a30 1a1a1a51 0000895d     ...y0.r4Q...]...
    d670:	1a2c2072 4c5d1a1a 493a082d 1a1a1a2c     r ,...]L-.:I,...
    d680:	1c532339 1a1a5675 2a021a1a 564f0225     9#S.uV.....*%.OV
    d690:	1a1a1a1a 091a7294 1a1a5699 797c1a1a     .....r...V....|y
    d6a0:	6f02022a 1a1a1a2c 1d000002 1a8e241c     *..o,........$..
    d6b0:	007c1a1a 000c4c0a 1a1a1a2c a739007c     ..|..L..,...|.9.
    d6c0:	1a2c0110 0a75411a 3869a599 251a1a1a     ..,..Au...i8...%
    d6d0:	0010165a 1a1a0d31 0a370d1a 3400007f     Z...1.....7....4
    d6e0:	7f1a1a4c 790dab00 1a218a0a 0e0d001a     L......y..!.....
    d6f0:	1019190f 2e1a8e34 005b0a6c 8e0d0d83     ....4...l.[.....
    d700:	4c4c0b1a 0a000000 001a5100 00000100     ..LL.....Q......
    d710:	1a830100 0001001a 7f30090d 001a8e37     ..........0.7...
    d720:	10100a00 8e7f4c00 0000001a 34061010     .....L.........4
    d730:	00518e37 1000007c 8e065a00 3737008e     7.Q.|....Z....77
    d740:	2e001031 008e9002 10310006 91023100     1.........1..1..
    d750:	0006008e 31001031 008d4503 10000006     ....1..1.E......
    d760:	91033300 795a368a 03000000 5a8a2502     .3...6Zy.....%.Z
    d770:	7c200113 49063406 7f133794 37309473     .. |.4.I.7..s.07
    d780:	9d1e554c 6e6c6c5a 8624023a 2aa44926     LU..Zlln:.$.&I.*
    d790:	9dab9c86 68403f49 9b4f2d16 3f3f8683     ....I?@h.-O...??
    d7a0:	ab204f4f 8a0a316c 259d3f46 31121d86     OO .l1..F?.%...1
    d7b0:	3f3d5699 6c1d4143 99895ca4 a54f243e     .V=?CA.l.\..>$O.
    d7c0:	751da410 3f244624 3d0d434f 3f9d9586     ...u$F$?OC.=...?
    d7d0:	4643463f 02003c12 40463f27 3d09433d     ?FCF.<..'?F@=C.=
    d7e0:	45241074 44433d3d 10783d42 52463f24     t.$E==CDB=x.$?FR

0000d7f0 <pic3_palettes>:
    d7f0:	82ce82c3 82c682c6 82ce82cb c28382ce     ................
    d800:	828282ce 82c682ce 82cec283 82c6c283     ................
    d810:	c283c283 82c3c283 424dc283 424d424d     ..........MBMBMB
    d820:	424d8282 c28382c6 82ce82c6 82ce82ce     ..MB............
    d830:	02498282 82c38282 424d82c3 82c382c6     ..I.......MB....
    d840:	82c682ce 82cbc244 8282424d 424c424d     ....D...MB..MBLB
    d850:	82c382ce 424dc283 82c3c283 c282424d     ......MB....MB..
    d860:	82c682c3 82ce82c3 82ce82c6 c2cf82c6     ................
    d870:	424d028a 424d82ce c28382ce 8282424c     ..MB..MB....LB..
    d880:	82c6c2cf c28382c6 8282c283 82c6c283     ................
    d890:	c28382c6 c283028a 82c6028a 8282028a     ................
    d8a0:	028a028a 424d024c c283c282 82c6c283     ....L.MB........
    d8b0:	424dc283 424d424d 8282424d c2838282     ..MBMBMBMB......
    d8c0:	82c682c6 82c682ce c283c283 8282c283     ................
    d8d0:	c2828282 424d024d 82ce82ce 82cbc283     ....M.MB........
    d8e0:	c286c283 82c3c283 42044204 c2838282     .........B.B....
    d8f0:	82828282 828282c6 028ac283 c283424d     ............MB..
    d900:	028a8282 c2838282 424d028d 8282028d     ..........MB....
    d910:	82c682ce 424dc282 424d8282 82ce82c6     ......MB..MB....
    d920:	424d028a c28382ce 828282ce 424d424d     ..MB........MBMB
    d930:	82ce8282 c2458285 82ce82c6 024d024c     ......E.....L.M.
    d940:	82cfc286 8283424a 424d424c 024c424c     ....JB..LBMBLBL.
    d950:	424d8282 82c682c6 8282028a 024c424d     ..MB........MBL.
    d960:	82c38282 424a028a 82cb82cb c28382cb     ......JB........
    d970:	028bc283 82c6c283 82c3c283 424dc245     ............E.MB
    d980:	82c6424d 8285c244 424d424a 8285424d     MB..D...JBMBMB..
    d990:	424d8282 82828285 8282c282 c283c283     ..MB............
    d9a0:	0249c244 424cc244 c244c245 424d424a     D.I.D.LBE.D.JBMB
    d9b0:	c244424d 8282424d 8285424d 82828282     MBD.MB..MB......
    d9c0:	c282c283 c244c244 8285c244 424d424d     ....D.D.D...MBMB
    d9d0:	82828282 024d028a 8282028a 024d024d     ......M.....M.M.
    d9e0:	0245024d 424d028d 028ac283 424d424c     M.E...MB....LBMB
    d9f0:	c2838282 c2828282 c2828285 424c424c     ............LBLB
    da00:	424c8285 020082c6 424d0249 028a024d     ..LB....I.MBM...
    da10:	82ce82ce 82ce82cf 82c6c283 424cc283     ..............LB
    da20:	82ce4209 c28382c6 02490249 8282424d     .B......I.I.MB..
    da30:	024c8282 424d8282 c28382c6 42090249     ..L...MB....I..B
    da40:	42014201 02494209 8282424a c245424c     .B.B.BI.JB..LBE.
    da50:	024c424c 8282424d 028d424d 82c3424d     LBL.MB..MB..MB..
    da60:	02490249 8282c283 42094209 424d424d     I.I......B.BMBMB
    da70:	82828285 02450245 024c024c 024d024c     ....E.E.L.L.L.M.
    da80:	0245024d 8282424c 4204424d 424c424d     M.E.LB..MB.BMBLB
    da90:	02440244 424d024d 024d024d 024c424d     D.D.M.MBM.M.MBL.
    daa0:	424d8282 424a028a 028a028a 424a024d     ..MB..JB....M.JB
    dab0:	82cec283 424d424a 424a424a 024d424a     ....JBMBJBJBJBM.
    dac0:	024d424d 028a8282 424a424d 424d424d     MBM.....MBJBMBMB
    dad0:	028a8282 c2448285 424d028a c28282cb     ......D...MB....
    dae0:	8285c282 8282c283 c244c283 c244c244     ..........D.D.D.
    daf0:	c245c245 424a424d 028a424d 82ce8282     E.E.MBJBMB......
    db00:	82828282 82c682ce 82c6424d 424d424d     ........MB..MBMB
    db10:	c2838282 c28382c3 024c82c6 82c382c6     ..........L.....
    db20:	8282024c c283c283 024cc283 82ce8282     L.........L.....
    db30:	82c68282 024c024c 82ce82ce c28382ce     ....L.L.........
    db40:	82ce8282 c28382c6 c283028a c283024d     ............M...
    db50:	024c82ce c283424d 82ce424d 424d8282     ..L.MB..MB....MB
    db60:	82c682c6 424d82c6 8282c283 424dc283     ......MB......MB
    db70:	82c382c6 028d82c6 82ce82cb 424d028d     ..............MB
    db80:	82ce82ce 82c682ce c282c283 82cec2ce     ................
    db90:	c2838282 424d8282 82828282 82cec283     ......MB........
    dba0:	82858285 c2458285 c28382c6 c282028a     ......E.........
    dbb0:	c283c283 02444204 c283c244 028a424d     .....BD.D...MB..
    dbc0:	424c8282 02440244 424d024c 424d424d     ..LBD.D.L.MBMBMB
    dbd0:	424d0241 02440241 024c0244 424c0244     A.MBA.D.D.L.D.LB
    dbe0:	02410244 0241024c 02004200 42004200     D.A.L.A..B...B.B
    dbf0:	024c024c 42014201 42004201 42014209     L.L..B.B.B.B.B.B
    dc00:	42000200 028d8285 0249024c 02004201     ...B....L.I..B..
    dc10:	42094201 024c4201 42094209 024c4209     .B.B.BL..B.B.BL.
    dc20:	42010249 0244024c 028d424c 024c424d     I..BL.D.LB..MBL.
    dc30:	02410241 42010244 02490249 424c0249     A.A.D..BI.I.I.LB
    dc40:	424c024c 02414201 424c4201 024c0241     L.LB.BA..BLBA.L.
    dc50:	42010241 42014200 42014201 42004201     A..B.B.B.B.B.B.B
    dc60:	02010201 c2448282 424c8285 02494201     ......D...LB.BI.
    dc70:	02014201 8285c285 02494208 42014209     .B.......BI..B.B
    dc80:	024c0241 024c0249 024c024c 42094209     A.L.I.L.L.L..B.B
    dc90:	028a0244 c28382c6 42010249 8283024c     D.......I..BL...
    dca0:	020082ce 8282c283 c2834209 82ce424d     .........B..MB..
    dcb0:	c28382c3 828582c3 c282c283 02494209     .............BI.
    dcc0:	424d82c3 82c682c3 42090249 82ce024c     ..MB....I..BL...
    dcd0:	82cec282 8282c282 82c6c283 0249424c     ............LBI.
    dce0:	82c38282 c283c283 024c424c 024c424d     ........LBL.MBL.
    dcf0:	02490241 02410241 828382c6 024c0249     A.I.A.A.....I.L.
    dd00:	02410249 024d024c 024c4201 02414201     I.A.L.M..BL..BA.
    dd10:	0241424c 424c424c 4201024c 024c024c     LBA.LBLBL..BL.L.
    dd20:	424d8285 c24482cb 4201024c 42014201     ..MB..D.L..B.B.B
    dd30:	8285c283 424dc283 c244c244 c285c244     ......MBD.D.D...
    dd40:	424d424d 424c424d 024d424d c2838282     MBMBMBLBMBM.....
    dd50:	024c024c 424d024d 82c3c283 024c4209     L.L.M.MB.....BL.
    dd60:	424d82c3 028a0244 02450245 424d82cb     ..MBD...E.E...MB
    dd70:	c283024c 4200024c 02004200 82c3c282     L...L..B.B......
    dd80:	82cbc283 c2838282 424d024c c283424d     ........L.MBMB..
    dd90:	024c8282 82c682c3 82cb82cb 424d024c     ..L.........L.MB
    dda0:	024d024d 82c382ce 82c6c283 c244c244     M.M.........D.D.
    ddb0:	c244c245 c283424a c283424d c2838282     E.D.JB..MB......
    ddc0:	024d8282 828282c3 82cec283 424c424d     ..M.........MBLB
    ddd0:	82c382c3 424c82c3 c28382c6 82c382c6     ......LB........
    dde0:	c286024c 028d024c c283c282 028dc244     L...L.......D...
    ddf0:	024cc244 82c6424d c2838282 0249024c     D.L.MB......L.I.
    de00:	424a0242 424d0244 02490249 c244028b     B.JBD.MBI.I...D.
    de10:	0249024c 424a024d 82cb82ce 428e028e     L.I.M.JB.......B
    de20:	c245c282 8282c244 424dc244 428b424d     ..E.D...D.MBMB.B
    de30:	c244424d c2838282 c244c244 024cc245     MBD.....D.D.E.L.
    de40:	424a8282 c2838282 02450245 424d8285     ..JB....E.E...MB
    de50:	0244024c 024d024d 0245024d c282c244     L.D.M.M.M.E.D...
    de60:	8285c244 024cc245 424a424a c244424c     D...E.L.JBJBLBD.
    de70:	424a424d 024d0245 c244c244 028a424d     MBJBE.M.D.D.MB..
    de80:	024c0244 024d0245 c2448285 8285c241     D.L.E.M...D.A...
    de90:	8282c283 c244c244 c245c244 0244424d     ....D.D.D.E.MBD.
    dea0:	0242424d 8282424d 424d8282 c28382c3     MBB.MB....MB....
    deb0:	82ce82c3 0244424c 424c424d 028a424d     ....LBD.MBLBMB..
    dec0:	424d8282 024c028a 82c3028d 82c6c282     ..MB..L.........
    ded0:	c282c283 028ac286 0249424c 028a8282     ........LBI.....
    dee0:	c28382c3 c283028a 424c024c 424d424d     ........L.LBMBMB
    def0:	424d8283 424d028a 8282c282 82c3c283     ..MB..MB........
    df00:	42044204 424dc245 8283424d 0245424d     .B.BE.MBMB..MBE.
    df10:	82c38282 028a8282 c244c244 c244c245     ........D.D.E.D.
    df20:	028a8285 424d8285 424a4242 c283c282     ......MBBBJB....
    df30:	8285424a 024d424d 8285424d 424a424d     JB..MBM.MB..MBJB
    df40:	82828282 c2838283 8282c283 424d424d     ............MBMB
    df50:	424a82c6 424c0249 82c6028b 424d024c     ..JBI.LB....L.MB
    df60:	024c024d 8285028d 028d028d c282c282     M.L.............
    df70:	424dc282 024c424d 02450245 8282424d     ..MBMBL.E.E.MB..
    df80:	82838282 828282c3 82838283 424d0245     ............E.MB
    df90:	02450245 424d028a 82cb024c 024c4201     E.E...MBL....BL.
    dfa0:	82c3c282 4209424c 8282424d 82828282     ....LB.BMB......
    dfb0:	82c682c6 c28382c6 c283c283 82cec283     ................
    dfc0:	82ce8285 c2448285 028a82c6 024dc282     ......D.......M.
    dfd0:	c286c283 c244c244 c282c244 82824209     ....D.D.D....B..
    dfe0:	82828282 82ce82c6 82ce82ce 82cbc244     ............D...
    dff0:	82c382c3 c28682c6 c283028a 8282028d     ................
    e000:	82c682ce c28682ce 82c3c283 82c6c283     ................
    e010:	8282424a 024c424d c28382c3 c283c283     JB..MBL.........
    e020:	c28382c3 02450245 02440245 82c682c6     ....E.E.E.D.....
    e030:	02000249 82c6024d 424d028d 028dc283     I...M.....MB....
    e040:	424dc244 42044205 8282c286 4205424d     D.MB.B.B....MB.B
    e050:	82828282 c2838282 024c024c c283c283     ........L.L.....
    e060:	42098282 82858282 82858285 424d024c     ...B........L.MB
    e070:	c282024c 42094201 42004201 02004201     L....B.B.B.B.B..
    e080:	424ac283 424d8282 4209024c c283c282     ..JB..MBL..B....
    e090:	424d8282 82c682c6 420982c6 82ce0249     ..MB.......BI...
    e0a0:	024c0249 4209024c 82ce82ce c285c282     I.L.L..B........
    e0b0:	c282c282 8282c282 c283c282 024cc283     ..............L.
    e0c0:	82cec283 c283424d c2858285 c285c285     ....MB..........
    e0d0:	c2858285 82c38285 c2448285 82858285     ..........D.....
    e0e0:	828282c6 c2440249 424c024c c244c282     ....I.D.L.LB..D.
    e0f0:	8285c244 c245c244 c285c285 c2444249     D...D.E.....IBD.
    e100:	c2448282 c285c244 c244c244 c244c285     ..D.D...D.D...D.
    e110:	42040244 024c8285 c2418285 024c024c     D..B..L...A.L.L.
    e120:	02454204 028dc245 42094208 c244424c     .BE.E....B.BLBD.
    e130:	0249424c 024c424d 82828282 82858282     LBI.MBL.........
    e140:	82858282 c2828285 028d8285 c283028a     ................
    e150:	8285028d 424a024d c28282ce 02004201     ....M.JB.....B..
    e160:	8282c282 8282c283 82cec244 024cc244     ........D...D.L.
    e170:	028d424c 82828282 424c8282 c283024c     LB........LBL...
    e180:	42010200 82828282 424c8282 c28382c6     ...B......LB....
    e190:	c283024c 0244024c 424d024c 4201024c     L...L.D.L.MBL..B
    e1a0:	82ce82ce c28382ce 42014201 82c3c283     .........B.B....
    e1b0:	024c4204 024c8282 424c024c 024c4209     .BL...L.L.LB.BL.
    e1c0:	424d8282 c2838283 82828285 4201028a     ..MB...........B
    e1d0:	424d028a 82ce82cb 424c024c 8282024c     ..MB....L.LBL...
    e1e0:	c283024d 02494201 024c4209 024c424c     M....BI..BL.LBL.
    e1f0:	4201424c 8282424d 024c8282 42098285     LB.BMB....L....B
    e200:	024c8282 82828283 02450244 424d0245     ..L.....D.E.E.MB
    e210:	c2838285 42098285 024d0245 024d028b     .......BE.M...M.
    e220:	c244c244 02444204 424c4209 028b428b     D.D..BD..BLB.B..
    e230:	c245424c 024d424d 424d024d 424d424d     LBE.MBM.M.MBMBMB
    e240:	024d8282 02440244 82ce82c6 42090249     ..M.D.D.....I..B
    e250:	0241024c 424d024d 82c382ce 024c82ce     L.A.M.MB......L.
    e260:	82cec282 c286c286 424d424c 0241424c     ........LBMBLBA.
    e270:	02410241 42010241 82c38282 424d424d     A.A.A..B....MBMB
    e280:	82c6c2c7 028b028a 028b424a 82c6028b     ........JB......
    e290:	c286028b 420182ce 82ce8282 024c4201     .......B.....BL.
    e2a0:	028d8282 82ce8282 424a8283 424d0244     ..........JBD.MB
    e2b0:	028a028a 8283028a 8282028a c282028a     ................
    e2c0:	8282028d 82ce82ce 024c4201 82cec283     .........BL.....
    e2d0:	024dc283 42014209 424d424d 0244424d     ..M..B.BMBMBMBD.

0000e2e0 <pic3_data>:
    e2e0:	dddddddd dddddddd dddddddd dddddddd     ................
    e2f0:	dddddddd dddddddd dddddddd ddddeddd     ................
    e300:	dddddddd dddddddd dddddddd dddddddd     ................
    e310:	dddde666 dddddddd dddddddd dddddddd     f...............
    e320:	dddddddd dddddddd dddddddd dddddddd     ................
    e330:	dddddddd dddddddd dddddddd dddddddd     ................
    e340:	dddddddd dddddddd dddddddd dddde666     ............f...
    e350:	dddddddd dddddddd dddddddd dddddddd     ................
    e360:	eeeb5ddd dddddddd dddddddd dddddddd     .]..............
    e370:	dddddddd eeeb4ddd dddddddd dddddddd     .....M..........
    e380:	dddddddd dddddddd ddddeddd dddddddd     ................
    e390:	dddddddd dddddddd dddddddd ddd89eee     ................
    e3a0:	dddddddd dddddddd dddddddd dddddddd     ................
    e3b0:	ddd86fff dddddddd dddddddd dddddddd     .o..............
    e3c0:	dddddddd aaad5aee dddddddd dddddddd     .....Z..........
    e3d0:	dddddddd dddddddd dd87c3ee dddddddd     ................
    e3e0:	dddddddd dddddddd dddddddd ee30cea2     ..............0.
    e3f0:	dddddddd dddddddd dddddddd dddddddd     ................
    e400:	67cab39e dddddddd dddddddd dddddddd     ...g............
    e410:	dddddddd 81e6cb96 dddddddd dddddddd     ................
    e420:	dddddddd dddddddd bd28777e dddddddd     ........~w(.....
    e430:	dddddddd dddddddd eddddddd 1d6ebffd     ..............n.
    e440:	dddddddd dddddddd dddddddd 1eeedddd     ................
    e450:	6e835f1c ddddddd6 dddddddd dddddddd     ._.n............
    e460:	bedddddd 3d7b8ca7 ddddeee4 dddddddd     ......{=........
    e470:	dddddddd d488dddd 3f7bcfdb ddddeefc     ..........{?....
    e480:	dddddddd dddddddd bd55dddd 46fe9ee5     ..........U....F
    e490:	ddddeec1 dddddddd dddddddd 5f66dddd     ..............f_
    e4a0:	01bea9e2 dddd88c2 dddddddd dddddddd     ................
    e4b0:	1d65dddd c6586d54 ddddee28 dddddddd     ..e.TmX.(.......
    e4c0:	dddddddd 8fe6dddd c6c7ead3 ddddee28     ............(...
    e4d0:	dddddddd dddddddd bf99dddd 730eeadc     ...............s
    e4e0:	ddddcced dddddddd dddddddd eb66dddd     ..............f.
    e4f0:	6cac7888 ddddee25 dddddddd dddddddd     .x.l%...........
    e500:	6cd9cbbb 0ebbfff6 ddddaad9 dddddddd     ...l............
    e510:	dddddddd 2bdfda99 f6a488c8 f9ffaa4c     .......+....L...
    e520:	dddddddd dddddddd 7fdae4aa f6a4000f     ................
    e530:	d5dd55f7 dddddddd dddddddd 14fde4b2     .U..............
    e540:	efff8888 f7c22b7d dddddddd dddddddd     ....}+..........
    e550:	eb537b9e 4d95fff9 f7c22b7e dddddddd     .{S....M~+......
    e560:	dddddddd 6f5aae76 6d670dad ed8655e4     ....v.Zo..gm.U..
    e570:	ddddfff9 dddddddd 889ec896 5f7ca7f6     ..............|_
    e580:	f50d78fb ddddeee3 dddddddd 85eda63c     .x..........<...
    e590:	fd0bb7d3 e80d52e9 ddddeee3 dddddddd     .....R..........
    e5a0:	12ddaf3e 954d6c1f 65fc27e8 ddddeee2     >....lM..'.e....
    e5b0:	dddddddd 2d7d66ed d93c6c1f d5fc71c5     .....f}-.l<..q..
    e5c0:	ddddeee2 dddddddd c1af764d c97e0c1f     ........Mv....~.
    e5d0:	f0a54ec8 ddddeee2 dddddddd b5e6f6d9     .N..............
    e5e0:	6c0df4c7 ef96a90c ddddaaad dddddddd     ...l............
    e5f0:	5deb839c f2befe89 be8959fe ddddeee8     ...].....Y......
    e600:	dddddddd e1b679fb 1eeedd9d ad0bfbe7     .....y..........
    e610:	ddddeeec dddddddd 53d7f68c d11178d1     ...........S.x..
    e620:	c5a79b5e ddddff9b dddddddd dd97f6db     ^...............
    e630:	bcbce331 a8c49d18 ddddfffc dddddddd     1...............
    e640:	8c5f5cae ad77a8d3 87c587fd dddddddc     .\_...w.........
    e650:	dddddddd 1f480c1d 3e33bbbe f7b19fae     ......H...3>....
    e660:	ddddddd2 dddddddd bfcd2cae dfddff7f     .........,......
    e670:	f42eca65 dddddddc dddddddd 2ebc0d2f     e.........../...
    e680:	000e956d 70c333e3 ddddfffd dddddddd     m....3.p........
    e690:	1f8fc7cd 644c8d73 619f77ae ddddeeec     ....s.Ld.w.a....
    e6a0:	dddddddd 3f768e4f ae0dc8bf fffe6ad3     ....O.v?.....j..
    e6b0:	ddddfffe ddd6dddd 7e8382bf 6fdec45f     ...........~_..o
    e6c0:	bbbfbdd1 ddddfffb eee2dddd f0cf02f5     ................
    e6d0:	ef72934d bebaa4bc dddddddc eeeedddd     M.r.............
    e6e0:	a19c0eb3 7b4fdb39 b39fd4f7 ddddd4dc     ....9.O{........
    e6f0:	ccb3dddd bfc23f4e e85f41af 7fcabf3e     ....N?...A_.>...
    e700:	dddde6fd f5b9dddd e09b4087 ee0bcccc     .........@......
    e710:	d26cf7ee ddddfac9 ffffdddd e087ccc0     ..l.............
    e720:	fff5e444 3fa0f5ff eee511fc 0cf7dddd     D......?........
    e730:	b6eec68f 88889fec 2c22fd03 eee783c2     ..........",....
    e740:	cb7fdddd 8dd05c29 ffff3fff a9fe37d1     ....)\...?...7..
    e750:	eee95ebc ffe2dddd 4f1bf015 11003788     .^.........O.7..
    e760:	f51bf13f ddd86c70 fff2dddd 81e195fb     ?...pl..........
    e770:	22fad243 8b4e9d9d 5eecac29 8882dddd     C.."..N.)..^....
    e780:	ecc6a756 aa3ed851 ad5cc6d6 5ee782ea     V...Q.>...\....^
    e790:	9c12dddd 7118a65e ac3dd851 9ec086af     ....^..qQ.=.....
    e7a0:	eeec8b2c 7ceffefe 7ff7630e a43d5f74     ,......|.c..t_=.
    e7b0:	ad5ecf3e efd52b1d eaf2eadd f9bf1f98     >.^..+..........
    e7c0:	a43dfecf e5dbaf3e 675fce27 eaf2faad     ..=.>...'._g....
    e7d0:	6ff6964d aa3d1ecf 24ebce3e c310ce27     M..o..=.>..$'...
    e7e0:	eaf2faa8 6ff696fe aa3d1ecf 20ebcf3e     .......o..=.>.. 
    e7f0:	ead98f63 1af2332c 7ff6952e 2a3d5f93     c...,3......._=*
    e800:	df63cf30 ac6e3f63 86cafffe 8ccd6e1d     0.c.c?n......n..
    e810:	ee553f5f a0c26036 ea8e7ea7 6ee287fe     _?U.6`...~.....n
    e820:	db1b68d2 dd18d98a eb3276ac 213fe390     .h.......v2...?!
    e830:	0f46c865 df6c90d1 d279cbaf c7595d47     e.F...l...y.G]Y.
    e840:	ed473b4d 0d459bca 5d3f4c6b e6879fb3     M;G...E.kL?]....
    e850:	f8e48b7f ba9e3e0f 972edaf8 367f24d3     .....>.......$.6
    e860:	bd7ccd7e bfd7de7c 5c6b32f6 3d4eedf5     ~.|.|....2k\..N=
    e870:	6e33e093 f659613f e408e6da 5c78ba4c     ..3n?aY.....L.x\
    e880:	fdb872f3 8e3f1f6e 8da9872e 45bd5bed     .r..n.?......[.E
    e890:	77ec21be 8eee96cb 3fb93f72 8d6958fe     .!.w....r?.?.Xi.
    e8a0:	030eeb98 774cdddf f8cc8e43 af120cff     ......LwC.......
    e8b0:	d798ac37 076f2dca 4ee3b9f9 ad4cf58c     7....-o....N..L.
    e8c0:	ef5825ff 7dcb0c3b 23ed5a9d 67fa5e44     .%X.;..}.Z.#D^.g
    e8d0:	2e54847e 467cebcc ced93f65 55f4a2d0     ~.T...|Fe?.....U
    e8e0:	2bdec755 d00cb81c 6db5777e 3f33bbbb     U..+....~w.m..3?
    e8f0:	56fc239f 1c09f123 6de8c69d 29c8ddd9     .#.V#......m...)
    e900:	fa004eed 65bfef98 df32fbda 8faa9df4     .N.....e..2.....
    e910:	2ec58f8e f600fbdf 88de599f 72ccd248     .........Y..H..r

0000e920 <pic2_paletteIndexTable>:
    e920:	202e2e20 20042005 22202005 05050522      .. . . .  ""...
    e930:	23052005 05222220 05052005 22222305     . .# "".. ...#""
    e940:	0505053a 2005053c 20332222 05202005     :...<.. ""3 .  .
    e950:	2e221d05 202333a6 1d202307 33a62222     .."..3# .# ."".3
    e960:	20072023 2e201d1d 0523073a 1d1d2005     # . .. .:.#.. ..
    e970:	07052e20 20390520 22201d1d 0520073a      ... .9 .. ":. .
    e980:	1d1d2033 ae362205 20052305 22201d1d     3 ..."6..#. .. "
    e990:	2005aea9 1d1d2005 ae872222 ae302305     ... . ..""...#0.
    e9a0:	22221d1d 0505263d 1d1d263d 253d2222     ..""=&..=&..""=%
    e9b0:	05620505 22221d1d 0505333d 1d1da462     ..b...""=3..b...
    e9c0:	05bd2222 5b642005 2e221d1d 2005253d     ""... d[..".=%. 
    e9d0:	1d20b963 20052204 26262020 04201d20     c. ..".   && . .
    e9e0:	2f30333d 1d20ae61 a73d2022 05632f30     =30/a. ." =.0/c.
    e9f0:	05222320 5a3016b4 20232008 72150522      #"...0Z. # "..r
    ea00:	a639333a 22222020 0706125d 20233639     :39.  ""]...96# 
    ea10:	b90c3022 8439a338 22222023 90a2a70e     "0..8.9.# ""....
    ea20:	20208305 12298720 4e64333a 22202020     ..   .).:3dN   "
    ea30:	53450d60 23ae0c46 25023005 005a5d80     `.ESF..#.0.%.]Z.
    ea40:	040523ae 7690900e 23200016 45a03320     .#.....v.. # 3.E
    ea50:	001f0c08 20042320 0c161d2b 23201c7d     .... #. +...}. #
    ea60:	84010704 0a1d0205 b02023ae 0c0c684d     .........# .Mh..
    ea70:	23200032 0c5aa720 1d75494c 362023ae     2. # .Z.LIu..# 6
    ea80:	0d1568a7 23200000 2cb12020 60004c80     .h.... #  .,.L.`
    ea90:	362020ae 4f000245 233a0c40 02729c3a     .  6E..O@.:#:.r.
    eaa0:	0c150047 52392339 00487daa 05360000     G...9#9R.}H...6.
    eab0:	005d0539 0ca9680e 1520239b 005d0c75     9.]..h...# .u.].
    eac0:	23b11008 7d8c1520 0078006b 4820235a     ...# ..}k.x.Z# H
    ead0:	64088f8c 206e686a c1b98439 53b87860     ...djhn 9...`x.S
    eae0:	12390572 b3720229 050c0f1d 084949b0     r.9.).r......II.
    eaf0:	4d5ebd7d 49ae204c 70b56b0e 05305329     }.^ML .I.k.p)S0.
    eb00:	6b92491d 530cb43d 6062055c c1604c23     .I.k=..S\.b`#L`.
    eb10:	05a05312 14146d34 12021414 8ca3055c     .S..4m......\...
    eb20:	40671209 05591500 0000015d 0c000014     ..g@..Y.].......
    eb30:	142b0752 00150200 5a190000 02295d7d     R.+........Z}]).
    eb40:	6b420c6b 26723077 55004c86 26050000     k.Bkw0r&.L.U...&
    eb50:	011901c0 0000ad00 006342b8 880c8475     .........Bc.u...
    eb60:	436e0048 0c760084 000c5600 0c264372     H.nC..v..V..rC&.
    eb70:	a276797c 468c0c0c 29192c84 0c680c88     |yv....F.,.)..h.
    eb80:	14c14eb5 0f291400 43806556 01005d2c     .N....).Ve.C,]..
    eb90:	028c7629 4caa4000 4f422b5a 7d0c6ba0     )v...@.LZ+BO.k.}
    eba0:	2c766e3e 5b430f43 aabd190c 4f4c0000     >nv,C.C[......LO
    ebb0:	40002946 88004c00 4c46294c 862c432c     F).@.L..L)FL,C,.
    ebc0:	0c684b8c 41764c4e 005a29a0 9f660000     .Kh.NLvA.)Z...f.
    ebd0:	003d7600 c1406829 761d1268 005d0019     .v=.)h@.h..v..].
    ebe0:	004e7915 4f3d7600 8849498e 75534980     .yN..v=O.II..ISu
    ebf0:	004f0013 0f7c4f6b 8c29680f 299f4c4f     ..O.kO|..h).OL.)
    ec00:	110d0f48 6c4019b5 6d405580 368f9b6e     H.....@l.U@mn..6
    ec10:	989798bc 9bb89697 18939355 53944092     ........U....@.S
    ec20:	92939294 0f0f0f3f 92940f0f 0f0f3f0f     ....?........?..
    ec30:	2d2d9c0f 0f3e0f9c 0f0f0f0f 0f9c0f0f     ..--..>.........

0000ec40 <pic2_palettes>:
    ec40:	8285c282 024d424a 424a424b c243424b     ....JBM.KBJBKBC.
    ec50:	424b424b 028b424b 424d424d 424d420d     KBKBKB..MBMB.BMB
    ec60:	024a024a 424a024a 024d024a 024a024d     J.J.J.JBJ.M.M.J.
    ec70:	024d024d 024a424a 424a424a 024a424b     M.M.JBJ.JBJBKBJ.
    ec80:	024a4205 420d024a 424ac28b 424b420d     .BJ.J..B..JB.BKB
    ec90:	024d8282 424a024d 424ac242 024d420d     ..M.M.JBB.JB.BM.
    eca0:	024cc242 82cec242 82cec283 82cec286     B.L.B...........
    ecb0:	424bc286 c28bc28b c283c28b 420d420c     ..KB.........B.B
    ecc0:	82cb82cb 024a024d 8283c283 424b424a     ....M.J.....JBKB
    ecd0:	028b8283 c28b8283 c283c283 c242c283     ..............B.
    ece0:	82cbc283 028ac283 424dc286 82cbc286     ..........MB....
    ecf0:	c242420d 8283c243 024d424a 424a424b     .BB.C...JBM.KBJB
    ed00:	424a8283 82838283 8283024d 8283c243     ..JB....M...C...
    ed10:	024d424a 024a424a 8283424a 424a424b     JBM.JBJ.JB..KBJB
    ed20:	8282c28b 024d420d 024a424d 424ac243     .....BM.MBJ.C.JB
    ed30:	424a424a 424b424a c243424a 424b424b     JBJBJBKBJBC.KBKB
    ed40:	c2438282 424b8283 82828283 c28b82cb     ..C...KB........
    ed50:	420d024d 420cc283 028b424a c283424a     M..B...BJB..JB..
    ed60:	82828282 424b028b 424ac243 8283424b     ......KBC.JBKB..
    ed70:	82838283 024d8283 8282028a 028b028b     ......M.........
    ed80:	8282c283 8283c243 024d4204 c283c286     ....C....BM.....
    ed90:	c286424b 424a024d 82cbc283 424a424a     KB..M.JB....JBJB
    eda0:	024c8285 024d024a c28b82cb 024d024d     ..L.J.M.....M.M.
    edb0:	024a024d 420d024d 82cbc283 024d424a     M.J.M..B....JBM.
    edc0:	420d424a 024d424d 420c420d 024a8282     JB.BMBM..B.B..J.
    edd0:	424a024d c283c283 8283c283 424a424a     M.JB........JBJB
    ede0:	024a8282 82838285 82858285 82850249     ..J.........I...
    edf0:	02490249 420d024a 8282c242 c283c282     I.I.J..BB.......
    ee00:	8286424a 82838283 424a028a 024a024a     JB........JBJ.J.
    ee10:	424b8283 82838283 424a8283 82838286     ..KB......JB....
    ee20:	82868286 024a024a 424a028a 420c024c     ....J.J...JBL..B
    ee30:	424d024c 82c682ce 8283c243 8282c243     L.MB....C...C...
    ee40:	82ce82ce c283c283 424a424a 424b424a     ........JBJBJBKB
    ee50:	c28e8282 c2838282 c28282cb 024d024c     ............L.M.
    ee60:	c28e024c c283c286 c242424a 82cbc28b     L.......JBB.....
    ee70:	82cb82cb c28b82cb 82ce82cb c28bc28b     ................
    ee80:	82828282 c283c283 82cbc283 024a424a     ............JBJ.
    ee90:	c28ac28a 8283424b c28ac28b c282c28b     ....KB..........
    eea0:	424a024a 82ce82ce 82cb82ce 82cec283     J.JB............
    eeb0:	024a024a c242024a 82ce82cb 82cb82cb     J.J.J.B.........
    eec0:	420c024d 024d82ce c283c282 c243424b     M..B..M.....KBC.
    eed0:	424d024d 424a024d 424b424a 8282424a     M.MBM.JBJBKBJB..
    eee0:	420c8282 424b8283 c243024a 424c424a     ...B..KBJ.C.JBLB
    eef0:	424d424c 424d424d c245424d 424a024a     LBMBMBMBMBE.J.JB
    ef00:	024d024d 424a424a 024a424a 024d424d     M.M.JBJBJBJ.MBM.
    ef10:	024a8282 024d8283 424a024a 82ce82cb     ..J...M.J.JB....
    ef20:	024d028b 424a82ce 024dc283 8283424a     ..M...JB..M.JB..
    ef30:	c243424a 4205424a c2828282 c242424a     JBC.JB.B....JBB.
    ef40:	c282c282 c28bc282 424ac243 c28bc28a     ........C.JB....
    ef50:	c28ac28a c282c28a c242424a 424a424a     ........JBB.JBJB
    ef60:	c283c28b c2828282 82cb82cb 024d024d     ............M.M.
    ef70:	82cb82ce c283424a 424a424b c28bc28b     ....JB..KBJB....
    ef80:	c2828282 c28b82cb 420d024d 8282c282     ........M..B....
    ef90:	c282c283 420d424a 024d424b 8282c28e     ....JB.BKBM.....
    efa0:	82cb82cb 024d024d c28bc283 82cbc28b     ....M.M.........
    efb0:	024d8282 82ca82cb 02494208 8283424a     ..M......BI.JB..
    efc0:	c286424a 82cec28b c28ac28b c283424c     JB..........LB..
    efd0:	82cbc28e 8282c283 c283c283 c28bc28b     ................
    efe0:	82828282 424d8282 c2828282 c28382c3     ......MB........
    eff0:	424a8283 82c382cb c28b82cb 8283024d     ..JB........M...
    f000:	82cec282 c283c283 8282c283 82cb82cb     ................
    f010:	c28382cb c283c282 c28bc28b c283c28b     ................
    f020:	c2438283 424a024a 82cb82cb 828282ce     ..C.J.JB........
    f030:	424a424a 82cbc28b 8283c28b 8283424d     JBJB........MB..
    f040:	424a8282 82828285 424a024d 024d024d     ..JB....M.JBM.M.
    f050:	82838282 82828282 024a8283 82828283     ..........J.....
    f060:	c2458285 420c024c 024c024c 024dc242     ..E.L..BL.L.B.M.
    f070:	82838283 8283424a 424a424b 424d424d     ....JB..KBJBMBMB
    f080:	c243024d 8283c283 c282c283 8286424a     M.C.........JB..
    f090:	c283424a 024a424a 424d424a c243424b     JB..JBJ.JBMBKBC.
    f0a0:	c2838282 424a024a 024d024a 024d024d     ....J.JBJ.M.M.M.
    f0b0:	024d8282 c2438283 c28382cb 424d024c     ..M...C.....L.MB
    f0c0:	c242c243 c28bc283 424b424a 024d420c     C.B.....JBKB.BM.
    f0d0:	424b024a 424a024d 024d424a 8283424b     J.KBM.JBJBM.KB..
    f0e0:	424b8286 424a024a 420d024d 424d024d     ..KBJ.JBM..BM.MB
    f0f0:	8282c283 42044204 8283424a 424b424b     .....B.BJB..KBKB
    f100:	424a8283 024d024d 024a424b 8282424d     ..JBM.M.KBJ.MB..
    f110:	424b8283 8283024d c283c242 424d424a     ..KBM...B...JBMB
    f120:	024d424b 8283424b 424d424d 024c424d     KBM.KB..MBMBMBL.
    f130:	424a8282 024a024d 424b424a 424a424a     ..JBM.J.JBKBJBJB
    f140:	82858285 424a024a 424b028b c28e82cb     ....J.JB..KB....
    f150:	024a4204 8286424b 424a420d c282424d     .BJ.KB...BJBMB..
    f160:	424a424d 82838283 8282424a 424b424b     MBJB....JB..KBKB
    f170:	82838283 82828285 c243024d 8283c242     ........M.C.B...
    f180:	8285c245 420c4209 424b424a 028b424b     E....B.BJBKBKB..
    f190:	424b424b c245424d c283424d 82828283     KBKBMBE.MB......
    f1a0:	424dc245 8282424a 424a424b 424d424d     E.MBJB..KBJBMBMB
    f1b0:	424d8283 424d028a 028a028a c245c245     ..MB..MB....E.E.
    f1c0:	024c424c 424d424c 424a424d 424b424d     LBL.LBMBMBJBMBKB
    f1d0:	c242424d 82828283 024d024d 424dc242     MBB.....M.M.B.MB
    f1e0:	82828283 82cb82cb 024d024d c283c242     ........M.M.B...
    f1f0:	424dc242 c283c282 8283c243 82cbc283     B.MB....C.......
    f200:	424d424a c242424a 8283424b 024a024a     JBMBJBB.KB..J.J.
    f210:	424d024c 424d024d 424a424a c283c28b     L.MBM.MBJBJB....
    f220:	420d024a 024c024c 420c024d 82ce82ce     J..BL.L.M..B....
    f230:	024d82ce c283424a c28b424d c286424d     ..M.JB..MB..MB..
    f240:	024a024a 024a424a 024d424a 8283424a     J.J.JBJ.JBM.JB..
    f250:	c2868282 424a8282 c2868283 420d024d     ......JB....M..B
    f260:	424bc242 c286424a c243424b c242424d     B.KBJB..KBC.MBB.
    f270:	424d424d 424a024a 424a424a 024d424d     MBMBJ.JBJBJBMBM.
    f280:	424d8283 424a024a 424b024a 82cb82cb     ..MBJ.JBJ.KB....
    f290:	82ce82cb c24282ce 82c382ce c242c283     ......B.......B.
    f2a0:	024dc243 024a4205 4205c286 024d424a     C.M..BJ....BJBM.
    f2b0:	024d424d 424b024d 424ac286 424a424a     MBM.M.KB..JBJBJB
    f2c0:	028b8283 024a8283 424b8283 8283028b     ......J...KB....
    f2d0:	424b024d c243c243 424a4205 424ac286     M.KBC.C..BJB..JB
    f2e0:	8283424a 024d420c 82838283 c283c286     JB...BM.........
    f2f0:	424a424a 424b424b c243424b 024d424b     JBJBKBKBKBC.KBM.
    f300:	024a028b 424a028b 024a024d 424bc243     ..J...JBM.J.C.KB
    f310:	424bc283 c283c286 c283424d 8283420d     ..KB....MB...B..
    f320:	424a8283 82838283 024d024d 424a424b     ..JB....M.M.KBJB
    f330:	024c8283 8283024d 8282024d 42014201     ..L.M...M....B.B
    f340:	c242c242 424dc242 024d420c 4209424d     B.B.B.MB.BM.MB.B
    f350:	8283424d 024a024a 024dc242 82cbc283     MB..J.J.B.M.....
    f360:	c2428282 c2828283 024a024a 82ce82cb     ..B.....J.J.....
    f370:	c283024d 024dc242 424ac283 c28bc283     M...B.M...JB....
    f380:	424dc283 82cbc283 424dc245 8282424a     ..MB....E.MBJB..
    f390:	420d420d 424a424a 024a424a 424a424b     .B.BJBJBJBJ.KBJB
    f3a0:	424a8286 424b024a c28382cb 420c024d     ..JBJ.KB....M..B
    f3b0:	424d024d c28382ce c283c283 024a424a     M.MB........JBJ.
    f3c0:	424d424a 424b424b 424a024d c286424a     JBMBKBKBM.JBJB..
    f3d0:	c283424a 424a424a 424b424a 424a424b     JB..JBJBJBKBKBJB
    f3e0:	c243024a 424b024d 8283024d 424a4201     J.C.M.KBM....BJB
    f3f0:	424ac283 8283c283 424ac286 024c424a     ..JB......JBJBL.
    f400:	c286424a 4201424d 424a024d 8283424a     JB..MB.BM.JBJB..
    f410:	424a8282 82868283 82c382cb 024a028b     ..JB..........J.
    f420:	424a024d 024ac283 c243c243 c283c283     M.JB..J.C.C.....
    f430:	8283424a c283424a 424b424b 028b424b     JB..JB..KBKBKB..
    f440:	c2838282 424a8283 424a024a 82cbc283     ......JBJ.JB....
    f450:	024a8282 82838283 c2868286 424b024a     ..J.........J.KB
    f460:	c28382cb 028a024d 424d4201 8283c286     ....M....BMB....
    f470:	028b424a 8286424b 424d8282 024d420d     JB..KB....MB.BM.
    f480:	424d8282 82cb82cb 424a82ce 42044204     ..MB......JB.B.B
    f490:	420c424a 8283424a 024a424b 8283424b     JB.BJB..KBJ.KB..
    f4a0:	424b424b 424a420d 024d420d 024a420d     KBKB.BJB.BM..BJ.
    f4b0:	024ac28e 024a024a 424a424a 424d424d     ..J.J.J.JBJBMBMB
    f4c0:	024a024a 424a024c 424a024d 028ac283     J.J.L.JBM.JB....
    f4d0:	024a424a c282c28a 424a424a c283424a     JBJ.....JBJBJB..
    f4e0:	c28bc28b 82cbc28b c28ac28b 424a424d     ............MBJB
    f4f0:	424b424d 424d424a 024d424b 424d424d     MBKBJBMBKBM.MBMB
    f500:	c2868283 420c024d 024d024d 42044201     ....M..BM.M..B.B
    f510:	8283c283 8282c283 024c424a 424d424a     ........JBL.JBMB
    f520:	024d424b 420c420c 024d424d 424d424d     KBM..B.BMBM.MBMB
    f530:	c283c28e 82828282 424b424a 424b424b     ........JBKBKBKB
    f540:	420c8282 82ce8283 c2838285 8283024a     ...B........J...
    f550:	424d024c c283024c 424b024d 024c024d     L.MBL...M.KBM.L.
    f560:	c283c283 c243424a 424b424a 024a424b     ....JBC.JBKBKBJ.
    f570:	82cbc28b c242424b 82828282 424b424b     ....KBB.....KBKB
    f580:	82828282 82858282 02008282 82828285     ................
    f590:	82858285 c2458285 024a024a 4209024c     ......E.J.J.L..B
    f5a0:	024c024c c245c245 42094208 42084209     L.L.E.E..B.B.B.B
    f5b0:	424b424b c245424d 024c8282 8282024c     KBKBMBE...L.L...
    f5c0:	8282024c c28682ce c28ec283 c286c283     L...............
    f5d0:	c286c286 82c3c286 424dc286 8282c286     ..........MB....
    f5e0:	8283c286 42094209 c283424a 0249424c     .....B.BJB..LBI.
    f5f0:	424a424d 8283c28e 024c8282 424dc283     MBJB......L...MB
    f600:	c2838282 82828282 c2458282 024c8282     ..........E...L.
    f610:	c2838283 c28382c6 c283c242 424cc282     ........B.....LB
    f620:	c283c283 82cec283 024cc283 424dc283     ..........L...MB
    f630:	8282424c 8282424d 424d8283 c282c282     LB..MB....MB....
    f640:	82838283 028b024a 424a028a 8283028a     ....J.....JB....
    f650:	424a028b 024a024d c282c282 424bc243     ..JBM.J.....C.KB
    f660:	024dc243 8283424a c28b424a 424d424d     C.M.JB..JB..MBMB
    f670:	420c8282 424b8282 424d8283 8283424b     ...B..KB..MBKB..
    f680:	c2428283 424d8286 c28382cb 82c382cb     ..B...MB........
    f690:	424ac283 c283c28b c242424d 8286424d     ..JB....MBB.MB..
    f6a0:	c283424d 82cb82cb 82cb82ce c242424a     MB..........JBB.
    f6b0:	82ce8283 82cb82cb c28282cb 82cb82ce     ................
    f6c0:	c28382ce c242c242 c242424a 8282c28b     ....B.B.JBB.....
    f6d0:	c282c28b 8282420c c28e424d c2458282     .....B..MB....E.
    f6e0:	024d024a 424a024a 424a424a c28bc28b     J.M.J.JBJBJB....
    f6f0:	c2458282 424b028a 028b028b 424b028b     ..E...KB......KB
    f700:	024dc242 c243c283 424ac243 c28bc28a     B.M...C.C.JB....
    f710:	8282c28a 024c420c 424d424d 8283424d     .....BL.MBMBMB..
    f720:	82cb82cb 828282cb 82ce82cb 024d024c     ............L.M.
    f730:	c283024c c242024d 424dc243 82c6c283     L...M.B.C.MB....
    f740:	c282c283 424a424b c242420c c243424d     ....KBJB.BB.MBC.
    f750:	82ce82c6 82ce82ce 82cb82ce 424ac242     ............B.JB
    f760:	82ce8282 424a8283 c28b82cb 8285024c     ......JB....L...
    f770:	024d4201 024d424a 8282c28b c28bc28b     .BM.JBM.........
    f780:	c283c28e 82838282 8282424a 424a424a     ........JB..JBJB
    f790:	82838282 424a8282 420c8282 82cb82cb     ......JB...B....
    f7a0:	424d024d 424dc242 420dc242 424ac282     M.MBB.MBB..B..JB
    f7b0:	c282c242 8282c245 c286c245 8283c286     B...E...E.......
    f7c0:	424d4209 8282424a c2838282 424a424a     .BMBJB......JBJB
    f7d0:	82c30200 c2838282 c2868283 c242024a     ............J.B.
    f7e0:	82cb82ce 82c3c283 c286c283 424bc243     ............C.KB
    f7f0:	82cec283 424a424a 024a424b 4200424d     ....JBJBKBJ.MB.B
    f800:	024c424d 82cbc28e 024d024d 424a024d     MBL.....M.M.M.JB
    f810:	82c382c6 024d024a 828282cb 424a024d     ....J.M.....M.JB
    f820:	024d024d c28382ce 424d4201 8282c282     M.M......BMB....
    f830:	c283c283 424bc283 024a424a c283424b     ......KBJBJ.KB..
    f840:	82cbc28b 424a8282 c2828283 424ac283     ......JB......JB
    f850:	424a0201 424a8282 c2838283 c2828283     ..JB..JB........
    f860:	82838286 c24382c6 024a024a 8283024a     ......C.J.J.J...
    f870:	82cb82cb 424ac283 4205c283 424a4205     ......JB...B.BJB
    f880:	024d424a 8283424a 0201424a 0201424d     JBM.JB..JB..MB..

0000f890 <pic2_data>:
    f890:	cccdfcbf cccb8ccd ffdccccc fdb1addd     ................
    f8a0:	cecccc99 ccccdcff ccc9fccc 99cccccc     ................
    f8b0:	dccbc999 00e2ccc9 ccccfcbf ccc9fccc     ................
    f8c0:	fdcccccc ccc9c999 20e2cccc cccce443     ........... C...
    f8d0:	cc999dee 9ccccccc cccc4d66 000ecccc     ........fM......
    f8e0:	cccce743 cbff7ec3 dccccccc ccccdcff     C....~..........
    f8f0:	cccccccc bccce754 cf3ef611 dccc000e     ....T.....>.....
    f900:	d2e0c441 cccc0ccc 7ccce774 ccfefc11     A.......t..|....
    f910:	dccc000e 0ecbc441 cccccccc bcccfbfc     ....A...........
    f920:	444c9cbb cccc0e20 0cc46ccc cccccccc     ..LD ....l......
    f930:	bcccffdc 444ccccc ccccc0ec 0cc4cfff     ......LD........
    f940:	cccccccc ccccffdc 444c0cbb ccccc0ec     ..........LD....
    f950:	0ec5efcc cccccccc cccc9ccc e224143f     ............?.$.
    f960:	00edcccc 0e096ccc cccccccc ccccfdcc     .....l..........
    f970:	e2d44c7f ccc0cccc 0ec969cc cccccccc     .L.......i......
    f980:	cccce777 ed051fdc 000ecccc d0d5b8fa     w...............
    f990:	cccccccc cccccc77 261c8c39 cccccccc     ....w...9..&....
    f9a0:	671df766 cccccccc ccccc775 6a7cff09     f..g....u.....|j
    f9b0:	cccccccc cc715dbb cccccccc ccccc775     .....]q.....u...
    f9c0:	0ce98ea9 cccccccc 99cb6dbc cccccccc     .........m......
    f9d0:	ccccce77 cc63412c ccdccccc ff9cbe33     w...,Ac.....3...
    f9e0:	cccccccc bccc7c77 ba7c8e02 cbdccccc     ....w|....|.....
    f9f0:	44ca1f87 cccc00ec 7ecedddd ccfad2a9     ...D.......~....
    fa00:	cccbdccc 72d44d67 cccc00ec ddddfffd     ....gM.r........
    fa10:	cf5d5f32 eee50ffa 0ea9ebff cccc00cc     2_].............
    fa20:	cbff7c77 f14c5c36 ec54005f cc51cb77     w|..6\L._.T.w.Q.
    fa30:	eddd00cc c9997ce7 26d735e7 1f750fff     .....|...5.&..u.
    fa40:	cc82e700 cc00dde0 c999cce5 94de5dd6     .............]..
    fa50:	c5eb9fe6 22e381ff cc0000c0 777ccce5     ......."......|w
    fa60:	edffdee3 4a9eeee8 ce8781ff cc00dd0e     .......J........
    fa70:	ff34cce7 df97f708 dec266bd 005eb2ff     ..4......f....^.
    fa80:	cc00dde0 c77cc754 46ee379d c196cbda     ....T.|..7.F....
    fa90:	df3d1dec cc000c00 cc9efdcc e332bed4     ..=...........2.
    faa0:	f1a24cf9 ee791d03 cc000c00 ce7eccbd     .L....y.......~.
    fab0:	fe99d10f ab8ee8ad cf1facb9 0eddd0dc     ................
    fac0:	3f0fcc99 e948020c beecf483 e9a8eb2f     ...?..H...../...
    fad0:	0eddd0d7 ddedc999 2daf757d bdfefa8c     ........}u.-....
    fae0:	ee9913ed 00ed0c01 3f83dfff 4ce9097c     ...........?|..L
    faf0:	6c7cf326 e8b86b5d 00ed0c01 dcffdddd     &.|l]k..........
    fb00:	dbfe635e 7dc3fffd e471adf9 00ed0c06     ^c.....}..q.....
    fb10:	11c1dddd f49d48ae 004f33d4 99e842de     .....H...3O..B..
    fb20:	000ed0d1 fbdefdcc cfdcbbbf dfccdcd5     ................
    fb30:	ed8d6a3e 0edd0c01 f967dccc c5dc8e6f     >j........g.o...
    fb40:	0c55effd be0ad2e3 0d2ed0d8 02d3fcbd     ..U.............
    fb50:	c1e85de7 dac8333f 3ee94fae dde2c0a7     .]..?3...O.>....
    fb60:	c16ffcfd 65cb3fdc 0fcf2c74 ae534fee     ..o..?.et,...OS.
    fb70:	000e0e53 5ee2effd d9f476ea 2f31d9bd     S......^.v....1/
    fb80:	bc0cc6bc edddbb9d f8e8cbbb f216d2e6     ................
    fb90:	deeedd8e 1ccc3c35 edd0ff26 976f53af     ....5<..&....So.
    fba0:	e3aba25d 444eff29 e442d194 ccccc92d     ]...).ND..B.-...
    fbb0:	b2f283af 918ddc26 d5ed745f ccbdbc5a     ....&..._t..Z...
    fbc0:	000ed4ca e7852ccb 94f7d517 a8ccccda     .....,..........
    fbd0:	bfcc4ad1 000e4e58 e3333cdc e3a88ef3     .J..XN...<3.....
    fbe0:	24e2fc89 42446ea7 000e3aed d6992fdc     ...$.nDB.:.../..
    fbf0:	7f3a2ef9 2fd03e2b ddaeb3e5 cccb6d2a     ..:.+>./....*m..
    fc00:	3ed78fff 7c696f9e e3c4845c 76f0ba6e     ...>.oi|\...n..v
    fc10:	cccc422c a1d38fff d516abec 96f6db50     ,B..........P...
    fc20:	d0c0fe25 cccc2c79 d27bda65 ce3985bd     %...y,..e.{...9.
    fc30:	fb9edc48 bbcd9ce8 cccb6f01 62fbf02e     H........o.....b
    fc40:	b31ca57c ece96e5b eecdd36c ccccd77b     |...[n..l...{...
    fc50:	d2a3e79c 731c677e 52bccb84 761e000c     ....~g.s...R...v
    fc60:	ccccd668 7fba67eb 42e05c97 9d52592e     h....g...\.B.YR.
    fc70:	769e542d cccca2f5 6c55fc88 5f57757f     -T.v......Ul.uW_
    fc80:	fff55bf7 490f446d cccce663 a4d0f46d     .[..mD.Ic...m...
    fc90:	8c34ddda 07ddc322 75d71ee1 cccc7d12     ..4."......u.}..
    fca0:	f4482d87 c1eee232 eeee5bdb c53feeee     .-H.2....[....?.
    fcb0:	4cb6f12a 5ffb36eb 5f7dc441 9888cbbb     *..L.6._A.}_....
    fcc0:	4eedcc1c 13e4a3d0 2ed1ae52 6d0e0edd     ...N....R......m
    fcd0:	d7ac4f21 06c255fd cde2c6bd ebeffd63     !O...U......c...
    fce0:	d12e76bf f8e6bcca 9be8eee2 2f041d81     .v............./
    fcf0:	647cafec 9c8df921 fa9d8a88 e91998d2     ..|d!...........
    fd00:	acf6b3c7 cbbb1de7 eb66d29a cdb6c7df     ..........f.....
    fd10:	8a14ff4f 6ddedef5 7e296bc1 706cea26     O......m.k)~&.lp
    fd20:	bfc2d99d eee5ffdc ca9fd87b c65ded91     ........{.....].
    fd30:	2f9154db f9e7fea8 cc1dcbe7 01aeb5c0     .T./............
    fd40:	fb618e21 d3dd3ea2 d4cc04bd 7dcc9ccd     !.a..>.........}
    fd50:	f76741e0 7dbf4d98 cd979cab 33f31c90     .Ag..M.}.......3
    fd60:	bcbb93e2 68d556bd 26fe119e 7daafeee     .....V.h...&...}
    fd70:	9e0f2d97 6d46b7ef 57d2cad9 f3afa29c     .-....Fm...W....
    fd80:	5cf4eedb ff29657e ecfdbef4 79ed301d     ...\~e)......0.y
    fd90:	3c92bb8d 6d138fe1 331dd93a daca3ed0     ...<...m:..3.>..
    fda0:	1dc3cccd 2fe1a3d7 f1e6149e f5fd2ea7     ......./........
    fdb0:	fded7ecf 7d2eee2e e5afd9d0 4e6b146a     .~.....}....j.kN
    fdc0:	e21d8ea7 bf2f7ed1 51d710bc 697c264e     .....~/....QN&|i
    fdd0:	362e6fbb 7fddf0aa af8f77e6 e9c9e4fe     .o.6.....w......
    fde0:	d9d271d6 e1e68ecd deba1eee f48677e7     .q...........w..
    fdf0:	6cade6ee ecee8ec1 8f2a3d80 0fed6ccc     ...l.....=*..l..
    fe00:	6f513d4a 6caf68e2 ecabf04b 918ed200     J=Qo.h.lK.......
    fe10:	7bdec333 ee1e77e7 6cadd6ed f8338ecd     3..{.w.....l..3.
    fe20:	3ebb76cf cfb2dc3b bbe45c92 afed6fe8     .v.>;....\...o..
    fe30:	4eceb99c 5f44ffe3 2c35e512 335fa32e     ...N..D_..5,.._3
    fe40:	bccd5c3d f401d118 92efff03 2ddbc768     =\..........h..-
    fe50:	a35fff44 f4f788d8 d5710c29 989f7ca7     D._.....).q..|..
    fe60:	ae9515ae f5859cd4 ecc811cb eb6dc941     ............A.m.
    fe70:	4d294ca9 acf4c53b 69ebf978 3cc9a94f     .L)M;...x..iO..<
    fe80:	cefd4bdc abccb8c9 1f519c9b 14c140d3     .K........Q..@..
    fe90:	ccc904f2 c6f987d2 cccc99c9 cccccccc     ................
    fea0:	cccccccc bc9600fe 99c9cccc cccccccc     ................
    feb0:	ff01cccc ccccccca cccc1fc7 ccccddd9     ................
    fec0:	cccccccc cccccccc cccccccc cccc11d2     ................

0000fed0 <pic1_paletteIndexTable>:
    fed0:	0b0b0b0b 0b0b0b0b 0b0b0b0b 0b0b0b0b     ................
    fee0:	0b0b0b0b 0b120b0b 0b0b0b0b 430b0b0b     ...............C
    fef0:	0b0b0b43 0b0b0b0b 0bb7980b 0b0b0b0b     C...............
    ff00:	470b0b0b 0b0b0b0c 0b0b0b0b 4e3b9a0b     ...G..........;N
    ff10:	0b0b0b0b 52120b0b 0b0b0b4e 0b0b0b0b     .......RN.......
    ff20:	120b0bb6 0b0b0b0b 12120b0b 0b0b5543     ............CU..
    ff30:	0b0b0b0b 45430b52 0b0b0b0b 0b4a0b0b     ....R.CE......J.
    ff40:	0b0b1f12 0b0b0b0b 57520b43 0b0b0b0b     ........C.RW....
    ff50:	0b900b0b 0b122644 0b0b0b0b 2d524364     ....D&......dCR-
    ff60:	0b0b0b52 0baf0b0b 0b4a030e 0b0b0b0b     R.........J.....
    ff70:	a791439a 0b0b0b12 439b0b0b 0b680607     .C.........C..h.
    ff80:	0b0b0b0b 765d5266 0b0b0b67 64970b0b     ....fR]vg......d
    ff90:	12aa986b 0b0b0b0b 9f6f9bbb 0b0b0e00     k.........o.....
    ffa0:	96b60b0b 121c823f 0b0b0b0b 7a345450     ....?.......PT4z
    ffb0:	0b0b8e6f 85940b0b 8a37556f 0b0b0b0b     o.......oU7.....
    ffc0:	632d458e 0b0b0377 00910b0b a5223003     .E-cw........0".
    ffd0:	0b0b0b12 a37b02bb 0b12199e 003c0b0b     ......{.......<.
    ffe0:	8a949e79 0b0b0b25 2f1e00b6 0b121f86     y...%....../....
    fff0:	00120b0b 7e038d68 0b0b0baf 1657340b     ....h..~.....4W.
   10000:	0b34377b 3f0b0b0b 0f858535 0b0b12ab     {74....?5.......
   10010:	8159640b 0eab004d 260b0b0b 0eae189b     .dY.M......&....
   10020:	0b0b1200 468cbb0b 0e0000b3 0b0b0b0b     .......F........
   10030:	00340ea7 0b0b4a00 595c430b 36000e22     ..4..J...C\Y"..6
   10040:	430b0b0b 00108a59 0b121c00 47290b0b     ...CY.........)G
   10050:	29000058 0b0b0b43 000f3472 0b690000     X..)C...r4....i.
   10060:	7fa60b0b 7e00001c 0b0b0b0e 00375d90     .......~.....]7.
   10070:	0b26000f 88900b0b 30ab0000 0b0b0ba3     ..&........0....
   10080:	00007526 481c7f00 25260b0b 3803007f     &u.....H..&%...8
   10090:	0b0b0e8a 1c1a060b 12578a00 72140b0b     ..........W....r
   100a0:	9fab0029 0b0b0e19 1f772652 1581731c     ).......R&w..s..
   100b0:	60b70b0b 1c770237 0b0b8d22 383e170b     ...`7.w.".....>8
   100c0:	3f250e1a 640b0b0b 9faa721f 0b0b2151     ..%?...d.r..Q!..
   100d0:	2d590b0b 77b767aa 900b0b0b 684c1f29     ..Y-.g.w....).Lh
   100e0:	0b0b2297 387fbb0b 940b144a 470b0b0b     .".....8J......G
   100f0:	1537215b 0b0b220c 1c4a0b0b 3c55b343     [!7.."....J.C.U<
   10100:	430b0b0b 3e1c93b3 0b0b3b5f 33820b0b     ...C...>_;.....3
   10110:	256f8e9e 0b0b0b0b 6a4d0306 0b0bb5a2     ..o%......Mj....
   10120:	5cbb0b0b b386021f 0b0b0b0b 0027b215     ...\..........'.
   10130:	0b0b3b19 60980b0b 6b89007f 0b0b0b0b     .;.....`...k....
   10140:	862c82b7 0b0bb798 60b70b0b 3b4e4a5c     ..,........`\JN;
   10150:	0b0b0b0b a255260b 0b0b504a ba0b0b0b     .....&U.JP......
   10160:	43152c2c 0b0b0b0b 3026b30b 0b0b0b0b     ,,.C......&0....
   10170:	3b0b0b0b 0b0b7229 0b0b0b0b 2a063b0b     ...;)r.......;.*
   10180:	0b0b0b0b 120b0b0b 0b0bbaa1 0b0b0b0b     ................
   10190:	af7b0b0b 0b0b0b0b 0b0b0b0b 0b0b6e91     ..{..........n..
   101a0:	0b0b0b0b 4abb0b0b 0b0b0b0b 0b0b0b0b     .......J........
   101b0:	0b0b820b 0b0b0b0b 64970b0b 0b0b0b0b     ...........d....
   101c0:	0b0b0b0b 0b0bb50b 0b0b0b0b b60b0b0b     ................
   101d0:	0b0b0b0b 0b0b0b0b 0b0b140b 0b0b0b0b     ................
   101e0:	690b0b0b 0b0b120b 0b0b0b0b 0b0b430b     ...i.........C..

000101f0 <pic1_palettes>:
   101f0:	02010200 4209024c 424a4200 42094201     ....L..B.BJB.B.B
   10200:	c2cf4201 c2834201 42014204 42014209     .B...B...B.B.B.B
   10210:	0244424a 4201420c 0249424c 82c6424d     JBD..B.BLBI.MB..
   10220:	024c024c 4201024c 42014201 024c4201     L.L.L..B.B.B.BL.
   10230:	02000201 42090201 424a0244 424a028a     .......BD.JB..JB
   10240:	4201028b 424d024c 02004201 4201420c     ...BL.MB.B...B.B
   10250:	024c424d 42010201 424d424a 4201424d     MBL....BJBMBMB.B
   10260:	42010201 024c8283 024d0244 024c82c7     ...B..L.D.M...L.
   10270:	424d82c7 024d024c 82c7028d 420c4201     ..MBL.M......B.B
   10280:	c2834201 028ac283 424a4204 024d4209     .B.......BJB.BM.
   10290:	4201424d 4204424d 024c0244 424d424a     MB.BMB.BD.L.JBMB
   102a0:	82c68282 024c0244 424a024d c2cfc283     ....D.L.M.JB....
   102b0:	8282c286 424d424a 82c7424a 028a424a     ....JBMBJB..JB..
   102c0:	424a424d 8283c2cf 82cec2cf 424dc2cf     MBJB..........MB
   102d0:	024c82c6 c2cf424d c2cfc2cf 028bc2cf     ..L.MB..........
   102e0:	428e82c7 82c682c7 0249024c 424d82ce     ...B....L.I...MB
   102f0:	028ac283 c283c283 4204424a 82c6428b     ........JB.B.B..
   10300:	82c6424d 024c024c 024c4209 024cc2cf     MB..L.L..BL...L.
   10310:	c2cf024c 4201024c c2cfc2c6 028a4209     L...L..B.....B..
   10320:	024c4209 024c424d c286c2ce c2cfc2ce     .BL.MBL.........
   10330:	4245c2cf 82c7c2cf 024cc2cf c2cf8283     ..EB......L.....
   10340:	82c782c7 024c024c c2cf82ce c2cfc2cf     ....L.L.........
   10350:	c2868282 c2cf8283 424d0245 024c0245     ........E.MBE.L.
   10360:	c2cf028b 024c024d 828282ce c2cf424a     ....M.L.....JB..
   10370:	8283c2cf 424d024c 424d4201 424d424d     ....L.MB.BMBMBMB
   10380:	c2458282 424a8282 02010244 024c82c6     ..E...JBD.....L.
   10390:	024582c7 4201024c 82ce82ce 42044201     ..E.L..B.....B.B
   103a0:	024c4201 4201420c 424d424d 424dc2cf     .BL..B.BMBMB..MB
   103b0:	4209024c 424d024c 42014201 424d4201     L..BL.MB.B.B.BMB
   103c0:	420182c7 024c0249 82c7024c 424d82ce     ...BI.L.L.....MB
   103d0:	c28b4209 424d424a 028b424a 82c7428e     .B..JBMBJB...B..
   103e0:	028b82c7 024c024c 4201c283 42094209     ....L.L....B.B.B
   103f0:	024d82c7 4201028a 424d028b 424d024c     ..M....B..MBL.MB
   10400:	4209c283 0245424a 024c420c 024c8282     ...BJBE..BL...L.
   10410:	024c0244 c2cf024c 42014201 024c4209     D.L.L....B.B.BL.
   10420:	42010201 024c8282 024982c6 024c82c6     ...B..L...I...L.
   10430:	c286028a 4201024c 4201024d 02444201     ....L..BM..B.BD.
   10440:	424d424a 82ce424c 4209024c 42094209     JBMBLB..L..B.B.B
   10450:	42090244 028b028a 8282024c 424a4201     D..B....L....BJB
   10460:	82c6c283 424a4245 42094209 028a424a     ....EBJB.B.BJB..
   10470:	0245424a 024d424d c2cfc2cf 82c78282     JBE.MBM.........
   10480:	424d82c6 4209024c 024c024c 424d424d     ..MBL..BL.L.MBMB
   10490:	82c78282 424a0245 424a024c 024c024d     ....E.JBL.JBM.L.
   104a0:	424d024d c283c282 424dc283 82c7424d     M.MB......MBMB..
   104b0:	4201424d 424d4209 42014209 424a424a     MB.B.BMB.B.BJBJB
   104c0:	424d028b 42014201 c286c283 42094204     ..MB.B.B.....B.B
   104d0:	424a4245 028ac286 82c64209 424a424a     EBJB.....B..JBJB
   104e0:	024c424d 424d424d 42000200 42010244     MBL.MBMB...BD..B
   104f0:	020182c6 42094209 424d4209 42014209     .....B.B.BMB.B.B
   10500:	42000200 424d82c7 42090249 028b028b     ...B..MBI..B....
   10510:	028a024c 82cf024c 42044201 4201c283     L...L....B.B...B
   10520:	82c3420c c283424d 42010244 024c028b     .B..MB..D..B..L.
   10530:	42010244 02450244 028a82c6 024c028b     D..BD.E.......L.
   10540:	0244024c c282024c 420182cf c2c74201     L.D.L......B.B..
   10550:	82c64201 024cc283 42044204 424a424a     .B....L..B.BJBJB
   10560:	8282424d 024cc2cf 024c024c 024c4201     MB....L.L.L..BL.
   10570:	02448282 c2cf0244 420982c6 82c7028a     ..D.D......B....
   10580:	024c024c c283024c 4201024d 424d4201     L.L.L...M..B.BMB
   10590:	c2c6c2c7 02494209 024c4209 0244424a     .....BI..BL.JBD.
   105a0:	8283428e c2cf024c 024c4201 424a4209     .B..L....BL..BJB
   105b0:	42040245 c2cf028a 82c7024c c283c283     E..B....L.......
   105c0:	028bc283 424a4209 0245424a 424a424d     .....BJBJBE.MBJB
   105d0:	424dc2ce c2cfc2cf 8282c2cf c283c2cf     ..MB............
   105e0:	c2cf024c 024c4201 42094201 424a424a     L....BL..B.BJBJB
   105f0:	42040244 c28682c6 c2c782c7 c283028a     D..B............
   10600:	024c024d 024c02cf 028a4204 424a4245     M.L...L..B..EBJB
   10610:	c2cf420c 0201424d 024c4209 028ac2cf     .B..MB...BL.....
   10620:	82ce8282 c2cf82c6 4209024c 82cf024d     ........L..BM...
   10630:	82ce82ce c286c286 0245c2c7 c2cfc2c7     ..........E.....
   10640:	024c4209 428b428b c2cfc2ce c2cec2ce     .BL..B.B........
   10650:	028ac2cf 024c424c c2cfc2cf 82c6c2cf     ....LBL.........
   10660:	024c0249 4204028b 4201024c 82c6024c     I.L....BL..BL...
   10670:	8282024d 82c682ce 024c424c 028a424d     M.......LBL.MB..
   10680:	c2ce424d 82c6c2cf c2c7c2cf c283c2cf     MB..............
   10690:	c28382c6 028a028a 424dc286 c2cfc2cf     ..........MB....
   106a0:	c2cf8282 024c82c3 028b82c6 024482c7     ......L.......D.
   106b0:	0245024c 428b024c 024d024c c2864201     L.E.L..BL.M..B..
   106c0:	424a424a 024c024c 42014201 c2c7c2c7     JBJBL.L..B.B....
   106d0:	024c0244 c2cf028a c283028a 024c024c     D.L.........L.L.
   106e0:	c2c7024c 8282024c 42014201 42454201     L...L....B.B.BEB
   106f0:	024dc283 024cc283 c2cfc283 8283424a     ..M...L.....JB..
   10700:	c283c2cf c2cf024d c2c7c2c7 c2cfc2cf     ....M...........
   10710:	024c8282 028a0244 028b82c7 4201028a     ..L.D..........B
   10720:	82ce028a c2c7028b c2cf024d 424a4204     ........M....BJB
   10730:	c2c7c2c7 c2cfc2c7 024c428b 82cec2cf     .........BL.....
   10740:	82828282 c2cf8282 c2cfc2cf c2c7c2cf     ................
   10750:	424d8282 c2cf82c6 82c6028b 024d4201     ..MB.........BM.
   10760:	42094201 42044201 420c424a 024d424d     .B.B.B.BJB.BMBM.
   10770:	8282424d 4209024c 024c024c 424a424d     MB..L..BL.L.MBJB
   10780:	024c8283 42040244 028a0245 424d82c7     ..L.D..BE.....MB
   10790:	4209024c 024c82ce 8283c283 024c4209     L..B..L......BL.
   107a0:	4201424a 0244424a 028b424d 024cc2ce     JB.BJBD.MB....L.
   107b0:	024cc2cf 424d024c 024c024c 424a424d     ..L.L.MBL.L.MBJB
   107c0:	024482c6 420c0249 4201024c 024c024c     ..D.I..BL..BL.L.
   107d0:	424d024d 424a024d c2cf4201 42044201     M.MBM.JB.B...B.B
   107e0:	02454204 0245424a 024c424d 42090244     .BE.JBE.MBL.D..B
   107f0:	02440244 024c82c6 424d024c 424a424d     D.D...L.L.MBMBJB
   10800:	42090244 028a82c7 024c82c7 024d82c7     D..B......L...M.
   10810:	02004201 42424245 82c7c2c7 424a424a     .B..EBBB....JBJB
   10820:	424d424d 4209424d 424d82c6 8282424d     MBMBMB.B..MBMB..
   10830:	82c68283 02450245 424d82c6 024d028b     ....E.E...MB..M.
   10840:	4201024c 4201024d 424a82ce 420c4201     L..BM..B..JB.B.B
   10850:	424d4204 028ac286 4204424a c283420c     .BMB....JB.B.B..
   10860:	424a424d 8282424d c2c7c2c7 c2cfc2cf     MBJBMB..........
   10870:	420c0249 8282028a 024c024c 024c82cf     I..B....L.L...L.
   10880:	c286c286 c2c6c286 c2c7c2c7 4209420c     .............B.B
   10890:	c283424c c2cf424d 024cc2cf c2838282     LB..MB....L.....
   108a0:	82c60244 c2ce82c6 c2cfc2ce c2cfc2cf     D...............
   108b0:	82c78283 828382c7 4209028a 8282024c     ...........BL...
   108c0:	0245024d 02444201 42014242 c283c286     M.E..BD.BB.B....
   108d0:	c283c2ce c2838282 420482c6 424d024c     ...........BL.MB
   108e0:	c2838282 424d0245 420482c6 828282c6     ....E.MB...B....
   108f0:	028b028b 82c6028b 0245024c c2cf024c     ........L.E.L...
   10900:	424d024c 024d024d 420182ce 4204428b     L.MBM.M....B.B.B
   10910:	0249420c 82c70200 0244024d 42014201     .BI.....M.D..B.B
   10920:	42010244 424a82c6 4204028a 8282024c     D..B..JB...BL...
   10930:	82c7024c 0244024d 42014201 424d4201     L...M.D..B.B.BMB
   10940:	424a4242 424dc283 028a4245 4201424d     BBJB..MBEB..MB.B
   10950:	428b428f 82c70200 4209024c 02494209     .B.B....L..B.BI.
   10960:	82c70200 42420245 028b024c 82c6024c     ....E.BBL...L...
   10970:	024d024c 424a024d 024cc283 42094245     L.M.M.JB..L.EB.B
   10980:	424d4209 02494209 4201424a c283424a     .BMB.BI.JB.BJB..
   10990:	4209424d 420182c6 4209024c 42094201     MB.B...BL..B.B.B
   109a0:	420182c6 424d028b 4204024c 4209024c     ...B..MBL..BL..B
   109b0:	82c64201 424d4201 c2834204 428bc286     .B...BMB.B.....B
   109c0:	424a424a 8282424a 424d420c 82c7424d     JBJBJB...BMBMB..
   109d0:	c283424d 42018282 424d028a 42094201     MB.....B..MB.B.B
   109e0:	c28382c6 024c0249 424d028a 0244024c     ....I.L...MBL.D.
   109f0:	c283024c 028a024c 420982ce 424a4204     L...L......B.BJB
   10a00:	024c4209 024c424a 0249424d 024cc2cf     .BL.JBL.MBI...L.
   10a10:	42018282 42094201 024c424d 424d424d     ...B.B.BMBL.MBMB
   10a20:	02448283 424d0244 424d82c7 8285024c     ..D.D.MB..MBL...
   10a30:	c245024c 420c4201 028bc286 c2834209     L.E..B.B.....B..
   10a40:	c2cf424d 82c6424d 0244424d 028a424d     MB..MB..MBD.MB..
   10a50:	424d8283 42420245 028b028a 8282028a     ..MBE.BB........
   10a60:	0200024d 42014201 42454201 c283c283     M....B.B.BEB....
   10a70:	424ac283 82834204 82ce4209 424d424d     ..JB.B...B..MBMB
   10a80:	0244424d 42018282 024c024c 028a424d     MBD....BL.L.MB..
   10a90:	42010200 42018282 c2cf82c6 c28382c7     ...B...B........
   10aa0:	4242028a 024c024c 028a024c 424a024c     ..BBL.L.L...L.JB
   10ab0:	c2cf82ce 82c682ce c2834201 8282424a     .........B..JB..
   10ac0:	028a424d 024c0249 4209024c 0249024c     MB..I.L.L..BL.I.
   10ad0:	428b028a 024c028a 4204028b c2cf024c     ...B..L....BL...
   10ae0:	0249024c 0244024c 4209024c 028b428b     L.I.L.D.L..B.B..
   10af0:	82c6424d 4209424d c283424d c286424d     MB..MB.BMB..MB..
   10b00:	024c0249 42044201 028bc286 c2cfc2cf     I.L..B.B........
   10b10:	424dc283 02004204 4242424a 82c6424c     ..MB.B..JBBBLB..
   10b20:	424d424d c283c2cf 82c7c2cf 82c6c2cf     MBMB............
   10b30:	424a82c6 424a028b 424a024c 024c424a     ..JB..JBL.JBJBL.
   10b40:	82c70244 028b82c7 c2cf028b 0244028b     D.............D.
   10b50:	c2cf024c 420c024c 02494201 0244c2c7     L...L..B.BI...D.
   10b60:	82824209 424a4209 c2cf424d c286c2cf     .B...BJBMB......
   10b70:	c2c782c7 0249028a 024d4201 028bc286     ......I..BM.....
   10b80:	c283c2c7 424a424a c283424a 424d428b     ....JBJBJB...BMB
   10b90:	428e428b c2cfc2cf c286c2cf 424cc2cf     .B.B..........LB
   10ba0:	42010200 424ac283 42014204 c2c7c2cf     ...B..JB.B.B....
   10bb0:	82c782c6 028a82c6 c2cf82c7 82c782c7     ................
   10bc0:	424a028b c2cfc283 c2c7c2c7 82c6c2c7     ..JB............
   10bd0:	82c7c2c7 024c420c 028bc2cf 024c424d     .....BL.....MBL.
   10be0:	424d8282 424a0245 024c82c6 c283028b     ..MBE.JB..L.....
   10bf0:	c286028b 0249024c 024c4201 02494201     ....L.I..BL..BI.
   10c00:	4209c283 4201c283 42094209 c2cf428b     ...B...B.B.B.B..
   10c10:	4209420c c2cf8282 82c6024c 024c424d     .B.B....L...MBL.
   10c20:	424d8283 02450244 82c68285 82c682c6     ..MBD.E.........
   10c30:	024d82c6 c28382c7 82c7024c 424d024c     ..M.....L...L.MB
   10c40:	82c6024c 4201024d 42014209 028b424a     L...M..B.B.BJB..
   10c50:	8283c2cf c2cf8282 c283024c 024c424d     ........L...MBL.
   10c60:	c2cf8282 42420244 c283024c c282024c     ....D.BBL...L...
   10c70:	424d82ce 024c82ce 42094201 028a4201     ..MB..L..B.B.B..
   10c80:	024cc282 c2834204 4204424a 024d420c     ..L..B..JB.B.BM.
   10c90:	0244424d 024c424d 02010200 42044209     MBD.MBL......B.B
   10ca0:	024c8285 420182c6 0244028a 4209028a     ..L....B..D....B
   10cb0:	024c82cb 024c024c c2c7024c 4209024c     ..L.L.L.L...L..B
   10cc0:	82ce024c 0244024d 4201c286 0244c2c7     L...M.D....B..D.
   10cd0:	42044209 42014209 02010200 4201024c     .B.B.B.B....L..B
   10ce0:	024c8282 024c0245 82c682c6 8282028a     ..L.E.L.........
   10cf0:	4201024c c2cf024c 4242024d c283c283     L..BL...M.BB....
   10d00:	424b4245 424dc2c7 028b424b 8283424d     EBKB..MBKB..MB..
   10d10:	c2cfc2ce c2c7c2cf 02010200 024d424d     ............MBM.
   10d20:	02010200 024582c7 424a028a 424d024c     ......E...JBL.MB
   10d30:	4209024d 424d024d 82c7024d 028b82ce     M..BM.MBM.......
   10d40:	02494201 c286c283 0244c286 02cfc2c6     .BI.......D.....
   10d50:	82c7424d 024d424d c283424d c2cfc2cf     MB..MBM.MB......
   10d60:	028b0244 c2cf0244 82c60245 424d82c7     D...D...E.....MB
   10d70:	82c7028a 424c82ce c2cfc286 4245424a     ......LB....JBEB
   10d80:	c286428e c2cf428e 0244c2cf c2cec2cf     .B...B....D.....
   10d90:	82cfc2cf c283c2cf 028a8283 c2cfc2cf     ................
   10da0:	028a8283 420c0244 42450244 424d028a     ....D..BD.EB..MB
   10db0:	0245028b 424d028b 8283c283 82c6c283     ..E...MB........
   10dc0:	024d424a 0244424a 4242424d c286424d     JBM.JBD.MBBBMB..
   10dd0:	c2c7428e c2cfc2cf 424dc2cf c286c2cf     .B........MB....

00010de0 <pic1_data>:
   10de0:	eeeeeeee eeeeeeee eeeeeeee eeeeeeee     ................
   10df0:	eeeeeeee eeeeeeee eeeeeeee eeeeeeee     ................
   10e00:	eeeeeeee eeeeeeee eeeeeeee eeeefff7     ................
   10e10:	eeeeeeee eeeeeeee eeeeeeee e7eeeeee     ................
   10e20:	eeeeee1e eeeeeeee eeeeeeee eeeeeeee     ................
   10e30:	4f09eeee eeeefcdf eeeeeeee eeeeeeee     ...O............
   10e40:	eeeeeeee caf9eeee eeee9fab eeeeeeee     ................
   10e50:	eeeeeeee eeeeeeee fe7deeee fffd8d5b     ..........}.[...
   10e60:	eeeeeeee eeeeeeee eeeeeeee f8ff6fff     .............o..
   10e70:	eeeccfd9 eeeeeeee eeeeeeee eeeeeeee     ................
   10e80:	eeeeaf33 ff0feeee eeeeeeee eeeeeeee     3...............
   10e90:	eeeeeeee fff2f9ff 25ec7eee eeeeeeee     .........~.%....
   10ea0:	eeeeeeee eeeeeeee eeeef9ee 6b5c9eee     ..............\k
   10eb0:	eeeeeeee eeeeeeee eeeeeeee eeeef333     ............3...
   10ec0:	da155fff eeeeeeee eeeeeeee eeeeeeee     ._..............
   10ed0:	eeeeee7f f56a3fee eeeeeeee eeeeeeee     .....?j.........
   10ee0:	eeeeeeee eeeeed7f 66dfebaa eeeefff0     ...........f....
   10ef0:	eeeeeeee eeeeeeee eea1c2ef ed1b7afe     .............z..
   10f00:	eeeeeed0 eeeeeeee eeeeeeee eee639d2     .............9..
   10f10:	235dad32 eeee33d5 eeeeeeee eeeeeeee     2.]#.3..........
   10f20:	eee39ea8 7b6e5efa eeeef0ed eeeeeeee     .....^n{........
   10f30:	eeeeeeee eee1c37e 59c1ed54 eeeee392     ....~...T..Y....
   10f40:	eeeeeeee eeeeeeee ff9e6dc7 2f9e6c4a     .........m..Jl./
   10f50:	eeee6e84 eeeeeeee eeeeeeee 31fe4cdd     .n...........L.1
   10f60:	152ee98f fff097db eeeeeeee eeeeeeee     ................
   10f70:	f1c3c2dd f16cb2f9 222fc5ed eeeeeeee     ......l.../"....
   10f80:	eeeeeeee adf8c4e3 f4911cad ffdc7d2d     ............-}..
   10f90:	eeeeeeee eeeeeeee f84aad97 92e3f671     ..........J.q...
   10fa0:	f34b8cf3 eeeeeeee eeeeeeee 8f76b64f     ..K.........O.v.
   10fb0:	fe98ffad 25ebe237 eeeeeeee eeeeeeee     ....7..%........
   10fc0:	a5f90e2f af8ccdba 93c2ecea eeeeeeee     /...............
   10fd0:	eeeeeeee 0cfece63 52bc202d db6ef3f4     ....c...- .R..n.
   10fe0:	eeeefff0 eeeeeeee 6e8618ed 17eac5df     ...........n....
   10ff0:	adc86eba eeeeffb4 eeeeeeee eee90f99     .n..............
   11000:	dc7aea5c 75de5dac eeeeee63 eeeeeeee     \.z..].uc.......
   11010:	eee6bf33 6dbcf6ba 3f162cd8 eeeef045     3......m.,.?E...
   11020:	eeeeeeee ee988fff ed6c2b7c c3c462e7     ........|+l..b..
   11030:	eeeec057 eeeeeeee 2f0beeee daeb66f9     W........../.f..
   11040:	de6f2d98 eeee534e eeeeeeee 543feeee     .-o.NS........?T
   11050:	f49dabdb 9ad993bf fff072f5 eeeeeeee     .........r......
   11060:	7a6feeee 9fbdeda7 cccf15cf 222d5cf7     ..oz.........\-"
   11070:	eeeeeeee e5aaeeee b97d2f8d ddde3daf     ........./}..=..
   11080:	ff00a5ec eeeeeeee 9eddeeee 6c9769f5     .............i.l
   11090:	cccc84cd 210cccdc eeeeeeee 8eeeeeee     .......!........
   110a0:	1fd989fc ccccefd8 3d21cccc eeeeeeee     ..........!=....
   110b0:	4aeeeeee cde3e6f3 eddd3fe7 d686cccc     ...J.....?......
   110c0:	eeeeeeee 4beeeeee f553d79f cccc55d7     .......K..S..U..
   110d0:	dd32dccc eeeefff0 eeeeeeee 602ed75a     ..2.........Z..`
   110e0:	cccc2bfa 9a2ecccc eeeeeeed eeeeeeee     .+..............
   110f0:	d9ca4c25 cccc99cc bcc3cccc eeeebafe     %L..............
   11100:	eeeeeeee bfe8e538 ccccdd1e 2ccedccc     ....8..........,
   11110:	eeee21e6 eeeeeeee de3ba5cd ccc1239e     .!........;..#..
   11120:	31cff999 eeeeaed2 eeeeeeee 7e6cc587     ...1..........l~
   11130:	cccccfd3 16f2af55 eeee8cfe eeeeeeee     ....U...........
   11140:	eaf9f4aa ccccced1 86e3e2cc bbbcda1d     ................
   11150:	eeeeeeee 24bdfbaa cccc5b4f 4cf93f10     .......$O[...?.L
   11160:	222dfcae eeeeeeee b2e310ee dddeaced     ..-"............
   11170:	95de1e4c ff0d68fd eeeeeeee 6ebfd877     L....h......w..n
   11180:	ccefe7b1 bea57d1f 21fe0ecb eeeeeeee     .....}.....!....
   11190:	7fcfacee 1f5ef43e c4fefd23 31cdc56a     ....>.^.#...j..1
   111a0:	eeeeeeee 9c6f3dff 566d9b2f cb85e9ed     .....=o./.mV....
   111b0:	7df1f3e5 eeeeeeee d7c84eee 7e6d468f     ...}.....N...Fm~
   111c0:	b48e9d8a e8722eee eeeeeeee 589feeee     ......r........X
   111d0:	43f83f97 d4d68cb9 7af64f33 eeeeeeee     .?.C....3O.z....
   111e0:	210eeeee df82e8fd 35c64fa9 28fc5cff     ...!.....O.5.\.(
   111f0:	eeeeeeee bce7eeee 18c72f38 fd2b87c5     ........8/....+.
   11200:	cf9df3dd eeeeeeee b3fdeeee ddde97f2     ................
   11210:	76e59f8d e2a8cfee eeeeeeee 7dbfeeee     ...v...........}
   11220:	cb7e79c8 32f6c2e2 1cfb8daa eeeeeeee     .y~....2........
   11230:	befeeeee cdd9aed7 f73b682d 905ed632     ........-h;.2.^.
   11240:	eeeeeeee ceeeeeee bd76dc31 a95d65dd     ........1.v..e].
   11250:	d1a2c59e eeeeeeee 9eeeeeee e2f83d3a     ............:=..
   11260:	7bd5e94a eed7fe54 eeeeeeee eeeeeeee     J..{T...........
   11270:	be9c6a2d fdeb1ed9 77af5d8f eeeeeeee     -j.......].w....
   11280:	eeeeeeee e9b21fd6 76c434f1 ff6516eb     .........4.v..e.
   11290:	eeeeeeee eeeeeeee 63e77c35 e3e7f8e9     ........5|.c....
   112a0:	dd6c6fec eeeeeeee eeeeeeee 3c72da99     .ol...........r<
   112b0:	9ee31e89 330cce44 eeeeeeee eeeeeeee     ....D..3........
   112c0:	e363edff 85aec5f8 ff1d96ce eeeeeeee     ..c.............
   112d0:	eeeeeeee d2ebedff bef616dc dd5ef276     ............v.^.
   112e0:	eeeeeeee eeeeeeee de1a3eee ed7adaf7     .........>....z.
   112f0:	77c734ce eeeeeeee eeeeeeee f9b3eeee     .4.w............
   11300:	5c9a73d4 ee0e33be eeeeeeee eeeeeeee     .s.\.3..........
   11310:	e29feeee bda38ffc eeeeeed8 eeeeeeee     ................
   11320:	eeeeeeee d57deeee d73f5c30 eeeeeee5     ......}.0\?.....
   11330:	eeeeeeee eeeeeeee d5fdeeee bafbf397     ................
   11340:	eeeeeeed eeeeeeee eeeeeeee fbffeeee     ................
   11350:	c68e8a7d eeeeeeee eeeeeeee eeeeeeee     }...............
   11360:	eeeeeeee 1a8f1be7 eeeeeeee eeeeeeee     ................
   11370:	eeeeeeee eeeeeeee b5addb32 eeeeeeee     ........2.......
   11380:	eeeeeeee eeeeeeee eeeeeeee 4dda5fdd     ............._.M
   11390:	eeeeeeee eeeeeeee eeeeeeee eeeeeeee     ................
   113a0:	c7237fee eeeeeeee eeeeeeee eeeeeeee     ..#.............
   113b0:	eeeeeeee f20d73dd eeeeeeee eeeeeeee     .....s..........
   113c0:	eeeeeeee eeeeeeee 7ec73eee eeeeeeee     .........>.~....
   113d0:	eeeeeeee eeeeeeee eeeeeeee 3d83eeee     ...............=
   113e0:	eeeeeeee eeeeeeee eeeeeeee eeeeeeee     ................
   113f0:	7c87eeee eeeeeeee eeeeeeee eeeeeeee     ...|............
   11400:	eeeeeeee bdcbeeee f7ffeeee eeeeeeee     ................
   11410:	eeeeeeee eeeeeeee e5feeeee eeaeeeee     ................

00011420 <pic0_paletteIndexTable>:
	...
   1149c:	00003400 00000000 00000000 00000000     .4..............
   114ac:	00000000 00005200 00000000 52000000     .....R.........R
	...
   114c4:	00004e00 00000000 00000000 00000000     .N..............
   114d4:	00000000 00001500 00000000 37000000     ...............7
	...
   114ec:	00001500 00000000 14030000 00000000     ................
   114fc:	00000000 0000ab4f 00000000 36030000     ....O..........6
	...
   11514:	00007e00 00000000 12000000 00000000     .~..............
   11524:	00000000 00001200 00000000 69000000     ...............i
	...
   1153c:	00003400 00003400 69000000 00000000     .4...4.....i....
   1154c:	00000000 00001200 00000000 15000000     ................
	...
   11564:	00008800 00000000 88000000 00000000     ................
   11574:	00000000 0000924f 00000000 6c4e0000     ....O.........Nl
   11584:	00000000 0a000000 0000690a 00000038     .........i..8...
   11594:	0e550000 00340000 4f000000 00000e00     ..U...4....O....
   115a4:	00000034 883a4f00 00000000 00000000     4....O:.........
   115b4:	0000870a 0000004e 844e0000 00000000     ....N.....N.....
   115c4:	50000000 00512c55 00000000 9b020000     ...PU,Q.........
   115d4:	004e000a 52000000 00008318 00000054     ..N....R....T...
   115e4:	58188c00 000f0000 52000000 003a465d     ...X.......R]F:.
   115f4:	4f00004f a340ab00 0038004e bb4f5200     O..O..@.N.8..RO.
   11604:	004e0a21 03000000 745db700 0030007c     !.N.......]t|.0.
   11614:	61390300 00342882 34000011 25a2613a     ..9a.(4....4:a.%
   11624:	00300036 63ae8c00 03375918 52000030     6.0....c.Y7.0..R
   11634:	3e9f6461 00330a15 80655200 34303e23     ad.>..3..Re.#>04
   11644:	5400000e 97736465 00af7c30 65615200     ...Teds.0|...Rae
   11654:	34159774 3000517c 9f876161 0a0a8c34     t..4|Q.0aa..4...
   11664:	2b5d3900 8b307074 03000033 be4a2c69     .9]+tp0.3...i,J.
   11674:	4ea20d30 42213000 838337b6 05000068     0..N.0!B.7..h...
   11684:	287426af 007b7c7c 77a90300 5169094a     .&t(||{....wJ.iQ
   11694:	6f16000e ab9f46a7 002c0536 46788f0f     ...o.F..6.,...xF
   116a4:	036c969f 03000046 740828a6 00124890     ..l.F....(.t.H..
   116b4:	2519b600 1d2c6c06 6f0000ba b70625a7     ...%.l,....o.%..
   116c4:	009b8bb3 25700300 1cb3bf06 0652001d     ......p%......R.
   116d4:	b35c3e4e 001d6cb3 24424a54 78b2bb80     N>\..l..TJB$...x
   116e4:	424f001d af593e46 001d8c90 3a70a300     ..OBF>Y.......p:
   116f4:	702c5593 a300503e 84a62721 00975580     .U,p>P..!'...U..
   11704:	935d9b00 21127028 650053bb 2459469a     ..].(p.!.S.e.FY$
   11714:	303d9e49 1b25bf00 761fab5b 42001512     I.=0..%.[..v...B
   11724:	735c4659 90967719 46879700 be19a774     YF\s.w.....Ft...
   11734:	0c006a9b 0a4c4668 1d1b1919              .j..hFL.....

00011740 <pic0_palettes>:
   11740:	02440200 424d0200 02010200 42000200     ..D...MB.......B
   11750:	42040201 424c8282 02004201 c2824201     ...B..LB.B...B..
   11760:	424ac283 424a424a 4201424a 0201424c     ..JBJBJBJB.BLB..
   11770:	02000200 42010201 82828282 424c028a     .......B......LB
   11780:	82820249 424c0249 4204028a 028e028b     I...I.LB...B....
   11790:	82824201 424c424c 4204424d 028a424d     .B..LBLBMB.BMB..
   117a0:	42010200 424c4201 024c424c 024c424d     ...B.BLBLBL.MBL.
   117b0:	02010200 024d0201 424a0201 028b0245     ......M...JBE...
   117c0:	42050245 428b82c6 42010249 424a4201     E..B...BI..B.BJB
   117d0:	424d4201 02420242 02420245 0242424a     .BMBB.B.E.B.JBB.
   117e0:	024a0201 02440201 02420242 02420245     ..J...D.B.B.E.B.
   117f0:	8282028b 0200024c 8284028d 02454201     ....L........BE.
   11800:	024d4201 42014209 424b424a 0242424a     .BM..B.BJBKBJBB.
   11810:	4204424b 02000200 424d028c 424a424a     KB.B......MBJBJB
   11820:	424a0201 82838283 024a0249 424d024a     ..JB....I.J.J.MB
   11830:	424c024a 424a024a 424d028c 424a024d     J.LBJ.JB..MBM.JB
   11840:	424a4204 024d424a 424a424a 028d424b     .BJBJBM.JBJBKB..
   11850:	028d424d 02000200 024d024a 02004201     MB......J.M..B..
   11860:	42010200 424c0201 c2838283 c28682c6     ...B..LB........
   11870:	828382c6 424d028a 8283028a 024d024a     ......MB....J.M.
   11880:	0201024c 8282024d 024a4201 c286c283     L...M....BJ.....
   11890:	02000200 0200028a 02004201 c283c286     .........B......
   118a0:	024d0244 c2c70245 42010245 02450245     D.M.E...E..BE.E.
   118b0:	424a82c7 0244028a 4201028b 02014201     ..JB..D....B.B..
   118c0:	02004204 024a424d 424d028b 424d028e     .B..MBJ...MB..MB
   118d0:	02000200 82820200 02010200 82820201     ................
   118e0:	028a8282 82820249 424d028a 424d028b     ....I.....MB..MB
   118f0:	82c6028e 424d028e c283c283 424a424a     ......MB....JBJB
   11900:	0244424c 028e028b c283028b 028e028e     LBD.............
   11910:	42018282 82c78283 028b028a 028e028b     ...B............
   11920:	028b028b c283028b 424b028e 028b028e     ..........KB....
   11930:	4201028e 42014201 82c64201 c283c286     ...B.B.B.B......
   11940:	4201424a 8283028b 028e028e 82c6c286     JB.B............
   11950:	c2838282 424a0249 8283028b 4201024c     ....I.JB....L..B
   11960:	428e024c 82c6028e 028e028e c286028e     L..B............
   11970:	024d4201 82c6c286 82ce4208 424d424a     .BM......B..JBMB
   11980:	024a424b 4204424d 424b424a 028b424a     KBJ.MB.BJBKBJB..
   11990:	02448283 028b8283 424a0245 82c6028a     ..D.....E.JB....
   119a0:	c2834201 8284c283 028bc283 424b424a     .B..........JBKB
   119b0:	424a424a 424a424b 424b424b 0242424b     JBJBKBJBKBKBKBB.
   119c0:	028b028b 028bc286 028b424a 028b424b     ........JB..KB..
   119d0:	028e82c6 82c7028b c286c283 0244c286     ..............D.
   119e0:	c282c286 424ac286 428b424a 028a424a     ......JBJB.BJB..
   119f0:	428b424b 028a424c 028b028a c283c283     KB.BLB..........
   11a00:	024c82c3 024c0245 828482c6 028a028a     ..L.E.L.........
   11a10:	028b028a 424c028b c283c283 024ac283     ......LB......J.
   11a20:	82cec244 c244c245 424c428b 028a428b     D...E.D..BLB.B..
   11a30:	028d424c 4201424d 424d424a 424d424d     LB..MB.BJBMBMBMB
   11a40:	024c0200 4204028a 424a028b 4201028b     ..L....B..JB...B
   11a50:	0249024c 424d024d 4201024d 828682ce     L.I.M.MBM..B....
   11a60:	02004201 424d424a 4201424c 0244424d     .B..JBMBLB.BMBD.
   11a70:	024c424d 02000200 424a028a 424d424d     MBL.......JBMBMB
   11a80:	424d8284 424a028a 424a024c 42004201     ..MB..JBL.JB.B.B
   11a90:	028ac283 0244424a 028d424a 424a424c     ....JBD.JB..LBJB
   11aa0:	024d424c 0200424d 424b424d 02000200     LBM.MB..MBKB....
   11ab0:	42000200 02000201 02008282 424d424d     ...B........MBMB
   11ac0:	4201028a 4201024c c283024c 024c4201     ...BL..BL....BL.
   11ad0:	c283c283 42044204 028a424a 82c6424b     .....B.BJB..KB..
   11ae0:	02000200 42040201 024a0245 424d028b     .......BE.J...MB
   11af0:	424a0200 02010201 024c0201 02000244     ..JB......L.D...
   11b00:	02410249 c28a82cb 028b028e c241c244     I.A.........D.A.
   11b10:	82cbc244 02440200 424b028b 82c6c283     D.....D...KB....
   11b20:	02440200 424b8283 028a82c6 424b028b     ..D...KB......KB
   11b30:	424a028b 028b028b 424d028b 82c6028d     ..JB......MB....
   11b40:	8286028e 028ec283 82c6c283 424dc283     ..............MB
   11b50:	8283c283 424d424a 424a424b 028b424b     ....JBMBKBJBKB..
   11b60:	424d0200 82838283 424d028a 424a028a     ..MB......MB..JB
   11b70:	4201024c 424a024c 0245024d 8282c283     L..BL.JBM.E.....
   11b80:	424a4204 8282424a 424a424b 028b424b     .BJBJB..KBJBKB..
   11b90:	024c420c 024c424d 028a028b 024c024c     .BL.MBL.....L.L.
   11ba0:	028e8286 028b8286 c28382c6 82c682c6     ................
   11bb0:	c28682c6 82c6028a 028a028b 024d024d     ............M.M.
   11bc0:	c286028e 424ac286 424bc286 c286424a     ......JB..KBJB..
   11bd0:	424b424b 028b028b 024c024c c286c286     KBKB....L.L.....
   11be0:	02450242 82868283 424d0244 028b028b     B.E.....D.MB....
   11bf0:	02004201 42004201 8283c283 c283c245     .B...B.B....E...
   11c00:	028ac286 c286c286 4245424a 028a424a     ........JBEBJB..
   11c10:	0245424c 028a424d 02450245 024c024c     LBE.MB..E.E.L.L.
   11c20:	028a0200 024a0200 42010201 02450245     ......J....BE.E.
   11c30:	02000245 8283024a 4201024a 424a028b     E...J...J..B..JB
   11c40:	024c024c 0201c283 424cc283 424b424a     L.L.......LBJBKB
   11c50:	c283424b 024c424c 02000200 02000201     KB..LBL.........
   11c60:	42010200 42040200 02000201 02010201     ...B...B........
   11c70:	428e0244 424a0245 024c028a 4201028d     D..BE.JB..L....B
   11c80:	02004200 424d4201 c244c244 424c424c     .B...BMBD.D.LBLB
   11c90:	02000200 02010200 4201024c 42014201     ........L..B.B.B
   11ca0:	02450244 028a8286 028a028a 028d028b     D.E.............
   11cb0:	0241024c 02444201 02014201 4201c283     L.A..BD..B.....B
   11cc0:	424d424c 028b424d 424a024d 8283424a     LBMBMB..M.JBJB..
   11cd0:	42420242 c2828282 028b8283 028a0245     B.BB........E...
   11ce0:	424a0249 8283028b 424a024d c283c283     I.JB....M.JB....
   11cf0:	028bc283 02424204 028a4205 c283c286     .....BB..B......
   11d00:	028bc286 8283424a 424a0242 0242424a     ....JB..B.JBJBB.
   11d10:	028a0201 424a0242 028b0242 028a8282     ....B.JBB.......
   11d20:	c283028a 8282024c 82ce82ce c28ac244     ....L.......D...
   11d30:	424a4204 424a424a 0242424a 024a428b     .BJBJBJBJBB..BJ.
   11d40:	424a424d c283424d 02000201 828482ce     MBJBMB..........
   11d50:	02000201 42000201 82848282 c2448284     .......B......D.
   11d60:	c244024c 828582ce c244c283 4208c283     L.D.......D....B
   11d70:	8284c283 82cbc244 82ce424c c2ce424d     ....D...LB..MB..
   11d80:	c244424d 828c8282 828482ce 82cec244     MBD.........D...
   11d90:	828c8282 424d8283 8282828d 828d82ce     ......MB........
   11da0:	828c82ce 828482ce 82834201 424ac241     .........B..A.JB
   11db0:	828dc283 c2cfc244 c2cec244 82cec244     ....D...D...D...
   11dc0:	828ac244 c2cfc245 424a4249 02004201     D...E...IBJB.B..
   11dd0:	c2838282 82858285 424d028a 02004201     ..........MB.B..
   11de0:	0200c282 c245c244 028bc286 4204424a     ....D.E.....JB.B
   11df0:	c283424a 424b424b 028d424b 028b424b     JB..KBKBKB..KB..
   11e00:	02000200 024d0201 42014201 0245424a     ......M..B.BJBE.
   11e10:	424d8283 0245024a 424d028b 82c382ce     ..MBJ.E...MB....
   11e20:	424b4201 424d4242 028ac283 4204c286     .BKBBBMB.......B
   11e30:	4201424a 424d428e 028e8283 028a424d     JB.B.BMB....MB..
   11e40:	02450242 424d8282 028a8282 028e8283     B.E...MB........
   11e50:	024d028a c286028b c283028b 42014201     ..M..........B.B
   11e60:	024a424c 0249424c 8282424c 424c424d     LBJ.LBI.LB..MBLB
   11e70:	028a424d 024c424d 424a028b 028b424a     MB..MBL...JBJB..
   11e80:	82858282 028a0242 424d0244 424a0245     ....B...D.MBE.JB
   11e90:	028a028a 424a028a 424a028b 8284c282     ......JB..JB....
   11ea0:	424ac283 024dc283 c283c244 424a424a     ..JB..M.D...JBJB
   11eb0:	0245424a 028b424a c28382c6 028a424a     JBE.JB......JB..
   11ec0:	42010244 c28382c6 424282c6 0245028a     D..B......BB..E.
   11ed0:	8286028a 424d028a 028e028b 02454201     ......MB.....BE.
   11ee0:	424a4201 82c6c286 8283c286 c286424a     .BJB........JB..
   11ef0:	028e424a 024c424c 424d4201 028a424a     JB..LBL..BMBJB..
   11f00:	024d0201 028d8282 424a8284 424b028a     ..M.......JB..KB
   11f10:	028d028a 420c024d 424a028d 424d4201     ....M..B..JB.BMB
   11f20:	4201c286 028d424a 028a424a 424d424b     ...BJB..JB..KBMB
   11f30:	424c424b 424b424c 02000200 028d028d     KBLBLBKB........
   11f40:	c2838282 82ce8284 0201028a 028d028d     ................
   11f50:	424d028d 02454201 828dc283 8283c283     ..MB.BE.........
   11f60:	028a4204 02424204 c2cec245 424d424c     .B...BB.E...LBMB
   11f70:	4249424c 828dc2ce 02000200 02420242     LBIB........B.B.
   11f80:	424a8283 02010245 424d024c 424a4200     ..JBE...L.MB.BJB
   11f90:	8282c283 424ac283 8282424a 024c424a     ......JBJB..JBL.
   11fa0:	424b424a 424c424c 028d424c c283424d     JBKBLBLBLB..MB..
   11fb0:	82c3424d 02000200 02420242 024a024a     MB......B.B.J.J.
   11fc0:	02420242 424a0244 424b0245 02000245     B.B.D.JBE.KBE...
   11fd0:	024a024a c245024c 024d024d 028bc283     J.J.L.E.M.M.....
   11fe0:	024cc283 02004204 82c6c286 424a424a     ..L..B......JBJB
   11ff0:	024a424a 024d424a 02000200 424a0245     JBJ.JBM.....E.JB
   12000:	82830244 02440244 424a0245 82cf82c6     D...D.D.E.JB....
   12010:	424b028d 8285028d 8284028d 42014201     ..KB.........B.B
   12020:	024a4201 02014201 424cc244 0244424c     .BJ..B..D.LBLBD.
   12030:	424a424d 02000200 42010200 428b424d     MBJB.......BMB.B
   12040:	42010200 024c8282 424d0249 424c028a     ...B..L.I.MB..LB
   12050:	024c024c 028b028d 82c6028e 02004201     L.L..........B..
   12060:	8282424c 028b424c 428e424c 028a424c     LB..LB..LB.BLB..
   12070:	428b424d 428e424d 02000200 424dc283     MB.BMB.B......MB
   12080:	02000200 82c682c3 02420245 424a0245     ........E.B.E.JB
   12090:	424a024a 0200024a 028b82ce 424dc283     J.JBJ.........MB
   120a0:	424a4204 028a4205 424a424c 028b424d     .BJB.B..LBJBMB..
   120b0:	c2868283 82828283 82ce82c6 028b82c6     ................
   120c0:	424a028a 424a028b 8283028b 8282028b     ..JB..JB........
   120d0:	02454242 c286c283 028a4204 c283424a     BBE......B..JB..
   120e0:	424a424d 028b424d 028b8283 82c682c6     MBJBMB..........
   120f0:	424a8283 028b8283 82c682c6 82c682c7     ..JB............
   12100:	424a0249 c283028a 424d024c 4249024c     I.JB....L.MBL.IB
   12110:	82c682cf 82c6c282 8286c286 c286c286     ................
   12120:	82cec2cf 82c68283 42098283 424d424a     ...........BJBMB
   12130:	028e0241 c2448282 828382c3 82c68283     A.....D.........
   12140:	42098283 424d0245 424a0245 4242028a     ...BE.MBE.JB..BB
   12150:	c283024c 424a024d 42044201 42054242     L...M.JB.B.BBB.B
   12160:	02014204 028a424a 424d424a 028a424b     .B..JB..JBMBKB..
   12170:	c2838283 028b0245 028a028c 024c024c     ....E.......L.L.
   12180:	424a028d c286c283 024cc283 424cc244     ..JB......L.D.LB
   12190:	024c424a 028a424b 8285424b 424b424b     JBL.KB..KB..KBKB
   121a0:	0245424b 424c424d 424a8283 424a424a     KBE.MBLB..JBJBJB
   121b0:	024d0241 424d8282 424a8283 02410244     A.M...MB..JBD.A.
   121c0:	024a028a 82c6028b 024d024c 024c4201     ..J.....L.M..BL.
   121d0:	424d4201 42424242 424bc283 024c4204     .BMBBBBB..KB.BL.
   121e0:	028b424a 024c424c 0244424d 424a424a     JB..LBL.MBD.JBJB
   121f0:	42040245 024c0249 8283028a 0245028a     E..BI.L.......E.
   12200:	028a028a 024c4200 82cec283 8285c245     .....BL.....E...
   12210:	0201c245 424b424a 424a424a 0244424a     E...JBKBJBJBJBD.
   12220:	424a424b 02000200 c28b0200 028b028b     KBJB............
   12230:	02000200 c28b0200 82850201 c2440201     ..............D.
   12240:	42010244 028b028b c24482ce 028b4242     D..B......D.BB..
   12250:	82834204 82c6c244 028c424a 028e424d     .B..D...JB..MB..
   12260:	028d424d 424d424d 424a424d 4201424a     MB..MBMBMBJBJB.B
   12270:	028d028a 028a028a 428e028d 424b4242     ...........BBBKB
   12280:	028a428a 4201424a 028d428a 428e428b     .B..JB.B.B...B.B
   12290:	028d428b 428f428b 028c428e 028b428e     .B...B.B.B...B..
   122a0:	028d428e 428e428e 028a428e 428e028a     .B...B.B.B.....B
   122b0:	02010201 02458282 028a8282 82828282     ......E.........
   122c0:	424c8285 428e028a 0244028a 424c028c     ..LB...B..D...LB
   122d0:	424c024c 024a4242 424cc283 c28bc244     L.LBBBJ...LBD...
   122e0:	8282c244 02014208 4204424a 428e424b     D....B..JB.BKB.B
   122f0:	02010200 c2418282 c2868283 82838283     ......A.........
   12300:	024c82c6 428e028d 82c682ce 424d028e     ..L....B......MB
   12310:	c2834242 028bc282 428ec283 c283c244     BB.........BD...
   12320:	8283c286 4208424d 028a424d 428b428e     ....MB.BMB...B.B
   12330:	424a0244 82c682c6 0245028a 424d028a     D.JB......E...MB
   12340:	4242028b 4209024d 82ce82ce 82cf82ce     ..BBM..B........
   12350:	82834242 4201c283 c2834204 424a428b     BB.....B.B...BJB
   12360:	424d424b 424a420c 4209424c 8285428e     KBMB.BJBLB.B.B..

00012370 <pic0_data>:
   12370:	cccccccc cccccccc cccccccc cccccccc     ................
   12380:	cccccccc cccccccc cccccccc cccccccc     ................
   12390:	cccccccc cccccccc cccccccc cccccccc     ................
   123a0:	cccccccc cccccccc cccccccc cccccccc     ................
   123b0:	cccccccc cccccccc cccccccc cccccccc     ................
   123c0:	cccccccc cccccccc cccccccc cccccccc     ................
   123d0:	cccccccc cccccccc cccccccc cccccccc     ................
   123e0:	cccccccc cccccccc cccccccc cccccccc     ................
   123f0:	cccccccc cccccccc cccccccc cccccccc     ................
   12400:	cccccccc cccccccc cccccccc cccccccc     ................
   12410:	cccccccc cccccccc cccccccc cccccccc     ................
   12420:	cccccccc cccccccc cccccccc cccccccc     ................
   12430:	cccccccc cccccccc cccccccc cccccccc     ................
   12440:	cccccccc cccccccc cccccccc cccccccc     ................
   12450:	cccccccc cc6ccccc cccccccc cccccccc     ......l.........
   12460:	cccccccc cccccccc bbdbcccc cccccccc     ................
   12470:	cccccccc cccccccc cccccccc cccccccc     ................
   12480:	cccccccc cccccccc cccccccc cccccccc     ................
   12490:	cc2dcccc cccccccc cccccccc cccccccc     ..-.............
   124a0:	cccccccc ccfdcccc cccccccc cccccccc     ................
   124b0:	cccccccc cccccccc ee4ecccc cccccccc     ..........N.....
   124c0:	cccccccc cccccccc cccccccc cc6ccccc     ..............l.
   124d0:	cccccccc cccccccc cccccccc cccccccc     ................
   124e0:	02cbcccc cccccccc cccccccc cccccccc     ................
   124f0:	cccccccc c19dcccc cccccccc cccccccc     ................
   12500:	cccccccc cccccccc 0c74cccc cccccccc     ..........t.....
   12510:	cccccccc cccccccc cccccccc 4ac9c000     ...............J
   12520:	cccccccc cccccccc cccccccc cccccccc     ................
   12530:	db4adaaa cccccccc cccccccc cccccccc     ..J.............
   12540:	cccccccc 37cac000 cccccccc cccccccc     .......7........
   12550:	cccccccc cccccccc 6af8cccc cccccccc     ...........j....
   12560:	cccccccc cccccccc cccccccc cdb2cccc     ................
   12570:	cccccccc cccccccc cccccccc cccccccc     ................
   12580:	cd7acccc cccccccc cccccccc cccccccc     ..z.............
   12590:	cccccccc c32dcccc cccccccc cccccccc     ......-.........
   125a0:	cccccccc cccccccc be44cccc cccccccc     ..........D.....
   125b0:	dbbbcccc cccccccc cccccccc c480cccc     ................
   125c0:	cccccccc cccccccc cccccccc cccccccc     ................
   125d0:	cd692ccc cccccccc cccccccc cccccccc     .,i.............
   125e0:	cccccccc 017dcccc cccccccc cccccccc     ......}.........
   125f0:	cccccccc cccccccc e3fdcccc cccccccc     ................
   12600:	cccccccc cccccccc cccccccc e3fb2ccc     .............,..
   12610:	cccccccc cccccccc cccccccc cccccccc     ................
   12620:	6dcbdaaa cccccccc cccccccc cccccccc     ...m............
   12630:	cc2ccccc 0c531eee cccccccc cccccccc     ..,...S.........
   12640:	cccccccc dd1dcccc c7f97ddd cccccccc     .........}......
   12650:	cccc888d cccccccc cc4ccccc dea5e100     ..........L.....
   12660:	cccccccc ccccbbbd cccccccc aadacccc     ................
   12670:	f89a9ccc cccccccc ccccbbbd cccccccc     ................
   12680:	afcacccc 9bc22d00 cccccccc ccccccc2     .....-..........
   12690:	cccccccc c6dccccc 753ff0dd cccccccc     ..........?u....
   126a0:	cccceee0 cccccccc c6dccccc 1bf5c1ee     ................
   126b0:	cccccccc ccccccc1 cccccccc 67c8cccc     ...............g
   126c0:	d716ec10 cccc222c cccccc6d cccccccc     ....,"..m.......
   126d0:	ccd2cccc ef556e54 ccccddd5 cccceef2     ....TnU.........
   126e0:	cccccccc c2fccccc f98af874 cccccccb     ........t.......
   126f0:	cccc447d cccccccc dea9cccc 5b3fee54     }D..........T.?[
   12700:	ccccccce cccc99bc 1ccccccc c0adcccc     ................
   12710:	fb6b995e cccc005f ccccaabc daaacccc     ^.k._...........
   12720:	d87ecccc 59cb76f8 cccceffa cccc88fc     ..~..v.Y........
   12730:	fccccccc 0db1caab afcaec20 ccccef9c     ........ .......
   12740:	ccccccc0 c000cccc dcb47ccc 68be99c0     .........|.....h
   12750:	ccccee8a ccccdd80 c000cccc 74f6fa44     ............D..t
   12760:	d906aefb ccccbd35 cccc11c5 dbbbcccc     ....5...........
   12770:	a2f8c900 1c9cf5ab cccc358e ccccdd65     .........5..e...
   12780:	1eddcccc 757cda71 856cefa9 c000c15f     ....q.|u..l._...
   12790:	ccccd8c5 f3cccccc 3ce7fec0 abe2d571     ...........<q...
   127a0:	8ddd02ae cccc1dcb f2cccccc 16adb3cf     ................
   127b0:	4fc57a8d 7cbbd83e ccccf946 6e54cccc     .z.O>..|F.....Tn
   127c0:	dcd7b42f e6d085db d0eed812 cccc4dea     /............M..
   127d0:	e3dccccc d8a5f530 f7e4bf80 02cb029e     ....0...........
   127e0:	222c5c2b a0ddcccc b8fe95d1 f986f5c9     +\,"............
   127f0:	6cedbdf1 ddd9ea6a ca44cccc 3dc676fe     ...lj.....D..v.=
   12800:	5f80bc9a 98c2d892 ccca3bae f5c0cccc     ..._.....;......
   12810:	09ec551e 58f6ebc7 f241d8b9 eee6e836     .U.....X..A.6...
   12820:	4c0dcccc d632b4ad be374a5e ce7222d4     ...L..2.^J7.."r.
   12830:	cccae5d5 e778cccc f89d582d 8fa044f2     ......x.-X...D..
   12840:	6c7eeef1 cccaf87d 8e2dcccc 6ed2ead9     ..~l}.....-....n
   12850:	8e310ea2 f9d2ce20 cccabc23 5d5efecc     ..1. ...#.....^]
   12860:	6cddcf87 af3076cb d698587e cccafe63     ...l.v0.~X..c...
   12870:	567cdc99 93dd1bed 8a9c7de9 7bd02af6     ..|V.....}...*.{
   12880:	ccc6610f f49252cc c4309e54 db8c657f     .a...R..T.0..e..
   12890:	75dc49dc ccc6f232 c7b652cc 8dfc8b6c     .I.u2....R..l...
   128a0:	f3b9defb 1d99fba4 ccc687e6 f5d6f2cc     ................
   128b0:	96fc5ced 5fe9e8f6 74bff126 ccc6e8b3     .\....._&..t....
   128c0:	e643f2cc 96ca6fd9 f398f7e5 1ed6c49d     ..C..o..........
   128d0:	ccc68bef a1c36dcc 41e35bd8 de533c34     .....m...[.A4<S.
   128e0:	e82dc078 ccc685ef 28dfc544 fc6eea4f     x.-.....D..(O.n.
   128f0:	5f9898f5 c8056feb ccc68d7f d195daaa     ..._.o..........
   12900:	45f6dc7e cbf79af3 287f5bda ccc6cd4f     ~..E.....[.(O...
   12910:	38bedccc af3ee6fb 67bfcd6e f77bfa5a     ...8..>.n..gZ.{.
   12920:	666f6d5c 8d0fcccc 86d5f9e1 924cfa73     \mof........s.L.
   12930:	de4cc43b cc68352e 76f0cccc af35d43c     ;.L..5h....v<.5.
   12940:	c4ef0eba 5d835ff2 88bdce76 e7162ccc     ....._.]v....,..
   12950:	338de3d8 76d2e0f7 649eca35 d8f73bdc     ...3...v5..d.;..
   12960:	5ecd2ccc 5ceccce4 2ac9667c ecbf5f6d     .,.^...\|f.*m_..
   12970:	02f3f644 fc982ccc 45dd2cd4 39f262fd     D....,...,.E.b.9
   12980:	af3ce8f9 e7f6d857 4abc2ccc da33ebfa     ..<.W....,.J..3.
   12990:	c49f31f6 bae4e8f9 8acfcdb2 97fd3ccc     .1...........<..
   129a0:	2dd6fac6 af23666f fdb6e8f7 90d4cc5f     ...-of#....._...

000129b0 <mainTheme>:
   129b0:	0000c000 c20001c1 06ff0002 90005301     .............S..
   129c0:	9100504c 92005028 b0005047 b1006407     LP..(P..GP...d..
   129d0:	b2006407 910b6407 900b5034 91005047     .d...d..4P..GP..
   129e0:	92005028 900c5044 91005048 92005034     (P..DP..HP..4P..
   129f0:	900b5045 9100504a 92005028 900c5047     EP..JP..(P..GP..
   12a00:	9100504c 900b5034 91005048 92005028     LP..4P..HP..(P..
   12a10:	900b5045 91005047 92005034 900c5044     EP..GP..4P..DP..
   12a20:	91005045 9200502d 910b5040 900c5039     EP..-P..@P..9P..
   12a30:	91005045 9200502d 900b5040 91005048     EP..-P..@P..HP..
   12a40:	92005039 900c5045 9100504c 9200502d     9P..EP..LP..-P..
   12a50:	910b5048 900b5039 9100504a 9200502d     HP..9P..JP..-P..
   12a60:	900c5047 91005048 92005039 900b5045     GP..HP..9P..EP..
   12a70:	91005047 9200502c 910c5044 92005038     GP..,P..DP..8P..
   12a80:	910b5040 9200502c 900c5044 91005048     @P..,P..DP..HP..
   12a90:	92005038 900b5045 9100504a 9200502c     8P..EP..JP..,P..
   12aa0:	910b5047 900c5038 9100504c 9200502c     GP..8P..LP..,P..
   12ab0:	910b5048 900c5038 91005048 9200502d     HP..8P..HP..-P..
   12ac0:	910b5045 900b5039 91005045 9200502d     EP..9P..EP..-P..
   12ad0:	910c5040 900b5039 91005045 9200502d     @P..9P..EP..-P..
   12ae0:	910c5040 2f0b402d 50300c50 0b50320b     @P..-@./P.0P.2P.
   12af0:	00504a90 00503991 0c504192 0b503291     .JP..9P..AP..2P.
   12b00:	00504c90 00503991 0c504592 00505190     .LP..9P..EP..QP.
   12b10:	00503291 0b504892 0c503991 00504f90     .2P..HP..9P..OP.
   12b20:	00502d91 0b504792 00504d90 00502991     .-P..GP..MP..)P.
   12b30:	0b504592 00504c90 00503091 0c504392     .EP..LP..0P..CP.
   12b40:	0b503791 900c5030 91005048 92005037     .7P.0P..HP..7P..
   12b50:	900b5040 9100504c 92005030 910b5043     @P..LP..0P..CP..
   12b60:	9200502b 900c5045 9100504a 9200502b     +P..EP..JP..+P..
   12b70:	900b5041 91005048 9200402b 900c5040     AP..HP..+@..@P..
   12b80:	91005047 9200502f 910b5044 9200503b     GP../P..DP..;P..
   12b90:	900c5040 91005047 9200502f 900b5044     @P..GP../P..DP..
   12ba0:	91005048 9200503b 900b5045 9100504a     HP..;P..EP..JP..
   12bb0:	92005028 910c5047 92005034 900b5044     (P..GP..4P..DP..
   12bc0:	9100504c 92005028 910c5048 92005034     LP..(P..HP..4P..
   12bd0:	900b5044 91005048 9200502d 910c5045     DP..HP..-P..EP..
   12be0:	900b5039 91005045 9200502d 910b5040     9P..EP..-P..@P..
   12bf0:	900c5039 91005045 9200502d 910b5040     9P..EP..-P..@P..
   12c00:	9022402d 9100504c 92005028 910c5047     -@".LP..(P..GP..
   12c10:	900b5034 91005047 92005028 900c5044     4P..GP..(P..DP..
   12c20:	91005048 92005034 900b5045 9100504a     HP..4P..EP..JP..
   12c30:	92005028 900c5047 9100504c 90055034     (P..GP..LP..4P..
   12c40:	4806504a 28910050 45920050 47900b50     JP.HP..(P..EP..G
   12c50:	34910050 44920050 45900c50 2d910050     P..4P..DP..EP..-
   12c60:	40920050 39910b50 45900c50 2d910050     P..@P..9P..EP..-
   12c70:	40920050 48900b50 39910050 45920050     P..@P..HP..9P..E
   12c80:	4c900c50 2d910050 48920050 39910b50     P..LP..-P..HP..9
   12c90:	4a900b50 2d910050 47920050 48900c50     P..JP..-P..GP..H
   12ca0:	39910050 45920050 47900b50 2c910050     P..9P..EP..GP..,
   12cb0:	44920050 38910c50 40920050 2c910b50     P..DP..8P..@P..,
   12cc0:	44920050 48900b50 38910050 45920050     P..DP..HP..8P..E
   12cd0:	4a900c50 2c910050 47920050 38910b50     P..JP..,P..GP..8
   12ce0:	4c900c50 2c910050 48920050 38910b50     P..LP..,P..HP..8
   12cf0:	48900c50 2d910050 45920050 39910b50     P..HP..-P..EP..9
   12d00:	45900b50 2d910050 40920050 39910c50     P..EP..-P..@P..9
   12d10:	45900b50 2d910050 40920050 2d910c50     P..EP..-P..@P..-
   12d20:	502f0b40 0b50300c 900b5032 9100504a     @./P.0P.2P..JP..
   12d30:	92005039 910c5041 900b5032 9100504c     9P..AP..2P..LP..
   12d40:	92005039 900c5045 91005051 92005032     9P..EP..QP..2P..
   12d50:	910b5048 900b5039 9100504f 9200502d     HP..9P..OP..-P..
   12d60:	900c5047 9100504d 92005029 900b5045     GP..MP..)P..EP..
   12d70:	9100504c 92005030 910c5043 300b5037     LP..0P..CP..7P.0
   12d80:	48900c50 37910050 40920050 4c900b50     P..HP..7P..@P..L
   12d90:	30910050 43920050 2b910b50 45920050     P..0P..CP..+P..E
   12da0:	4a900c50 2b910050 41920050 48900b50     P..JP..+P..AP..H
   12db0:	2b910050 40920040 47900c50 2f910050     P..+@..@P..GP../
   12dc0:	44920050 3b910b50 40920050 47900c50     P..DP..;P..@P..G
   12dd0:	2f910050 44920050 48900b50 3b910050     P../P..DP..HP..;
   12de0:	45920050 4a900b50 28910050 47920050     P..EP..JP..(P..G
   12df0:	34910c50 44920050 4c900b50 28910050     P..4P..DP..LP..(
   12e00:	48920050 34910c50 44920050 48900b50     P..HP..4P..DP..H
   12e10:	2d910050 45920050 39910b50 45900c50     P..-P..EP..9P..E
   12e20:	2d910050 40920050 39910b50 45900c50     P..-P..@P..9P..E
   12e30:	2d910050 40920050 2d910b50 402d0c40     P..-P..@P..-@.-@
   12e40:	0b402d0b 00504c90 00503991 0c504892     .-@..LP..9P..HP.
   12e50:	0b504091 400c5039 48900b50 39910050     .@P.9P.@P..HP..9
   12e60:	45920050 40910c50 50390b50 0c50400b     P..EP..@P.9P.@P.
   12e70:	00504a90 00503891 0b504792 0c504091     .JP..8P..GP..@P.
   12e80:	400b5038 47900b50 38910050 44920050     8P.@P..GP..8P..D
   12e90:	40910c50 50380b50 0b50400c 00504890     P..@P.8P.@P..HP.
   12ea0:	00503991 0c504592 0b504091 400b5039     .9P..EP..@P.9P.@
   12eb0:	45900c50 39910050 40920050 40910b50     P..EP..9P..@P..@
   12ec0:	50390c50 0c50400b 00504490 00503891     P.9P.@P..DP..8P.
   12ed0:	0b504092 0b504091 400c5038 47900b50     .@P..@P.8P.@P..G
   12ee0:	38910050 44920050 40910c50 40380b40     P..8P..DP..@@.8@
   12ef0:	0c40400b 00504c90 00503991 0b504892     .@@..LP..9P..HP.
   12f00:	0c504091 400b5039 48900c50 39910050     .@P.9P.@P..HP..9
   12f10:	45920050 40910b50 50390b50 0b50400c     P..EP..@P.9P.@P.
   12f20:	00504a90 00503891 0c504792 0b504091     .JP..8P..GP..@P.
   12f30:	400c5038 47900b50 38910050 44920050     8P.@P..GP..8P..D
   12f40:	40910b50 50380c50 0c50400b 00504890     P..@P.8P.@P..HP.
   12f50:	00503991 0b504592 0b504091 00504c90     .9P..EP..@P..LP.
   12f60:	00503991 0c504892 0b504091 00505190     .9P..HP..@P..QP.
   12f70:	00503991 0c504c92 0b504091 400c5039     .9P..LP..@P.9P.@
   12f80:	50900b50 38910050 4a920050 40910b50     P..PP..8P..JP..@
   12f90:	50380c50 0c50400b 400b4038 40400c40     P.8P.@P.8@.@@.@@
   12fa0:	0b40400b 00504c90 00503991 0c504892     .@@..LP..9P..HP.
   12fb0:	0b504091 400c5039 48900b50 39910050     .@P.9P.@P..HP..9
   12fc0:	45920050 40910b50 50390c50 0c50400b     P..EP..@P.9P.@P.
   12fd0:	00504a90 00503891 0b504792 0c504091     .JP..8P..GP..@P.
   12fe0:	400b5038 47900b50 38910050 44920050     8P.@P..GP..8P..D
   12ff0:	40910c50 50380b50 0b50400c 00504890     P..@P.8P.@P..HP.
   13000:	00503991 0c504592 0b504091 400b5039     .9P..EP..@P.9P.@
   13010:	45900c50 39910050 40920050 40910b50     P..EP..9P..@P..@
   13020:	50390c50 0b50400b 00504490 00503891     P.9P.@P..DP..8P.
   13030:	0c504092 0b504091 400c5038 47900b50     .@P..@P.8P.@P..G
   13040:	38910050 44920050 40910c50 40400b40     P..8P..DP..@@.@@
   13050:	0c40400b 00504c90 00503991 0b504892     .@@..LP..9P..HP.
   13060:	0c504091 400b5039 48900c50 39910050     .@P.9P.@P..HP..9
   13070:	45920050 40910b50 50390b50 0b50400c     P..EP..@P.9P.@P.
   13080:	00504a90 00503891 0c504792 0b504091     .JP..8P..GP..@P.
   13090:	400b5038 47900c50 38910050 44920050     8P.@P..GP..8P..D
   130a0:	40910b50 50380c50 0c50400b 00504890     P..@P.8P.@P..HP.
   130b0:	00503991 0b504592 0b504091 00504c90     .9P..EP..@P..LP.
   130c0:	00503991 0c504892 0b504091 00505190     .9P..HP..@P..QP.
   130d0:	00503991 0c504c92 0b504091 400c5039     .9P..LP..@P.9P.@
   130e0:	50900b50 38910050 4a920050 40910b50     P..PP..8P..JP..@
   130f0:	50380c50 0c50400b 400b4038 40400b40     P.8P.@P.8@.@@.@@
   13100:	0b40400c 00504c90 00502891 0c504792     .@@..LP..(P..GP.
   13110:	0b503491 00504790 00502891 0c504492     .4P..GP..(P..DP.
   13120:	00504890 00503491 0b504592 00504a90     .HP..4P..EP..JP.
   13130:	00502891 0b504792 00504c90 0c503491     .(P..GP..LP..4P.
   13140:	00504890 00502891 0b504592 00504790     .HP..(P..EP..GP.
   13150:	00503491 0c504492 00504590 00502d91     .4P..DP..EP..-P.
   13160:	0b504092 0c503991 00504590 00502d91     .@P..9P..EP..-P.
   13170:	0b504092 00504890 00503991 0b504592     .@P..HP..9P..EP.
   13180:	00504c90 00502d91 0c504892 0b503991     .LP..-P..HP..9P.
   13190:	00504a90 00502d91 0c504792 00504890     .JP..-P..GP..HP.
   131a0:	00503991 0b504592 00504790 00502c91     .9P..EP..GP..,P.
   131b0:	0c504492 00503891 0b504092 00502c91     .DP..8P..@P..,P.
   131c0:	0b504492 00504890 00503891 0c504592     .DP..HP..8P..EP.
   131d0:	00504a90 00502c91 0b504792 0c503891     .JP..,P..GP..8P.
   131e0:	00504c90 00502c91 0b504892 0b503891     .LP..,P..HP..8P.
   131f0:	00504890 00502d91 0c504592 0b503991     .HP..-P..EP..9P.
   13200:	00504590 00502d91 0c504092 0b503991     .EP..-P..@P..9P.
   13210:	00504590 00502d91 0c504092 0b402d91     .EP..-P..@P..-@.
   13220:	300b502f 50320c50 504a900b 50399100     /P.0P.2P..JP..9P
   13230:	50419200 5032910c 504c900b 50399100     ..AP..2P..LP..9P
   13240:	50459200 5051900c 50329100 50489200     ..EP..QP..2P..HP
   13250:	5039910b 504f900b 502d9100 50479200     ..9P..OP..-P..GP
   13260:	504d900c 50299100 50459200 504c900b     ..MP..)P..EP..LP
   13270:	50309100 50439200 5037910c 0b50300b     ..0P..CP..7P.0P.
   13280:	00504890 00503791 0c504092 00504c90     .HP..7P..@P..LP.
   13290:	00503091 0b504392 00502b91 0c504592     .0P..CP..+P..EP.
   132a0:	00504a90 00502b91 0b504192 00504890     .JP..+P..AP..HP.
   132b0:	00402b91 0c504092 00504790 00502f91     .+@..@P..GP../P.
   132c0:	0b504492 00503b91 0b504092 00504790     .DP..;P..@P..GP.
   132d0:	00502f91 0c504492 00504890 00503b91     ./P..DP..HP..;P.
   132e0:	0b504592 00504a90 00502891 0c504792     .EP..JP..(P..GP.
   132f0:	00503491 0b504492 00504c90 00502891     .4P..DP..LP..(P.
   13300:	0c504892 00503491 0b504492 00504890     .HP..4P..DP..HP.
   13310:	00502d91 0b504592 0c503991 00504590     .-P..EP..9P..EP.
   13320:	00502d91 0b504092 0c503991 00504590     .-P..@P..9P..EP.
   13330:	00502d91 0b504092 0b402d91 2d0c402d     .-P..@P..-@.-@.-
   13340:	4c900b40 28910050 47920050 34910c50     @..LP..(P..GP..4
   13350:	47900b50 28910050 44920050 48900c50     P..GP..(P..DP..H
   13360:	34910050 45920050 4a900b50 28910050     P..4P..EP..JP..(
   13370:	47920050 4c900b50 34910050 4a900650     P..GP..LP..4P..J
   13380:	50480650 50289100 50459200 5047900b     P.HP..(P..EP..GP
   13390:	50349100 50449200 5045900c 502d9100     ..4P..DP..EP..-P
   133a0:	50409200 5039910b 5045900c 502d9100     ..@P..9P..EP..-P
   133b0:	50409200 5048900b 50399100 50459200     ..@P..HP..9P..EP
   133c0:	504c900b 502d9100 50489200 5039910c     ..LP..-P..HP..9P
   133d0:	504a900b 502d9100 50479200 5048900c     ..JP..-P..GP..HP
   133e0:	50399100 50459200 5047900b 502c9100     ..9P..EP..GP..,P
   133f0:	50449200 5038910b 50409200 502c910c     ..DP..8P..@P..,P
   13400:	50449200 5048900b 50389100 50459200     ..DP..HP..8P..EP
   13410:	504a900c 502c9100 50479200 5038910b     ..JP..,P..GP..8P
   13420:	504c900c 502c9100 50489200 5038910b     ..LP..,P..HP..8P
   13430:	5048900b 502d9100 50459200 5039910c     ..HP..-P..EP..9P
   13440:	5045900b 502d9100 50409200 5039910c     ..EP..-P..@P..9P
   13450:	5045900b 502d9100 50409200 402d910c     ..EP..-P..@P..-@
   13460:	0b502f0b 320c5030 4a900b50 39910050     ./P.0P.2P..JP..9
   13470:	41920050 32910c50 4c900b50 39910050     P..AP..2P..LP..9
   13480:	45920050 51900b50 32910050 48920050     P..EP..QP..2P..H
   13490:	39910c50 4f900b50 2d910050 47920050     P..9P..OP..-P..G
   134a0:	4d900c50 29910050 45920050 4c900b50     P..MP..)P..EP..L
   134b0:	30910050 43920050 37910c50 50300b50     P..0P..CP..7P.0P
   134c0:	5048900b 50379100 50409200 504c900c     ..HP..7P..@P..LP
   134d0:	50309100 50439200 502b910b 50459200     ..0P..CP..+P..EP
   134e0:	504a900c 502b9100 50419200 5048900b     ..JP..+P..AP..HP
   134f0:	50409200 5047900c 502f9100 50449200     ..@P..GP../P..DP
   13500:	503b910b 50409200 5047900b 502f9100     ..;P..@P..GP../P
   13510:	50449200 5048900c 503b9100 50459200     ..DP..HP..;P..EP
   13520:	504a900b 50289100 50479200 5034910c     ..JP..(P..GP..4P
   13530:	50449200 504c900b 50289100 50489200     ..DP..LP..(P..HP
   13540:	5034910b 50449200 5048900c 502d9100     ..4P..DP..HP..-P
   13550:	50459200 5039910b 5045900c 502d9100     ..EP..9P..EP..-P
   13560:	50409200 5039910b 5045900c 502d9100     ..@P..9P..EP..-P
   13570:	50409200 402d910b 0c402d0b ff0b402d     ..@P..-@.-@.-@..
   13580:	00450106 00002fff                       ..E../..

00013588 <patches>:
   13588:	000a0000 00013750 00000000 00000100     ....P7..........
   13598:	000b0000 00013748 00001eba 00001eba     ....H7..........
   135a8:	000c0000 00013748 0000809f 0000809f     ....H7..........
   135b8:	00000000 00013728 00000000 00000100     ....(7..........
   135c8:	00000000 00013714 00000000 00000100     .....7..........
   135d8:	00000001 00013700 00000000 00000100     .....7..........
   135e8:	00000000 000136d0 00000000 00000100     .....6..........
   135f8:	00000000 00013698 00000000 00000100     .....6..........
   13608:	00000000 00013660 00000000 00000100     ....`6..........
   13618:	00000000 00013628 00000000 00000100     ....(6..........

00013628 <freeFallPatch>:
   13628:	00090200 00006308 020401fa 01010401     .....c..........
   13638:	04010104 01040101 01010401 04010104     ................
   13648:	01040501 05010405 04050104 01040101     ................
   13658:	01020401 ff000005                       ........

00013660 <gameOverPatch>:
   13660:	00080200 00005008 010401fc 01020301     .....P..........
   13670:	03050304 06040502 05030305 03050404     ................
   13680:	03040503 05030305 04050304 02030503     ................
   13690:	05010405 ff000005                       ........

00013698 <levelClearPatch>:
   13698:	00000200 00005a08 020401fc 01010301     .....Z..........
   136a8:	03050304 06040202 02070305 03050404     ................
   136b8:	04040207 01060302 04010104 03030201     ................
   136c8:	05020305 ff000005                       ........

000136d0 <lineClearPatch>:
   136d0:	00090200 00005008 010401fb 01020301     .....P..........
   136e0:	03050104 03040503 05030305 03050404     ................
   136f0:	03030503 05030305 03050303 00ff0003     ................

00013700 <menuErrorPatch>:
   13700:	00050200 0800c807 00070522 02c80703     ........".......
   13710:	ff000005                                ....

00013714 <menuMove>:
   13714:	00090200 00004608 0a0303f6 00000502     .....F..........
   13724:	000000ff                                ....

00013728 <rotatePatch>:
   13728:	00000200 00005008 010301f6 01020301     .....P..........
   13738:	04050103 03030503 00000505 000000ff     ................

00013748 <bassPatch>:
   13748:	00ff0700 ff000000                       ........

00013750 <synthVibraphonePatch>:
   13750:	00280a00 00003209 00ff00fb              ..(..2......

0001375c <data_piano>:
	...
   13784:	ff000000 00000000 00000000 0000ffff     ................
   13794:	00000000 01000000 ffff0000 00fffefe     ................
   137a4:	ffff0001 0100ffff 00000101 00010000     ................
   137b4:	ff000000 fcfbfcfe 0000fffe 00000101     ................
   137c4:	03020201 feff0002 010100fe fefdfdff     ................
   137d4:	fe000100 fefcfbfc 01020201 0200ffff     ................
   137e4:	02040504 fefdfd00 fefdfdfe 02020100     ................
   137f4:	fd010202 00fdfafa 02010101 fe000203     ................
   13804:	020302ff fdfefe00 00fefdfd fcff0303     ................
   13814:	fafafafa 0201fffb fefeff00 040301ff     ................
   13824:	fcfd0003 f6f6fafc 0201fefa fe000101     ................
   13834:	f8f8f9fc 030200fc 07070705 f6fc0206     ................
   13844:	f1f3f4f4 00fcf6f2 fd000303 040401fd     ................
   13854:	120c0604 07111515 fcf7f6fc 0c0b0802     ................
   13864:	06090a0b fd020303 ecedf0f6 e8e7e8ea     ................
   13874:	fbf4eeeb 1d180f04 181a1c1e 12171818     ................
   13884:	0f0c0a0c 060b1011 02000002 07090805     ................
   13894:	f9fc0004 f3f7f8f8 fff9f3f1 08060503     ................
   138a4:	201a150e 2b313029 0a101822 f1f9ff04     ... )01+".......
   138b4:	dbdde2e9 e5e4e1dd e5e4e3e4 e6e8e8e6     ................
   138c4:	e7e2e0e2 f9f8f3ed f3f5f7f8 e2e5e9ee     ................
   138d4:	dcdcdee0 e5e3e2df fbf8f2eb f9f9f9fa     ................
   138e4:	0c0a04fd 0c0c0b0b 0707090b 02040708     ................
   138f4:	03060503 fbf9fbff fcfbfbfc ebf1f7fc     ................
   13904:	eeeae8e8 fefcf9f4 090501ff 0d0c0c0b     ................
   13914:	0d121411 1b160f0b 2c26221f 36373733     ........."&,3776
   13924:	32333535 38353232 4044423d 26293038     55322258=BD@80)&
   13934:	26262424 1f222526 0511191c edecf0f9     $$&&&%".........
   13944:	f3f6f4f0 dbe0e6ed dbd7d6d7 dcdededd     ................
   13954:	e0e1dedc c9ccd3db cbcac9c7 cdcac8c9     ................
   13964:	ddd8d4d0 d9dee1e0 c5ccd1d5 d2c6bfc0     ................
   13974:	02f9eee0 1212100a 10151614 0202050a     ................
   13984:	02030403 00fefe00 00040503 dfe3ebf6     ................
   13994:	e9e4e0de f3f0eeec f3f4f6f5 0afff8f4     ................
   139a4:	322c2216 35373735 242a2e31 0b0e141c     .",257751.*$....
   139b4:	100e0c0b 1f211d15 11111319 15141312     ......!.........
   139c4:	10111315 16171512 0b0e1114 f9fc0005     ................
   139d4:	f9f6f6f7 090602fe 1916100b 2b241d1a     ..............$+
   139e4:	1f242a2d 2a27221e 312f2d2b 282b2f32     -*$.."'*+-/12/+(
   139f4:	26262525 161a1f24 01070d12 f2f4f7fc     %%&&$...........
   13a04:	f0ededef fffefaf5 06040200 00040607     ................
   13a14:	f8f4f5fb 121009ff 14110f10 0e101314     ................
   13a24:	18130e0c 20211e1b fd040f19 fefdfafa     ......! ........
   13a34:	fafdfefe dfe6edf4 c8cdd3da babec2c4     ................
   13a44:	a9adb1b5 9a9da1a5 98999a9a 92949697     ................
   13a54:	9d989492 9d9f9f9f 97929398 b8b0a79e     ................
   13a64:	c1c3c2be babebfc0 b6b1b1b5 e0d5cabf     ................
   13a74:	f9f0eae6 1c160e04 1c202220 14131417     ........ " .....
   13a84:	221b1714 20282b28 0a0e1318 fdfd0005     ..."(+( ........
   13a94:	030201ff fdfe0103 0f0b05ff 271e1712     ...............'
   13aa4:	50483c31 45494e52 383d3f42 2f303134     1<HPRNIEB?=8410/
   13ab4:	31302f2f 30313232 3834302f 34333538     //012210/0488534
   13ac4:	3e3f3c38 2f32363a 24272a2c 1a1c1f21     8<?>:62/,*'$!...
   13ad4:	12111418 211b1715 2f2e2c27 3130302f     .......!',.//001
   13ae4:	3a383633 3636383a 3b3a3836 3c383739     368::86668:;978<
   13af4:	3b424441 24262a32 191e2022 07070b12     ADB;2*&$" ......
   13b04:	17130f0a 211f1d1a 23252523 16171b1f     .......!#%%#....
   13b14:	211f1d18 1b1f2121 1d191718 2e282320     ...!!!...... #(.
   13b24:	2e313333 2628292b 20232324 1416181c     331.+)(&$## ....
   13b34:	fe050b11 f6f7f7f9 e2eaf1f5 c4c9d0d9     ................
   13b44:	c2c2c1c2 abafb6bd a2a4a6a9 9d9fa0a0     ................
   13b54:	9396979a 8082878e 938d8782 9b9d9c98     ................
   13b64:	8c909498 8b898889 898a8c8d a59b928c     ................
   13b74:	ccc5bbb0 dbd9d6d2 d1d2d5d9 eae3dbd4     ................
   13b84:	e6e7eaec e5e6e7e7 d6dce0e3 cfcdcdd0     ................
   13b94:	c4caced0 c0bebdc0 cfc8c5c3 fbf2e7da     ................
   13ba4:	0b080501 0f0f0e0d 0204090d 08060402     ................
   13bb4:	03050708 fbfd0001 0a03fefc 1e1a1510     ................
   13bc4:	0e10161c 17171511 080a0f14 06070707     ................
   13bd4:	09050404 1917140f 231e1b1a 3635312a     ...........#*156
   13be4:	302f3235 3e383432 4a474542 5e5a544e     52/0248>BEGJNTZ^
   13bf4:	595b5d5e 4b515558 32383f45 33312f2f     ^][YXUQKE?82//13
   13c04:	3e3c3936 3a3d3f3f 413b3838 45474846     69<>??=:88;AFHGE
   13c14:	383c3f43 36333335 423c3837 4b4e4e49     C?<8533678<BINNK
   13c24:	41414347 4f4d4943 3e444a4e 3132363a     GCAACIMONJD>:621
   13c34:	282b2e30 1c212527 070b1016 f6fb0105     0.+('%!.........
   13c44:	e0e6ecf1 ced0d4da d1d0d0cf b7c1cbd0     ................
   13c54:	acababaf abababac b5b4b0ad afafb1b4     ................
   13c64:	abadafaf 949aa1a7 a59a9291 c5c2bbb1     ................
   13c74:	d7d1ccc8 dddddddc e4e2dfdd edeceae7     ................
   13c84:	f3f2f0ee eaeceef1 e8eaeae9 d5dbe0e4     ................
   13c94:	c5c7cad0 c4c4c5c5 e0d7cfc8 fef8f0e8     ................
   13ca4:	15130c04 01040a11 0d0b0703 fe03090d     ................
   13cb4:	fdfdfdfc f7f6f7fa 0703fffb 0b0a0a09     ................
   13cc4:	1213110e 00040a0f 0100fffe f8fafdff     ................
   13cd4:	fbf9f7f8 0b0602fe 1c19140f 1d1c1d1d     ................
   13ce4:	1f20201f 2623211f 342f2c29 49443e39     .  ..!#&),/49>DI
   13cf4:	44494c4b 252c343d 21212122 1f1f2020     KLID=4,%"!!!  ..
   13d04:	1d1e1e1f 201f1e1e 332f2a24 20272e32     ....... $*/32.' 
   13d14:	1718191b 1e1d1b19 2221201f 24222222     ......... !""""$
   13d24:	2d2d2a27 2b2b2c2d 1e24282a 16161618     '*---,++*($.....
   13d34:	03070e13 02010001 f3faff02 d6dce4ec     ................
   13d44:	ced0d1d3 d1d0cecd b5bec7ce acaaaaae     ................
   13d54:	aaafb1af aba6a4a6 bbb9b6b1 b5babdbd     ................
   13d64:	a2a6abb0 a19f9ea0 b3aea9a4 cac5bfb9     ................
   13d74:	dad8d5d0 eae4dfdc f6f5f3ef fdfbf9f8     ................
   13d84:	00ff00ff 11100c05 fe03090e f5f7f9fb     ................
   13d94:	dae1e9f0 e0dad6d7 f9f4efe7 140e06ff     ................
   13da4:	1d1b1a18 24232220 191d2224 19171516     .... "#$$"......
   13db4:	0f13171a 0c0b0b0c 221c1510 2c2d2b27     ..........."'+-,
   13dc4:	2b2a292a 27292a2b 1e202225 1a1b1b1c     *)*++*)'%" .....
   13dd4:	1e1b1a1a 2a292622 312f2e2c 3b393733     ...."&)*,./1379;
   13de4:	33373a3b 39333030 514c463f 5f5e5a55     ;:730039?FLQUZ^_
   13df4:	4e555b5e 3e3f4146 33373b3e 27292c2f     ^[UNFA?>>;73/,)'
   13e04:	2d282525 35363532 30313133 2426292d     %%(-25653110-)&$
   13e14:	21232424 17191b1e 18161516 1e1f1e1b     $$#!............
   13e24:	1b1a1b1d 2223211e 10151a1f fb00050b     .....!#"........
   13e34:	fffaf7f7 f6ff0303 d3d9e2ec cbccccce     ................
   13e44:	c1c4c7ca b6babcbf a3a8adb2 92969b9f     ................
   13e54:	928f8e8f a2a19d98 a6a6a5a4 93999fa4     ................
   13e64:	888a8b8e 8a868486 9f9b9690 a7a5a4a2     ................
   13e74:	c6bcb2aa d2d1d0cd dcd8d6d4 e6e5e3df     ................
   13e84:	f2eeeae7 fdfcfaf6 f5f8fbfc d6dee7ef     ................
   13e94:	cccbccd0 d4d1cfce e1dcd9d7 03fcf2e9     ................
   13ea4:	0d0c0b08 100e0d0d 12141412 090b0d10     ................
   13eb4:	03050608 0b080403 1f19130f 29282623     ............#&()
   13ec4:	2d2d2c2a 23282b2d 1c1b1b1e 1c1e1e1d     *,---+(#........
   13ed4:	1d191819 29262320 3634312d 35363637     .... #&)-1467665
   13ee4:	2b2d3034 453c332e 5755524d 5e5c5b59     40-+.3<EMRUWY[\^
   13ef4:	5d5e5f5f 4d53585b 393d4247 3c393737     __^][XSMGB=9779<
   13f04:	4443413f 3e3e3f42 41424140 3a3c3f40     ?ACDB?>>@ABA@?<:
   13f14:	2e303437 2f2e2d2d 2d2f3030 2b2a2b2c     740.--./00/-,+*+
   13f24:	413c362f 32393e41 1f22262b 1e1d1d1e     /6<AA>92+&".....
   13f34:	171b1e1e 07090c11 edf5fc02 dbdee2e7     ................
   13f44:	d7d9dbdb cad0d3d5 a8b1bac3 9e9e9ea2     ................
   13f54:	9f9d9e9e b4b0a9a3 a8aeb3b6 929599a0     ................
   13f64:	8e8f9091 918e8c8d 97949392 aaa6a19c     ................
   13f74:	bcb7b3af ccc9c5c1 d2d2d1cf d5d2d1d1     ................
   13f84:	f0e8e0d9 f3f7f9f6 e2e5e9ee ced6dce0     ................
   13f94:	bdbfc3c7 c5c1bebd d8d2cdc9 ede8e2dd     ................
   13fa4:	fffcf7f2 04030201 ff020505 fbfafafc     ................
   13fb4:	f5f8fafb f8f5f4f4 110a03fd 1a1b1916     ................
   13fc4:	1c1c1b19 1215181a 11100f10 0a0d1011     ................
   13fd4:	130d0a09 27241e19 24252728 1f202123     ......$'('%$#! .
   13fe4:	29252220 3938342f 46403c3a 5d5a554e      "%)/489:<@FNUZ]
   13ff4:	52585b5d 3b40464c 37363638 39383737     ][XRLF@;86677789
   14004:	37363738 403f3d39 383a3d3f 35353537     87679=?@?=:87555
   14014:	33353636 21252b30 2a25211f 37373530     66530+%!.!%*0577
   14024:	36363637 2f323536 2728292b 1d1f2224     7666652/+)('$"..
   14034:	1c1c1c1c 040d151a f1f3f6fd e8ebeef0     ................
   14044:	e6e5e5e5 d1d9e0e4 aeb5bec7 a6a4a5a8     ................
   14054:	bab5b0ab b9bbbdbc b0b3b5b7 a0a3a8ad     ................
   14064:	98999b9e 9e9b9998 a3a3a2a1 b0a9a5a3     ................
   14074:	ccc9c2ba cccccdcd d4d2d0ce e4e0dcd8     ................
   14084:	f7f2eee9 fefffefb edf3f8fb d2d8dfe6     ................
   14094:	c9cbcdcf cbcac9c8 d9d4d1ce f6ede5df     ................
   140a4:	040402fd 0a070504 090b0c0b 03040507     ................
   140b4:	fcfe0002 0501fefc 201c150c 25232222     ........... ""#%
   140c4:	2a2a2827 23242628 191d2022 1b161415     '(**(&$#" ......
   140d4:	302c2620 2f303232 3230302f 36353534      &,0220//0024556
   140e4:	37383837 403b3736 615b5249 67676664     788767;@IR[adfgg
   140f4:	5b5f6366 4d4f5357 3e42474b 45413d3c     fc_[WSOMKGB><=AE
   14104:	42484a49 3a393a3d 4342403d 3e404142     IJHB=:9:=@BCBA@>
   14114:	272d353b 27232122 2d2e2d2a 34312d2c     ;5-'"!#'*-.-,-14
   14124:	33363737 282a2c2f 24272828 1f212223     7763/,*((('$#"!.
   14134:	1216191c 00060a0e e7ebf1f9 edeae7e6     ................
   14144:	e0e7ecee bdc6cfd8 a5a8adb4 a5a6a5a4     ................
   14154:	aaa7a5a4 afb1b1ae 9ba2a7ab 94939396     ................
   14164:	898d9193 85848486 928e8a87 a5a09c97     ................
   14174:	aeabaaa8 bbb9b6b2 c0bebdbc d4cfcac4     ................
   14184:	ebe5ded8 eef1f1f0 dde1e6ea ced3d7d9     ................
   14194:	bcbec3c8 c3c0bdbc d2ccc8c5 ede8e1d9     ................
   141a4:	fbf8f5f2 050401fe 03040405 fcff0002     ................
   141b4:	f8f7f7f9 090500fc 14110f0d 29241e18     ..............$)
   141c4:	26292b2b 171b1f23 11101114 22201b16     ++)&#......... "
   141d4:	22212122 2b282523 302f2e2d 282c2f30     "!!"#%(+-./00/,(
   141e4:	2d272425 42403b34 534c4845 6565625b     %$'-4;@BEHLS[bee
   141f4:	53575c61 43464a4e 44424041 3f454746     a\WSNJFCA@BDFGE?
   14204:	37353539 41403e3b 40414141 373b3e40     9557;>@AAAA@@>;7
   14214:	25282c31 25232223 34312d29 2f323434     1,(%#"#%)-14442/
   14224:	3533302f 2e303235 2c2d2d2e 2a2c2c2c     /035520..--,,,,*
   14234:	161d2227 ff02080f fffefdfd f5fafe00     '"..............
   14244:	e3e7ebf0 c5ced6dd abadb3bb aeadacab     ................
   14254:	b2b3b2b0 adacaeb0 a8acadad 95999ea4     ................
   14264:	8a8a8d91 8d8b8b8a 98959290 a29e9d9b     ................
   14274:	b4b1aca7 b5b4b4b5 c6c0bab7 d7d3d0cb     ................
   14284:	ece7e2dc f0f0f1f0 e5eaedef d0d6dbe0     ................
   14294:	c5c6c8cb c7c5c4c4 d9d4ceca ebe7e3de     ................
   142a4:	0500f9f1 06070707 03030305 00010203     ................
   142b4:	00010101 0300ff00 21191009 2c2b2a27     ...........!'*+,
   142c4:	2025282a 1917181b 1a1c1d1b 16151618     *(% ............
   142d4:	2927211a 2a29292a 292a2a2a 26252527     .!')*))****)'%%&
   142e4:	29292827 3c352f2b 5a554e45 56585a5b     '())+/5<ENUZ[ZXV
   142f4:	52535454 4b4b4c4f 3f414549 3b3d3d3d     TTSROLKKIEA?===;
   14304:	3838383a 423f3b39 3e424444 2c2f3439     :8889;?BDDB>94/,
   14314:	22232629 27262423 2a292827 2f2e2d2b     )&#"#$&''()*+-./
   14324:	27292c2e 2e282525 32353533 1e242a2f     .,)'%%(.3552/*$.
   14334:	0f111419 04080c0e fffeff00 fbfeff00     ................
   14344:	dee6eef5 c6cbd1d7 b7b9bdc1 b1b2b4b5     ................
   14354:	b5b4b2b1 bbbcbab7 aab0b5ba 9d9fa2a5     ................
   14364:	9396999b 96949392 a6a39f9a adaaa9a8     ................
   14374:	b4b3b2b0 c1bebab6 cecbc8c5 e3ddd7d2     ................
   14384:	f7f3eee9 00fffdfb f1f6fbff dee1e5eb     ................
   14394:	d3d5d8db d4d3d3d3 ddd7d4d3 fcf5ede4     ................
   143a4:	07060401 0b0a0908 0e0d0c0b 070c0e0f     ................
   143b4:	fbfbfd02 140e06ff 24201d19 29282726     .......... $&'()
   143c4:	27292b2a 1d202325 18161619 23221f1c     *+)'%# ......."#
   143d4:	29272624 2e2c2b2b 292d2f2f 1e1f2125     $&')++,.//-)%!..
   143e4:	302a2420 403c3935 504c4844 53545553      $*059<@DHLPSUTS
   143f4:	51535454 4b4d4f4f 3d404448 3637393b     TTSQOOMKHD@=;976
   14404:	413e3a37 3e404242 3b3c3c3d 2c313538     7:>ABB@>=<<;851,
   14414:	1e1f2327 2a26211e 2b2e2f2d 1d1e2126     '#...!&*-/.+&!..
   14424:	29262320 2f2e2c2a 2d303131 191f2429      #&)*,./110-)$..
   14434:	090b0f14 03030406 03060605 eff4f9ff     ................
   14444:	dde2e6ea c5ccd2d7 afb2b7bd afaeadad     ................
   14454:	b2b2b1b0 b2b2b2b2 a5abafb1 92969ba0     ................
   14464:	89888a8e 908f8d8b 98969492 9c9b9a99     ................
   14474:	a6a4a19f b1aeaba8 bfbbb8b4 d3ccc6c2     ................
   14484:	eee8e2db edeff1f1 e6e9ebec d7dadde1     ................
   14494:	c8ccd1d4 c4c2c1c3 d9d3cdc8 e9e6e3df     ................
   144a4:	faf6f2ed 070501fe fd020507 f6f6f6f9     ................
   144b4:	f9f8f8f7 0401fefb 19140f09 2423211d     .............!#$
   144c4:	171c2124 17181715 0e0f1215 1915110f     $!..............
   144d4:	2625221e 21232526 171a1c1f 1b191615     ."%&&%#!........
   144e4:	25211e1d 38342f2a 403e3c3b 4f4b4642     ..!%*/48;<>@BFKO
   144f4:	51535352 4245494d 3938393d 3c3d3d3c     RSSQMIEB=989<==<
   14504:	3c3a3a3b 47464440 353c4245 2a2b2d30     ;::<@DFGEB<50-+*
   14514:	2b2a292a 2e2f2e2d 2627292c 25262626     *)*+-./.,)'&&&&%
   14524:	2c292725 3d3a3531 30363a3d 1c20252a     %'),15:==:60*% .
   14534:	1716181a 12151718 0b0c0d0f 00030609     ................
   14544:	e5ebf3fa ced3d8de bcbfc4c9 b8b8b9ba     ................
   14554:	bdbbb9b8 bdbfc0bf abafb4b9 9ca0a3a6     ................
   14564:	93939598 9c9c9a95 9e9c9b9b a6a4a2a0     ................
   14574:	abaaa9a8 b4b2b0ad c4beb9b6 e3dcd3cb     ................
   14584:	efece9e7 f8f7f5f3 f5f9faf9 dee4eaf0     ................
   14594:	d4d3d5d9 d4d6d6d5 ddd7d4d3 f5efe9e3     ................
   145a4:	0a0601fb 06080a0b 06060506 fe020506     ................
   145b4:	fefbf9fb 0f0b0702 1e191411 27252321     ............!#%'
   145c4:	22242628 1115191d 17120e0e 201f1d1b     (&$"........... 
   145d4:	2a282523 1e222629 1416181b 1c191615     #%(*)&".........
   145e4:	27262420 29272727 453e362e 4b4b4b49      $&'''').6>EIKKK
   145f4:	4b4b4b4b 4145484a 3436393d 3a373534     KKKKJHEA=964457:
   14604:	4544413d 3a3d4144 32343638 282a2c2f     =ADEDA=:8642/,*(
   14614:	28282828 28292929 1b1e2225 1c191819     (((()))(%"......
   14624:	302b2520 30323433 282b2d2f 1b1f2224      %+03420/-+($"..
   14634:	14131417 12131414 10131312 fb00060b     ................
   14644:	eaf0f4f7 cdd3dbe3 c0c2c5c9 bbbcbcbd     ................
   14654:	c4c2bebc babdc0c2 aeb2b6b8 9da0a4a8     ................
   14664:	9b9a9a9b 99999a9a a4a09d9b a6a5a6a6     ................
   14674:	a4a5a6a6 b3aea9a6 c7c4c0ba dad4ceca     ................
   14684:	f2ede7e0 fafafaf7 eff3f7f9 e4e5e7eb     ................
   14694:	d6dbe0e3 cdcccdd1 e2dbd5d0 f5efebe7     ................
   146a4:	0503fffa 07080807 00030607 0000fefe     ................
   146b4:	fefdfeff 0c060200 211d1812 27272624     ...........!$&''
   146c4:	1b202426 13151618 16131212 2925201b     &$ .......... %)
   146d4:	23282b2b 1a1a1b1f 1c1d1d1b 1c1b1b1b     ++(#............
   146e4:	221f1d1c 302c2825 3d393633 504c4842     ..."%(,0369=BHLP
   146f4:	4d505151 3b3d4247 39383939 42413f3c     QQPMGB=;9989<?AB
   14704:	42424242 3c3e4042 2e32363a 2d2b2b2c     BBBBB@><:62.,++-
   14714:	2a2e3030 1e202226 18181a1b 1f1d1b19     00.*&" .........
   14724:	2a272421 31302d2b 22272c30 1718191c     !$'*+-010,'"....
   14734:	14131416 14141415 0d101214 ff03060a     ................
   14744:	e5ecf4fb cfd3d9de bfc2c7cb c0c0bfbe     ................
   14754:	c1c1c1c1 b9bcbfc1 afb3b6b7 a0a4a8ac     ................
   14764:	9695979b a09e9b98 a2a3a4a3 9f9fa0a1     ................
   14774:	a7a4a2a0 b1afacaa bfb9b5b3 dfd8cfc6     ................
   14784:	ede9e6e3 f6f5f3f1 f5f8f9f8 e4e8edf2     ................
   14794:	d5d8dce0 d0d0d2d3 e0dad5d2 f8f3ede6     ................
   147a4:	0302fffc 06040303 04050707 fcfe0002     ................
   147b4:	fffdfbfb 0f0b0703 221c1713 26282927     ..........."')(&
   147c4:	14191e23 14110f10 1f1c1a17 21212121     #...........!!!!
   147d4:	21212222 1b1d1f21 14151618 1a181716     ""!!!...........
   147e4:	191a1b1b 25211e1b 3f38312b 484a4945     ......!%+18?EIJH
   147f4:	44454647 393c3f41 39373738 4645413d     GFEDA?<98779=AEF
   14804:	40424445 3536393c 36353534 31343536     EDB@<96545566541
   14814:	25282b2e 1f212223 1717191c 201e1b18     .+(%#"!........ 
   14824:	2e2b2622 2c2e2f2f 2024282b 181b1d1e     "&+.//.,+($ ....
   14834:	16151617 1a1a1918 13151719 050a0d10     ................
   14844:	ebf3fa00 d5d9dde3 cccdcfd2 c7c9cbcc     ................
   14854:	c6c5c4c5 c5c6c7c7 b3b9bec2 a3a4a8ad     ................
   14864:	a4a3a3a3 a4a4a4a4 a5a4a4a4 a8a8a7a7     ................
   14874:	a5a5a6a7 b3aea9a6 c6c1bcb8 dbd6d0cb     ................
   14884:	f0ebe6e1 fbfbfaf5 f8f9fafa e9edf1f5     ................
   14894:	d6dadfe5 d6d3d2d3 e3dedbd8 f6f1ece7     ................
   148a4:	0502fefb 05060707 01020304 fbfdff01     ................
   148b4:	fbf8f8f9 150f0801 23211e1a 191c2022     ..........!#" ..
   148c4:	16181818 15151515 1b181716 22211f1d     ..............!"
   148d4:	1c1e2022 18181819 17181919 0f101215     " ..............
   148e4:	1312100f 25211b16 3a332d29 4343423f     ......!%)-3:?BCC
   148f4:	393e4142 34323235 403e3b38 3e404141     BA>952248;>@AA@>
   14904:	38393a3c 37383838 35353536 2e303133     <:9888876555310.
   14914:	23262a2c 17191b1f 19161515 1e1d1c1b     ,*&#............
   14924:	2a272320 282a2b2b 1d202326 1717181a      #'*++*(&# .....
   14934:	15151516 1a191716 191a1b1a 02090f15     ................
   14944:	ebeff5fb d9dee3e7 cacdd1d5 c8c8c9c9     ................
   14954:	cbcbcac8 bdc2c7ca b5b7b9ba a8abaeb1     ................
   14964:	a2a2a3a5 a9a7a5a3 a9a9a9aa a4a5a7a8     ................
   14974:	a8a6a4a4 b0adabaa c5bfb9b4 dad5cfca     ................
   14984:	efe9e4df fdfcf9f5 f9fcfdfd e7ebeff4     ................
   14994:	dadee1e4 d5d4d5d7 e4dfdad6 f6f3eeea     ................
   149a4:	01fefcf9 08090805 fc000306 f6f4f5f8     ................
   149b4:	04fffbf8 14120e09 1d1a1715 191b1d1e     ................
   149c4:	12141618 17151311 1c1c1b1a 1c1c1c1c     ................
   149d4:	1e1d1d1c 181b1d1e 12141516 0d0e0f11     ................
   149e4:	0e0c0d0e 261f1812 3b37322c 37383a3c     .......&,27;<:87
   149f4:	36363736 38363535 3a3b3b3a 3c3c3b3a     67665568:;;::;<<
   14a04:	3636383b 35333334 37373736 2a2e3235     ;8664335677752.*
   14a14:	1f222427 1617191c 16151515 201d1b18     '$"............ 
   14a24:	26262422 26262626 1c202426 12121417     "$&&&&&&&$ .....
   14a34:	17151413 1e1e1c19 14181b1d 05090d11     ................
   14a44:	eef5fb00 d7dae0e7 d0d2d4d5 cbcccdce     ................
   14a54:	c7c7c8ca c1c4c6c7 b3b8bbbf a6a7a9ad     ................
   14a64:	a4a4a5a6 a8a7a6a4 a7a8a9a8 a2a3a5a5     ................
   14a74:	a4a2a1a1 aeaba8a6 bdbab7b2 d6cec7c1     ................
   14a84:	eee9e3dd f7f6f4f2 f8fafaf9 e6eaeef4     ................
   14a94:	d8dbdfe2 d7d6d6d6 dddbd9d8 f4ede7e2     ................
   14aa4:	0402fefa fd010405 f6f8fafb f6f5f4f4     ................
   14ab4:	01fdfaf8 15110d07 17191917 14141516     ................
   14ac4:	17171715 19181717 1a191819 20201e1c     ..............  
   14ad4:	1f1e1e1e 1f212120 1216191c 0606090d     .... !!.........
   14ae4:	16110c08 2925201b 312f2d2b 37363533     ..... %)+-/13567
   14af4:	34353637 3b393735 3d3d3e3d 393a3a3b     7654579;=>==;::9
   14b04:	37363738 3a3b3a39 3939393a 2e333739     87679:;::999973.
   14b14:	20222529 1b1b1c1e 1b1b1c1c 22201e1c     )%" .......... "
   14b24:	2c292624 282b2d2e 1a1d2125 1a191919     $&),.-+(%!......
   14b34:	1c1c1b1b 2322201e 1e212323 0a12181b     ..... "###!.....
   14b44:	f6fafe03 e5e8ecf1 d8dbdfe2 d6d7d7d7     ................
   14b54:	d1d2d3d5 c9cccfd0 babfc3c6 afb1b3b7     ................
   14b64:	adacadae b3b4b2b0 aaabadb0 aaacabaa     ................
   14b74:	aaa8a8a8 b1aeacab c1bcb9b5 d8d2ccc6     ................
   14b84:	f2ebe4de fffffdf8 f8fafcfe eff0f2f5     ................
   14b94:	e0e5e9ed d7d7d9dc e4dedad7 f9f5f0ea     ................
   14ba4:	0301fefc fe010304 f2f5f7fb f7f2f0f1     ................
   14bb4:	080501fc 0f0e0d0b 13131211 14141414     ................
   14bc4:	16151414 1a191818 1718191a 1e1b1817     ................
   14bd4:	29272522 1a202528 0c0e1014 0a09090a     "%')(% .........
   14be4:	1714100c 26221d1a 2b2b2a29 312f2e2d     ......"&)*++-./1
   14bf4:	37353432 39383837 3a3a3a39 3637393a     245778899::::976
   14c04:	37363535 3d3d3b39 393a3b3c 292e3337     55679;==<;:973.)
   14c14:	21242627 18191b1e 19181717 23221f1c     '&$!.........."#
   14c24:	28272624 22242728 191c1e20 14151617     $&'(('$" .......
   14c34:	1d1b1715 2222211f 1d1e1f20 090f151a     .....!"" .......
   14c44:	f8fd0004 e4e7ebf1 dbdee0e2 d4d6d7d9     ................
   14c54:	d3d3d2d3 c5c9ced1 b7bbbec1 b0b1b2b4     ................
   14c64:	acadaeaf acadadad aaababac a3a5a7a9     ................
   14c74:	a6a4a3a2 a9a7a7a7 b7b2afac d5cdc4bd     ................
   14c84:	ece8e3dd f5f3f0ee f8f8f8f7 ecf1f5f7     ................
   14c94:	dcdfe3e7 d5d6d8da e1dcd8d6 f9f4eee7     ................
   14ca4:	ff0000fd f2f6fafd f1f0eff0 f6f3f2f1     ................
   14cb4:	0200fdf9 0d0c0804 0a0a0b0c 13110f0c     ................
   14cc4:	16171615 0d101215 15110e0d 221f1c18     ..............."
   14cd4:	22232424 151a1e20 07090c10 09060506     $$#" ...........
   14ce4:	1513110d 1f1b1816 26242221 2c2a2928     ........!"$&()*,
   14cf4:	3332302e 36353534 34353536 34323132     .023455665542124
   14d04:	38373635 3a3a3938 383a3a3a 2b2e3135     567889:::::851.+
   14d14:	1b202428 19171618 18181919 23201d1a     ($ ........... #
   14d24:	25252524 1f212224 14171b1d 16151413     $%%%$"!.........
   14d34:	1c1a1918 2221201e 1d202223 0c11161a     ..... !"#" .....
   14d44:	fa000408 e9ebeff5 e0e2e4e6 dddfdfe0     ................
   14d54:	d3d6d9db caccced1 bec0c3c6 b3b5b8bb     ................
   14d64:	b3b3b2b2 aeb0b1b3 adadaeae aaabacac     ................
   14d74:	a2a4a6a8 a7a3a2a1 bcb7b1ab d2cbc5c0     ................
   14d84:	e9e4dfd9 f8f6f3ee f8f8f9f9 f1f5f7f8     ................
   14d94:	dee2e6ec d5d3d5d9 ebe6e0da faf7f3ef     ................
   14da4:	fcfcfcfb f4f6f9fb f0efeff1 fdf7f3f1     ................
   14db4:	03030301 06040302 100d0a07 15151513     ................
   14dc4:	11111214 0e0e0f10 17141110 2623201b     ............. #&
   14dd4:	20232526 13171b1e 090a0c0f 0d0a0808     &%# ............
   14de4:	1413110f 1d1c1917 231f1e1e 2d2c2a27     ...........#'*,-
   14df4:	3533312f 35353535 36343434 35363737     /135555544467765
   14e04:	3b383735 3f403f3e 3d3e3e3e 2d31363a     578;>?@?>>>=:61-
   14e14:	1e212529 1b1b1c1d 1f1e1c1b 27262421     )%!.........!$&'
   14e24:	26262727 21232526 1a1b1c1e 1a191919     ''&&&%#!........
   14e34:	21201e1c 27252322 23262728 151a1d21     .. !"#%'('&#!...
   14e44:	fe03080f f2f4f6fa eaedf0f1 e4e5e7e8     ................
   14e54:	dadddfe2 d0d3d6d8 c5c5c8cc bcc0c3c4     ................
   14e64:	b5b7b8ba b7b5b4b4 b3b6b8b9 aaadafb1     ................
   14e74:	a4a4a5a8 a9a8a7a6 b8b3afac d4cdc5be     ................
   14e84:	e5e1ddd9 f9f4efea fefffefc ecf2f8fc     ................
   14e94:	dee1e4e7 dddbdbdc ebe7e3e0 fefbf7f1     ................
   14ea4:	f7fafdfe f0f0f2f4 f7f6f4f1 faf9f8f8     ................
   14eb4:	fefdfcfb 07050301 120e0b08 10111314     ................
   14ec4:	0c0e0f10 0e0c0b0b 1b181411 23211e1c     ..............!#
   14ed4:	1d202324 0e111519 07090a0c 0c090706     $# .............
   14ee4:	0d0e0e0d 1512100e 1d1b1a18 2724221f     ............."$'
   14ef4:	2d2c2b2a 2d2d2e2e 2e2e2e2d 2f2e2e2e     *+,-..---....../
   14f04:	35343230 3c3a3837 35373a3c 262c3034     024578:<<:7540,&
   14f14:	181a1d21 16161617 1b191716 201f1e1d     !.............. 
   14f24:	1e1e1f20 181b1e1f 15151416 13131415      ...............
   14f34:	1a191714 24211f1c 1d212425 0e13181b     ......!$%$!.....
   14f44:	fd000408 eff2f6fa ebececed e0e4e7e9     ................
   14f54:	d5d7d9dd ced0d3d4 c4c7c9cb b5b8bcc1     ................
   14f64:	b7b6b6b4 b4b5b5b6 b0b1b2b3 a7aaadaf     ................
   14f74:	9d9ea0a4 a5a29f9e b4b1aea9 c6c0bab6     ................
   14f84:	e2dad3cc f3f2efe9 f6f6f5f4 eaeef2f4     ................
   14f94:	d6dadfe5 dfd9d6d5 edebe8e4 f3f3f2ef     ................
   14fa4:	f0f1f1f2 f1f0f0f0 f2f2f1f1 f4f5f4f3     ................
   14fb4:	faf6f4f4 060401fe 0c0a0908 0b0d0e0e     ................
   14fc4:	09080809 0d0c0b0a 1c18130f 2020201f     .............   
   14fd4:	181b1e20 11131516 0a0a0b0e 0b0b0b0a      ...............
   14fe4:	0f0e0d0c 12101010 1f1d1a15 28252320     ............ #%(
   14ff4:	2e2d2b29 2e2e2f2f 3131302e 302e2e2f     )+-.//...011/..0
   15004:	39393734 42403d3a 3a3d4042 292e3336     4799:=@BB@=:63.)
   15014:	20222326 1c1c1c1e 2322201e 24242424     &#" ..... "#$$$$
   15024:	23242424 1f212223 191b1d1e 1a171617     $$$##"!.........
   15034:	2221201d 2a282624 25282a2b 161b1f22     . !"$&(*+*(%"...
   15044:	05090c11 feff0002 f2f6fafd e8eaecef     ................
   15054:	e3e5e5e6 d5d8dce0 ccced0d2 c1c4c6c9     ................
   15064:	bcbcbdbf c0c0bebd b6babdbf a9abaeb2     ................
   15074:	aaa9a8a8 a7a7a9aa b5afaba8 c9c4bfba     ................
   15084:	e3dcd5cf f9f5f0ea f9fcfdfc e6eaeff4     ................
   15094:	e0e0e1e3 e5e3e1e0 f1f1eeea f2f0eff0     ................
   150a4:	f4f5f4f3 f5f5f5f4 f3f3f4f5 f3f3f3f3     ................
   150b4:	fefcf9f5 070401ff 0d0d0d0b 090a0a0b     ................
   150c4:	09070607 12100e0b 1b191714 22211e1c     ..............!"
   150d4:	171b1f21 13141415 0d0c0d10 0b0d0e0e     !...............
   150e4:	0c0b0a0a 12100f0d 1c1a1715 2724211e     .............!$'
   150f4:	2a292827 2d2d2d2c 2b2c2d2d 312f2d2b     '()*,-----,++-/1
   15104:	3b383634 4342403d 3a3c3e41 292f3438     468;=@BCA><:84/)
   15114:	21222325 22222120 23212121 26262524     %#"! !""!!!#$%&&
   15124:	25262626 1d1f2224 191a1b1c 1c1b1919     &&&%$"..........
   15134:	23201e1d 2d2d2a27 2427292b 181a1d20     .. #'*--+)'$ ...
   15144:	0b0f1316 fe000407 f7fafcfd eceff2f5     ................
   15154:	e2e5e7e9 dcdddee0 c9cfd4d9 c4c3c3c5     ................
   15164:	c4c5c5c4 bdbec0c2 b6b9bbbc aeb1b2b4     ................
   15174:	a4a4a7aa a9a9a7a5 aeaaa7a8 c4bdb7b2     ................
   15184:	e3dcd3cb f7f4efea eef2f5f7 e6e8eaec     ................
   15194:	e3e1e1e3 e7e6e6e5 ebeae9e8 f1f0edeb     ................
   151a4:	f2f1f1f1 f2f3f3f3 f0f0f0f1 ececeef0     ................
   151b4:	fefaf5ef 04020101 05050505 04040505     ................
   151c4:	06050403 100d0a07 1a191613 1a1a1a1b     ................
   151d4:	16171819 0f111415 0c0c0c0d 0606080b     ................
   151e4:	08070706 0d0b0909 16141210 201d1a18     ............... 
   151f4:	25262523 24242425 25262626 2c292726     #%&%%$$$&&&%&'),
   15204:	3835312f 3c3c3c3b 34373a3b 272a2d31     /158;<<<;:741-*'
   15214:	1e202224 1c1b1c1d 201f1e1d 21222222     $" ........ """!
   15224:	1f202021 1b1d1e1f 13121417 1a181714     !  .............
   15234:	22201e1c 24242423 25262525 171c2023     .. "#$$$%%&%# ..
   15244:	0b0b0c11 0206090b f6f7fafe efeff1f4     ................
   15254:	e7ebeeef d6d9dde1 ced0d2d4 c4c7cbcd     ................
   15264:	c4c3c3c3 bfc0c2c4 b6b9bcbe adafb1b4     ................
   15274:	a9aaabac a2a4a7a8 aaa5a3a2 c3bab4af     ................
   15284:	e4dfd8ce f0efece8 eceeeff0 eaebebeb     ................
   15294:	e4e4e6e8 eae8e7e5 eaebeceb f1eeeceb     ................
   152a4:	f6f5f4f3 f0f2f4f6 ededeeef f3f0eeed     ................
   152b4:	fbf9f8f6 050301fe 03040506 01010101     ................
   152c4:	07050402 13100c0a 17151514 1a1b1b19     ................
   152d4:	18181819 13161818 0c0d0e11 090a0a0b     ................
   152e4:	07070809 0d0c0a09 1714110f 201e1c1a     ............... 
   152f4:	24232322 23242424 25242323 2e2b2927     "##$$$$###$%')+.
   15304:	3b393532 3c3b3b3b 383b3d3d 292c3034     259;;;;<==;840,)
   15314:	24242526 20202223 24232221 28262525     &%$$#"  !"#$%%&(
   15324:	2126292a 1d1c1c1d 1d1c1c1d 1c1b1c1d     *)&!............
   15334:	2825221e 2d2d2c2a 25282a2c 23242424     ."%(*,--,*(%$$$#
   15344:	12161b20 080a0d0f 02050708 f9fbfcff      ...............
   15354:	edf0f4f7 e2e5e7e9 d4d7dbdf cfd1d3d3     ................
   15364:	cdcdcdce c4c7cacc bdbec0c2 b7b9bbbc     ................
   15374:	afb2b4b6 a0a2a6ab aea8a3a0 c8c2bbb4     ................
   15384:	e1dbd5cf eeedebe6 ebecedee e9e9e9ea     ................
   15394:	eaeaeaea e6e7e8e9 ede9e7e6 f1f1f1f0     ................
   153a4:	f3f2f2f1 edeff0f2 eaebeced f0eceae9     ................
   153b4:	fbf9f6f3 fefefefd fcfefeff fcfafafb     ................
   153c4:	060401fe 0c0b0a08 12100f0d 15151413     ................
   153d4:	15161717 10111213 080a0d0f 06070808     ................
   153e4:	03020304 09070604 110f0d0b 1e1b1714     ................
   153f4:	191b1e1f 1e1e1d1a 201e1d1d 2a272522     ........... "%'*
   15404:	3633302c 393a3938 31333538 292d2f30     ,03689:985310/-)
   15414:	1d1f2125 1e1d1c1c 24232220 20202223     %!...... "#$#"  
   15424:	1f202020 181c1e1f 16131214 1d1c1b19        .............
   15434:	21201e1d 27252422 28292928 1d1f2326     .. !"$%'())(&#..
   15444:	1316191b 0b0c0e10 0205080a fbfdfeff     ................
   15454:	eef2f6f9 e1e4e8eb d6d9dcde d4d4d4d5     ................
   15464:	cacdd0d3 c2c3c4c7 c4c4c3c2 b8bcbfc2     ................
   15474:	a8acb0b4 a1a1a2a4 a7a4a2a2 c7beb5ad     ................
   15484:	dcd9d5cf e4e3e1df ebe9e8e6 e9eaebeb     ................
   15494:	e4e5e6e7 e8e7e6e5 eae9e8e8 f1f0eeec     ................
   154a4:	eff1f2f2 ebedeeee e7e6e7e9 f0eeebe8     ................
   154b4:	fbf9f5f2 f8f9fbfc f7f8f8f8 fdfbf9f8     ................
   154c4:	0402fffe 08070605 120f0b08 11111213     ................
   154d4:	16161412 0e101214 0a0b0b0c 03050709     ................
   154e4:	01010101 07040202 12100d0a 17161413     ................
   154f4:	19191919 17181819 1f1c1917 29272422     ............"$')
   15504:	312f2e2c 3a373533 31373a3b 2525272c     ,./1357:;:71,'%%
   15514:	22232424 1e1e1f20 22201f1e 23252524     $$#" ..... "$%%#
   15524:	1b1c1e20 1718191a 17171717 19191918      ...............
   15534:	1f1d1b1a 26262422 25262626 1d202224     ...."$&&&&&%$" .
   15544:	1316191b 0e101011 0505070a 00030405     ................
   15554:	eef2f6fc e3e5e8eb e1e3e3e3 d2d6dbde     ................
   15564:	cdcdcdcf cbcdcece c6c7c9ca bec1c3c5     ................
   15574:	a9afb4ba a09fa1a4 b1aba6a2 c3bfbbb7     ................
   15584:	dad5cec8 e5e3e0dd eae9e9e7 ebebeaea     ................
   15594:	e9e9e9ea eae9e9e9 efeeecea f5f2f0f0     ................
   155a4:	f2f5f6f7 ecedeeef ecebebec f8f5f1ee     ................
   155b4:	fafafbfa fcfaf9f9 fafbfcfd 00fffdfb     ................
   155c4:	05040302 0c0b0908 12110f0d 18171614     ................
   155d4:	17181818 17171717 0e101215 08090a0c     ................
   155e4:	06050607 0b0a0807 17120e0c 1a1c1d1b     ................
   155f4:	19171718 1f1e1d1b 201f1f1f 2c272321     ........... !#',
   15604:	3a383531 3a3b3b3b 383a3a3a 2d2f3135     158:;;;::::851/-
   15614:	2526282b 27262524 2a292928 24262829     +(&%$%&'())*)(&$
   15624:	23232324 1c1c1f22 1d1d1d1c 1d1c1c1c     $###"...........
   15634:	2624211f 29282827 2b2b2a29 2426282a     .!$&'(())*++*(&$
   15644:	171a1e22 16151515 12151616 ff02070d     "...............
   15654:	f8fafbfd eff1f3f5 e2e4e8eb dbdddfe0     ................
   15664:	d0d2d4d8 d2d0d0cf d0d3d4d4 bdc2c6cb     ................
   15674:	abafb3b8 a5a6a7a9 afaaa7a6 c3bebab4     ................
   15684:	d7d1ccc7 e2e1dedb e8e6e5e4 e9eaebea     ................
   15694:	e8e8e8e8 e8e8e9e9 f1efece9 f4f5f5f3     ................
   156a4:	edeff1f2 eaeaebec eeedeceb f3f2f1f0     ................
   156b4:	f8f7f6f5 f6f7f8f8 f9f8f6f6 faf9f9fa     ................
   156c4:	0200fffc 07050403 0c0c0c0a 13100e0c     ................
   156d4:	15171715 10101113 0c0f1010 01030609     ................
   156e4:	00fffeff 0b090703 0c0b0b0b 1412100e     ................
   156f4:	14161615 13121213 1a181715 2825211d     .............!%(
   15704:	302e2c2a 39383633 2f323638 292a2b2d     *,.03689862/-+*)
   15714:	22232527 25252423 24242525 23232323     '%#"#$%%%%$$####
   15724:	1e202123 181a1b1c 18161717 1b1d1d1b     #! .............
   15734:	1d1b1a1a 29272420 262a2b2b 1c1d1f22     .... $')++*&"...
   15744:	1d1d1c1c 16191b1c 0d0e1012 0407090c     ................
   15754:	f6f9fc00 f2f3f3f4 e4e9edf0 d6d7dbdf     ................
   15764:	d5d6d5d5 d6d6d5d5 cdd2d5d6 bec1c5c9     ................
   15774:	acb1b6ba a5a5a6a9 adaaa8a7 c0bbb5b1     ................
   15784:	d1cdc9c5 dddad7d5 e6e5e2e0 e6e7e7e7     ................
   15794:	e2e3e4e5 ece9e6e3 efefefee f0f1f0f0     ................
   157a4:	ebebedef ebebebea edebebeb f2f1f1ef     ................
   157b4:	f3f2f1f1 f5f6f7f5 f3f2f2f3 faf8f6f5     ................
   157c4:	fefefdfc 0301fffe 0a090806 0d0d0c0b     ................
   157d4:	15120f0d 10141616 0506090c 02030404     ................
   157e4:	00000000 02010101 0e0b0804 0e0f0f0f     ................
   157f4:	0e0d0d0e 0f0f0f0f 1613110f 211e1c1a     ...............!
   15804:	2f2c2824 31323231 2c2f3031 2627282a     $(,/122110/,*('&
   15814:	24252626 20202123 25242221 20232526     &&%$#!  !"$%&%# 
   15824:	191a1c1e 1c1c1b1a 15171a1c 17141313     ................
   15834:	23211e1b 23232424 23222222 21232424     ..!#$$##"""#$$#!
   15844:	1b1b1c1e 1a1c1d1c 0e101317 0407090c     ................
   15854:	ffff0002 f4f9fcfe e4e7eaef dcdddfe1     ................
   15864:	dadadadb dadbdbdb d0d3d5d8 c1c7cbce     ................
   15874:	b1b4b8bc a6a7a9ad b2aeaaa7 bcbab8b5     ................
   15884:	d0cbc5c0 dedbd8d4 e5e5e3e0 e2e2e2e4     ................
   15894:	e8e7e6e4 eeebeae8 f1f1f1f0 eef0f1f1     ................
   158a4:	eeeeeded ecedeeef efedecec f5f3f2f0     ................
   158b4:	f3f5f6f6 f5f3f2f2 f6f7f8f7 f8f6f4f5     ................
   158c4:	0100fefb 02020202 08050403 14110e0b     ................
   158d4:	15171716 11101012 0b0d0f10 04050608     ................
   158e4:	01010102 08060402 0d0c0b0a 0f100f0e     ................
   158f4:	0e0e0e0f 100f0f0e 15131211 25201c18     .............. %
   15904:	2f2e2c29 3030302f 32323130 272b2f31     ),.//00001221/+'
   15914:	26242425 2a2a2a28 23242628 24232222     %$$&(***(&$#""#$
   15924:	23262725 17181c20 1c1b1917 1c1b1b1b     %'&# ...........
   15934:	22211f1e 26262524 25262626 23222324     ..!"$%&&&&&%$#"#
   15944:	25252523 1a1d2023 12141618 0d0e0f10     #%%%# ..........
   15954:	05080a0c f8fbfe02 e8ecf0f4 e4e4e4e5     ................
   15964:	dfe0e2e4 e0dfdfde d7dadcdf c4cacfd4     ................
   15974:	b4b7bbbf aeafb0b1 afaeaeae bdb8b4b1     ................
   15984:	cfcbc7c2 dddad6d2 e0e0dfdf e2e1e1e0     ................
   15994:	eae7e5e3 edededec f0eeeded f0f2f2f1     ................
   159a4:	eaeaecee efeeedeb eeeeeeef f1f0efee     ................
   159b4:	f5f4f3f2 f0f2f4f5 f3f0eeee f9f9f8f6     ................
   159c4:	fafafaf9 fefbfafa 08060300 0d0c0b0a     ................
   159d4:	1110100f 0e101112 080a0b0d ff010406     ................
   159e4:	00fffefe 04030100 07070605 0c0c0a09     ................
   159f4:	06090b0c 09060404 1413100d 1c1a1716     ................
   15a04:	2924211e 3031302d 25272a2d 2a282726     .!$)-010-*'%&'(*
   15a14:	2528292a 21202022 24242322 23242424     *)(%"  !"#$$$$$#
   15a24:	1b1d1f22 191a1a1b 16161718 1c1a1817     "...............
   15a34:	201f1f1e 20212221 24222020 24252625     ... !"!   "$%&%$
   15a44:	23242424 191b1e20 16161617 11131415     $$$# ...........
   15a54:	05090c0f f9fd0002 edf0f3f6 e3e5e7ea     ................
   15a64:	e5e4e2e2 e3e5e6e7 d7dbdee1 c9ccd0d4     ................
   15a74:	b8bdc1c5 afb0b2b5 b0afaeae bcb7b3b1     ................
   15a84:	d0cdc9c3 d5d4d3d2 e0dedbd8 e2e1e1e0     ................
   15a94:	e9e7e5e3 f1eeecea eff0f1f2 efeeeded     ................
   15aa4:	eff0f0f0 ececedee f1efedec f5f4f3f2     ................
   15ab4:	eff1f3f4 f3f1efef f4f4f5f4 f7f6f5f4     ................
   15ac4:	f8f8f7f7 fffcfaf9 06040201 0d0c0a08     ................
   15ad4:	13110f0e 0e111314 0808090b 03050607     ................
   15ae4:	feff0002 050200fe 0d0c0b09 0407090b     ................
   15af4:	0a070504 090b0c0c 0e0b0808 201d1813     ............... 
   15b04:	27262523 28272728 2d2d2c2a 28292b2d     #%&'(''(*,---+)(
   15b14:	25252627 25242424 24252626 25252423     '&%%$$$%&&%$#$%%
   15b24:	1d1f2224 1718191a 1a191817 1d1d1c1b     $"..............
   15b34:	1e1e1e1e 1f1e1e1d 25242321 27282726     ........!#$%&'('
   15b44:	1f212326 1e1d1d1e 1a1c1d1e 12141618     &#!.............
   15b54:	0b0d0f10 fd020609 eef0f4f9 ecececec     ................
   15b64:	e9e9eaeb e8e9e9e9 dadde1e5 d0d4d6d8     ................
   15b74:	bdc2c7cc afb1b5b9 b4b2b0af bfbdbab7     ................
   15b84:	ccc8c5c2 d8d7d4d0 dbd9d9d9 e5e2dfdd     ................
   15b94:	ecebe9e7 eeededed f4f2f0ef f1f3f5f5     ................
   15ba4:	eeededef f2f1f1ef f5f5f5f3 f3f3f3f4     ................
   15bb4:	f3f4f4f3 f6f5f3f3 f5f6f7f7 f6f5f5f5     ................
   15bc4:	fbfaf9f7 fcfcfcfc 050300fe 110f0d09     ................
   15bd4:	0f0f1011 12100f0f 0a0f1213 ffff0105     ................
   15be4:	05050301 05060606 08060505 0c0d0c0a     ................
   15bf4:	03040609 07050403 13100c09 1a191715     ................
   15c04:	23201d1b 2a292826 2828292a 292a2a29     .. #&()**)(()**)
   15c14:	23242527 23232323 27262524 22252627     '%$#####$%&''&%"
   15c24:	1a1b1d20 17171819 1c1b1918 1a1c1c1d      ...............
   15c34:	18171718 211f1c1a 25242323 20212325     .......!##$%%#! 
   15c44:	23232220 1b1d2022 1c1c1b1a 1517191a      "##" ..........
   15c54:	0d0f1114 fc01050a f1f2f5f8 eeefeff0     ................
   15c64:	ebedeeee e6e6e7e9 e2e4e6e6 ced4d9de     ................
   15c74:	bec2c6ca b2b4b7bb b2b1b1b1 c0bbb7b4     ................
   15c84:	c8c7c5c3 d0cdcbc9 dbd8d6d3 e0e0dfde     ................
   15c94:	e7e4e2e0 f0efecea eff0f0f0 ececedee     ................
   15ca4:	eeececec f2f2f0ef eff0f1f2 efefeeee     ................
   15cb4:	f3f3f2f1 eff0f2f3 f3f0eeee f3f6f7f6     ................
   15cc4:	f2f0eff0 fcfaf7f4 0000fffe 08040100     ................
   15cd4:	1111100c 090b0d10 05060607 01030405     ................
   15ce4:	fdfeff00 0300fefd 08090806 ff000306     ................
   15cf4:	0000fffe 03020101 0b090705 1512100d     ................
   15d04:	1d1b1917 2422211f 27272725 23232426     .....!"$%'''&$##
   15d14:	21222222 23212020 25272726 1d1f2123     """!  !#&''%#!..
   15d24:	1617191b 1c1a1816 16191b1c 16151415     ................
   15d34:	1a191817 1e1c1b1a 2121201f 22222221     ......... !!!"""
   15d44:	1f202121 1d1e1e1e 1c1c1c1d 1b1c1c1c     !! .............
   15d54:	0a0e1318 01030507 f7f9fbfe eef0f2f5     ................
   15d64:	efeeeeee ebedefef e3e5e7ea d5d9dde0     ................
   15d74:	c0c6cbd1 b6b6b8bc b9b9b7b6 bbbbbbba     ................
   15d84:	c7c3c1bd d1d0cdca d8d6d5d3 dedcdbd9     ................
   15d94:	eae7e4e1 f0efeeec eceef0f0 efeceaea     ................
   15da4:	f2f3f3f2 efefeff0 f4f3f1f0 f0f2f4f5     ................
   15db4:	f1efefef f7f7f6f3 eff1f3f5 f5f2f0ef     ................
   15dc4:	f7f7f7f6 f7f6f6f7 02fefbf9 0e0d0a06     ................
   15dd4:	0b0b0c0d 100f0e0c 080b0d0f 00010305     ................
   15de4:	03020100 08070504 05060708 03040505     ................
   15df4:	01000001 06050402 0b090806 1311100e     ................
   15e04:	1e1b1715 26252321 28272726 21232527     ....!#%&&''('%#!
   15e14:	24222120 2a2a2a27 22242628 1f202021      !"$'***(&$"!  .
   15e24:	1e1e1e1f 1a1c1d1e 191a1a1a 17171819     ................
   15e34:	1c1b1a18 1e1c1c1c 2422211f 23242424     .........!"$$$$#
   15e44:	1d1e1f21 2322201e 22242424 191b1d1f     !.... "#$$$"....
   15e54:	12141617 05090d10 f9fbfe01 f5f6f7f8     ................
   15e64:	f1f2f4f5 f2f2f1f0 e9edf0f2 d6dbdfe4     ................
   15e74:	c6c9cdd1 bdc0c2c4 b9b9b9bb bdbbbbba     ................
   15e84:	c8c5c1bf d0cfcdcb d1cfcfd0 e3dedad5     ................
   15e94:	e9e9e8e6 eae9e9e9 f0f0eeec ebedeff0     ................
   15ea4:	f2efeceb f3f5f5f4 eeefeff1 f3f0efee     ................
   15eb4:	f4f5f5f5 eff0f1f3 f5f2f0ef f2f4f5f6     ................
   15ec4:	f2f0eff0 f9f7f5f4 00fffefb 06040201     ................
   15ed4:	100f0d09 0b0d0e0f 0507090a 02020303     ................
   15ee4:	04030302 06060504 04050607 00000102     ................
   15ef4:	01010100 03020100 09080705 0e0b0909     ................
   15f04:	1e1a1612 24242221 1e1f2123 2522201e     ....!"$$#!... "%
   15f14:	26262625 25262627 22222324 20212121     %&&&'&&%$#""!!! 
   15f24:	1d1e1f20 191a1b1c 1a191919 1718191a      ...............
   15f34:	18161516 211e1c1a 20212222 1d1e1e1f     .......!""! ....
   15f44:	22201e1d 21222323 22212020 1b1e2022     .. "##"!  !"" ..
   15f54:	11141719 090b0d0f fcff0206 f5f5f6f9     ................
   15f64:	f8f7f6f5 f5f6f7f8 e9edf0f2 d9dde0e5     ................
   15f74:	cdd0d3d6 bec2c7ca b9b8b9bb c4c1bebb     ................
   15f84:	c3c4c5c5 cac7c4c2 d7d4d2ce dcdad9d8     ................
   15f94:	e9e6e2df ecececeb e8e9eaeb f2efecea     ................
   15fa4:	f0f2f4f3 efeeedee f3f2f1f0 f1f2f3f3     ................
   15fb4:	f0efeff0 f5f5f3f2 eff1f3f4 f0efeeee     ................
   15fc4:	f3f2f2f1 f5f4f4f4 fdfaf7f6 08060300     ................
   15fd4:	0c0c0b0a 0a0c0c0c 04040507 04050504     ................
   15fe4:	04030203 05050505 02040505 fefeff00     ................
   15ff4:	030100fe 00010203 0300ffff 110d0906     ................
   16004:	1a191714 1c1b1b1a 1f1e1d1c 25232221     ............!"#%
   16014:	24252525 22212224 25252423 1f202123     %%%$$"!"#$%%#! .
   16024:	1b1c1d1e 1d1d1d1c 16181a1c 16151415     ................
   16034:	1c1b1a18 1c1c1c1c 1f1e1e1d 1f1f2020     ............  ..
   16044:	1f1e1e1e 25242321 21232425 1d1e1f20     ....!#$%%$#! ...
   16054:	171a1b1d 0a0e1114 fe000306 faf9fafc     ................
   16064:	fffffdfb f4f8fcfe ecedeef1 e4e8ebeb     ................
   16074:	cbd0d7de c4c5c6c8 c2c3c3c4 bebfc0c1     ................
   16084:	c7c5c2bf cacacac9 d3cfcdcb e2dfdcd7     ................
   16094:	e6e6e5e4 e9e7e6e6 f2f0eeec edeef0f1     ................
   160a4:	f2f0efed f5f5f4f3 f1f1f2f4 f2f1f1f1     ................
   160b4:	f7f7f5f4 f2f2f4f5 f2f3f2f2 f2f1f1f2     ................
   160c4:	f2f2f3f3 f3f2f2f2 fefbf8f5 09060301     ................
   160d4:	0a0b0b0a 0909090a 05060708 04030304     ................
   160e4:	08080705 02040507 01010102 04040302     ................
   160f4:	feff0103 fdfdfdfd 0401fffe 100e0b08     ................
   16104:	13131211 19171514 201f1d1b 20202121     ........... !!  
   16114:	23212120 25252524 1f212223 201f1f1f      !!#$%%%#"!.... 
   16124:	1e202121 17191b1d 18181817 16171718     !! .............
   16134:	19181716 1d1d1c1b 1b1b1c1d 1e1d1c1b     ................
   16144:	20201f1f 23232221 22222323 201f1f21     ..  !"####""!.. 
   16154:	1b1f2121 060a0f16 03030304 01030303     !!..............
   16164:	fafbfd00 fcfbfafa f2f6fafc e1e4e8ed     ................
   16174:	d5d8dbde c8cbcfd2 c3c2c3c5 c6c5c4c4     ................
   16184:	c0c2c3c5 cbc6c3c1 d6d5d3cf dcdad9d7     ................
   16194:	e5e2dfdd edecebe8 eaeaebec f1efedec     ................
   161a4:	f3f3f2f2 f2f3f3f3 f2f1f1f1 f4f4f4f3     ................
   161b4:	f5f5f4f4 f3f3f3f4 f2f2f2f3 f2f3f3f3     ................
   161c4:	eeeeeef0 f4f3f1ef fcfaf8f6 070401ff     ................
   161d4:	0a0b0b09 04050608 06050404 07080807     ................
   161e4:	04050607 02010203 05040403 01030405     ................
   161f4:	f9fbfcfe fefcfaf9 05040200 08070605     ................
   16204:	120f0d0a 19181714 19181818 22201e1b     .............. "
   16214:	21222323 1f1f1f20 22222120 1e1f2021     ##"! ... !""! ..
   16224:	1c1d1d1e 181a1b1c 14151517 18181715     ................
   16234:	17161617 1a1a1a19 1818191a 1f1d1b19     ................
   16244:	1e1f2020 1d1d1d1e 2724211f 21252828       .......!$'((%!
   16254:	1416191d 0f111112 03060a0d feffff01     ................
   16264:	030200ff fafd0002 f3f4f5f7 e5ebeff2     ................
   16274:	d4d7dbe0 cdced0d1 c7c9cbcc bdbec1c4     ................
   16284:	c4c2c0be c9c8c7c6 cfcdcbca dbd8d5d2     ................
   16294:	e4e2e0de e6e5e5e4 ecebe9e8 eeededec     ................
   162a4:	f1f1f1f0 f0f0f0f0 f3f2f2f1 f2f2f3f3     ................
   162b4:	f3f2f1f1 f4f5f4f3 eff0f2f3 efefefef     ................
   162c4:	edeeeeef f0eeedec fcf9f5f2 050402ff     ................
   162d4:	02030405 03020202 08070604 03050607     ................
   162e4:	01000001 05040302 03050606 fafbfe00     ................
   162f4:	fcfbfafa fcfdfdfd fefcfbfb 09070401     ................
   16304:	0d0c0b0a 12100e0d 1a191715 1c1b1b1b     ................
   16314:	20201f1d 1e1e1f1f 21201f1e 1e1f2021     ..  ...... !! ..
   16324:	1b1c1d1d 1718191a 14141416 19181715     ................
   16334:	15171919 14121213 1e1e1b18 181a1c1e     ................
   16344:	19171616 2523201c 22242526 1f1f1f20     ..... #%&%$" ...
   16354:	1a1d1f20 0c0f1216 0606080a 04050606      ...............
   16364:	00000102 01010000 f4f9fd00 e5e7ebef     ................
   16374:	dde0e2e4 d1d5d8db c6c7c9cd c5c5c4c5     ................
   16384:	c3c3c3c4 c7c6c4c3 d1ceccca dbd8d6d3     ................
   16394:	e0dfdedc e7e5e3e2 ececebe9 edededed     ................
   163a4:	f2f0eeed f3f4f4f3 f2f2f2f3 f4f4f3f2     ................
   163b4:	f6f6f6f5 f4f4f4f5 f4f4f4f4 eff1f2f3     ................
   163c4:	ececedee f4f1efed fffcf9f6 01010100     ................
   163d4:	03020101 09080605 06090a0a 04020204     ................
   163e4:	09080705 06070909 03030405 02030203     ................
   163f4:	fbfdff01 fffefcfb 02010100 08060403     ................
   16404:	0e0c0b0a 1412100f 1b191816 1e1e1d1c     ................
   16414:	201f1f1f 21222221 21202020 25252423     ... !""!   !#$%%
   16424:	191c2023 19181717 1d1d1c1b 14171a1c     # ..............
   16434:	16141212 1d1d1c19 17191b1c 19181717     ................
   16444:	1f1e1c1b 21202020 28262422 22252728     ....   !"$&(('%"
   16454:	191b1d1f 13151718 080a0d11 06050506     ................
   16464:	0a0a0908 00030608 f7f8fafd eef1f3f5     ................
   16474:	e1e4e8eb d4d7dadd ccced0d2 c6c7c8ca     ................
   16484:	c2c3c4c5 c9c7c5c3 d1d0cecc d7d5d3d2     ................
   16494:	e1dedbd9 e7e6e5e3 e9e8e7e7 efedeceb     ................
   164a4:	f1f1f1f0 f2f2f2f2 f3f3f3f3 f5f5f4f4     ................
   164b4:	f5f4f4f4 f7f7f7f6 f3f5f6f7 ecedf0f1     ................
   164c4:	eeecebeb f7f6f4f1 f8f8f8f7 fffdfbf9     ................
   164d4:	07060402 03040607 05040302 07080807     ................
   164e4:	05050506 07070706 03050606 ff000102     ................
   164f4:	fdfdfeff fdfcfcfc 010100fe 03020202     ................
   16504:	0d0b0805 0f0e0e0d 18161311 1e1e1d1b     ................
   16514:	1a1b1c1d 221f1c1b 25272624 1b1c1f22     ......."$&'%"...
   16524:	1d1c1b1a 1d1f1f1e 1516191b 18161514     ................
   16534:	18191a1a 17161617 1a1a1918 17171819     ................
   16544:	1c191717 2524211f 23242526 23232322     .....!$%&%$#"###
   16554:	1d202123 1013171a 0b0b0c0d 0c0d0d0c     #! .............
   16564:	07080a0b 01030506 fbfdfe00 f0f4f7f9     ................
   16574:	e3e6e9ed dadcdee0 ced2d5d8 c5c6c9cb     ................
   16584:	c6c6c5c4 c8c8c7c7 cfcdcbc9 d7d5d3d1     ................
   16594:	dfdddbd9 e4e2e1e0 eae9e7e6 ececebeb     ................
   165a4:	f1f0eeed f4f3f2f1 f2f3f4f4 f2f1f1f1     ................
   165b4:	f9f7f5f3 f9fbfbfb edf0f3f6 efedebeb     ................
   165c4:	f1f2f2f1 efefeff0 faf7f4f1 00fffefc     ................
   165d4:	01010000 04030302 04040304 07060605     ................
   165e4:	05050606 07070605 02040607 ffffff00     ................
   165f4:	fefefefe fbfbfcfd 00fefcfb 03030201     ................
   16604:	04030203 110e0b07 16161614 14131415     ................
   16614:	201c1916 21222322 1b1b1c1f 21201e1c     ... "#"!...... !
   16624:	1c1e1f20 1818191b 19191918 15161819      ...............
   16634:	17161515 18191918 14141617 17151413     ................
   16644:	1c1b1a19 1f1e1d1c 26252321 22252626     ........!#%&&&%"
   16654:	1a1c1e20 11131517 0f101010 0b0d0e0f      ...............
   16664:	0808090a 06070808 fbff0104 f2f4f6f8     ................
   16674:	e9eceef0 dde0e3e6 cfd2d5d9 cacbcccd     ................
   16684:	c5c5c7c8 c8c7c6c5 cecdcbca d4d2d1d0     ................
   16694:	dcdad8d6 e4e2e1df e7e6e6e5 eae8e7e7     ................
   166a4:	f3f0eeeb f1f3f5f4 ecececef f8f5f2ef     ................
   166b4:	f9fafaf9 f2f3f5f7 f1f1f1f1 edeff0f0     ................
   166c4:	eeedecec efeeeeee f8f5f3f1 fcfcfbf9     ................
   166d4:	fefefdfc 010100ff 03020202 05030302     ................
   166e4:	06070706 03030405 04030303 fe000203     ................
   166f4:	fafafafc fffdfcfa fbfdff00 fcfaf9fa     ................
   16704:	0a070300 0b0c0c0c 0e0c0a0a 1a181411     ................
   16714:	1a1b1b1b 1c1b1a1a 1f1f1e1d 1c1d1e1f     ................
   16724:	1c1c1c1c 191a1b1c 15161617 19181716     ................
   16734:	16171919 14141415 16161514 15151515     ................
   16744:	18171615 211f1c1a 27272523 1f212426     .......!#%''&$!.
   16754:	1b1b1c1d 1618191a 0f111214 0d0d0d0e     ................
   16764:	0d0e0d0d 05070a0c feff0103 f7fafcfd     ................
   16774:	eceff2f5 e0e3e6e9 d4d7dadd caccced1     ................
   16784:	c7c7c8c9 cac9c7c7 cccccccb d2cfcecd     ................
   16794:	dfdcd9d5 dfe0e0e0 e3e1e0df f0edeae6     ................
   167a4:	eef0f1f1 eeececed f3f2f1ef f6f5f4f4     ................
   167b4:	f7f7f8f7 f5f6f6f7 f1f2f3f4 edeef0f0     ................
   167c4:	edececed f2f0efee f4f3f3f3 fdfaf8f6     ................
   167d4:	fdfefefe fffefdfd 05040200 04050606     ................
   167e4:	04020203 09090806 00020507 fefcfdfe     ................
   167f4:	020201ff f8fbfe00 faf8f7f7 030200fd     ................
   16804:	02020304 08060503 110f0d0b 15141312     ................
   16814:	1b1a1816 1b1b1c1c 1d1c1b1b 2020201e     .............   
   16824:	1a1c1e20 18181819 1a1a1919 1819191a      ...............
   16834:	15151617 17161514 14161717 12111213     ................
   16844:	1a171513 2422201d 22232424 21212121     ..... "$$$#"!!!!
   16854:	1d1f2020 1517191b 12131314 11121213       ..............
   16864:	0d0e0f10 08090b0c 01030507 fbfdff00     ................
   16874:	f0f2f5f8 e6e9ecee d6dadee2 cecfd1d3     ................
   16884:	cccdcdcd c7c9cacc cdcac8c6 d7d6d4d1     ................
   16894:	d7d7d7d8 e0dcdad8 e8e7e5e3 ebebeae9     ................
   168a4:	edececec efefeeee f4f3f2f0 f5f5f5f5     ................
   168b4:	faf8f7f6 f6f8fafa f0f0f2f4 f0f0f0f0     ................
   168c4:	eeefefef f0eeeded f8f6f4f2 f8f9f9f9     ................
   168d4:	fcfaf8f8 020201ff 00000102 06030100     ................
   168e4:	090a0a08 01020507 04020100 03050505     ................
   168f4:	fafcff01 fbfafafa fdfdfdfc fefdfdfd     ................
   16904:	030200ff 06050504 0e0c0907 16161411     ................
   16914:	16161616 1a191817 1f1e1d1b 1d1e1f1f     ................
   16924:	191a1b1c 1b1b1a19 1a1a1a1b 16171819     ................
   16934:	18181716 16171818 10111214 14121110     ................
   16944:	1b191715 201e1e1d 24232221 20212323     ....... !"#$##! 
   16954:	1c1d1e1f 1718191a 16161717 11121315     ................
   16964:	0f101111 0b0c0d0e 0205070a feff0001     ................
   16974:	f7fbfdfe e4e8edf2 dedfe0e2 d4d7dadc     ................
   16984:	c9cacdd0 cccbc9c8 d0d0cfce d3d2d1d1     ................
   16994:	d7d6d4d3 e2dfdcd9 e7e6e6e4 e9e8e7e7     ................
   169a4:	efedebea f0f0f0f0 f2f1f0f0 f9f7f6f4     ................
   169b4:	f9fafafa f6f6f7f8 f4f5f5f6 edeef0f2     ................
   169c4:	f0eeedec f3f4f4f2 f1f0f1f2 fbf8f5f3     ................
   169d4:	fdfefefd fbfafafc 0502fffc 07080807     ................
   169e4:	02020305 06050302 05070707 00000103     ................
   169f4:	feff0000 fbfbfcfd fefdfcfb fdfdfefe     ................
   16a04:	fffefefd 06040200 0e0c0a08 1110100f     ................
   16a14:	16141211 1b1a1817 1c1c1c1c 1b1b1b1b     ................
   16a24:	1c1c1c1c 191a1b1c 17171718 1b1a1918     ................
   16a34:	17191a1b 12131415 11111111 13121211     ................
   16a44:	18161513 201e1c1a 22222221 1e1f2021     ....... !"""! ..
   16a54:	1b1b1c1d 1a1b1c1c 13141618 15141313     ................
   16a64:	10131516 08090b0e 09090808 01040709     ................
   16a74:	f5f7fafd edeff1f3 e1e4e7ea d2d5d9dd     ................
   16a84:	cccdcecf cfcfcecd cececfcf cfcecdcd     ................
   16a94:	d9d7d4d1 dfdedddb e4e2e1e0 eae8e7e5     ................
   16aa4:	ebeaebeb f0edeceb f4f4f3f2 f4f3f3f3     ................
   16ab4:	fcfbf9f6 f6f9fbfc eeeef0f3 f3f1efee     ................
   16ac4:	eff1f3f3 edecedee f7f4f1ef f7f8f9f8     ................
   16ad4:	f6f4f4f5 00fefbf8 01010101 03020101     ................
   16ae4:	04030303 05040404 04050505 00000103     ................
   16af4:	fcfcfdff fdfcfcfc fcfcfdfd f9f9fafb     ................
   16b04:	fefcfbfa 05040200 09070606 0e0c0b0a     ................
   16b14:	16151310 16161717 19181716 1e1d1c1b     ................
   16b24:	181a1c1d 16161717 1a191817 191a1b1b     ................
   16b34:	15161718 12121313 10111111 0f0f1010     ................
   16b44:	19171411 1f1e1d1c 1e1e1e1f 20201f1e     ..............  
   16b54:	1a1c1f20 17171719 1a1a1918 13151719      ...............
   16b64:	0f0f1011 0e0f0f0f 090b0c0e 01030506     ................
   16b74:	fafcfeff f2f5f7f9 e0e4e9ee d5d7d9dd     ................
   16b84:	d2d3d4d5 cdced0d1 cdcccccd d2d2d0cf     ................
   16b94:	d5d3d3d2 dfdddad7 e3e3e3e1 e5e3e2e3     ................
   16ba4:	edebe9e7 edeeefef f0eeecec fbf9f6f3     ................
   16bb4:	f9fbfcfc f3f3f4f6 f6f6f5f4 eef0f3f5     ................
   16bc4:	efededed f3f3f2f1 f2f2f2f2 f4f3f3f2     ................
   16bd4:	f9f7f6f5 fdfcfbfa 0000fffe 01010101     ................
   16be4:	04030202 06060504 02040506 ff000001     ................
   16bf4:	ffffffff feffffff f8fafbfd fbf9f8f8     ................
   16c04:	fffffefd 000000ff 08050301 100f0d0a     ................
   16c14:	11111111 16141211 1b1a1917 1b1c1c1c     ................
   16c24:	1617181a 19181717 1b1b1b1a 18191a1b     ................
   16c34:	17181818 11131516 0e0d0d0f 1413110f     ................
   16c44:	16151515 1d1b1917 2122211f 1b1c1e20     .........!"! ...
   16c54:	1b1a1a1a 1c1c1c1b 18191b1c 13141517     ................
   16c64:	14131312 0f111314 080a0c0e 06060607     ................
   16c74:	00030506 f0f5f9fd e6e8eaed dbdee1e4     ................
   16c84:	d1d3d5d8 d1d1d1d1 cdced0d1 cfcecdcc     ................
   16c94:	d9d7d4d2 dbdbdbdb e1dedddc e9e8e6e3     ................
   16ca4:	e6e7e8e9 ece9e7e6 f6f5f3f0 f5f5f6f6     ................
   16cb4:	f9f9f7f6 f8f9fafa f1f2f4f6 f1f0f0f0     ................
   16cc4:	f2f2f1f1 f0f1f2f2 f2f1f0f0 f3f3f2f2     ................
   16cd4:	f8f7f6f5 fcfbfbfa fefdfcfc 0100ffff     ................
   16ce4:	05040302 05060606 00000103 02020100     ................
   16cf4:	00010202 fafbfdff fbfafaf9 fbfcfcfb     ................
   16d04:	fbfbfafb 00fefcfb 08070402 0b0b0a09     ................
   16d14:	0f0d0c0c 16141311 191a1918 17171718     ................
   16d24:	19191818 17181819 1b191817 1c1e1e1d     ................
   16d34:	1215171a 11111011 10111212 100f0f0f     ................
   16d44:	17141211 1e1d1c19 1c1e1e1e 1a1a1a1b     ................
   16d54:	1d1d1c1b 1b1d1d1d 1617181a 18171716     ................
   16d64:	15171818 0c0d1013 0e0e0d0c 090c0e0e     ................
   16d74:	00020406 f7fafdfe e8ecf0f4 dedfe2e4     ................
   16d84:	d8dadcdd cfd1d3d5 d0cecdcd d4d4d4d2     ................
   16d94:	d3d2d2d3 dedad7d4 e4e4e3e1 e1e1e1e2     ................
   16da4:	e9e6e4e2 efeeedeb f1f0f0f0 f9f7f4f2     ................
   16db4:	fbfbfbfa f6f7f8fa f2f3f4f5 f3f2f2f2     ................
   16dc4:	f3f3f3f3 f0f0f1f2 f0f0f0f0 f4f3f2f1     ................
   16dd4:	f9f8f7f6 f9f9f9f9 fcfbfaf9 040300fe     ................
   16de4:	04050505 01010203 04040302 03030404     ................
   16df4:	feff0002 fefefefe fcfcfdfe f9f9fafb     ................
   16e04:	fbfaf9f8 0200fefc 03030303 09060503     ................
   16e14:	11100e0c 12121212 19171513 18191919     ................
   16e24:	14141516 1b191715 1d1d1d1c 191a1c1d     ................
   16e34:	15161617 11131415 0d0e0f10 110f0e0d     ................
   16e44:	19171513 1b1b1b1a 1a1a1a1a 1e1d1b1a     ................
   16e54:	1b1d1e1f 1919191a 1d1c1b1a 16181b1c     ................
   16e64:	14141415 12121213 0e0f1112 0c0c0c0c     ................
   16e74:	06090a0b f6f9fe02 f0f1f2f3 e4e8ebee     ................
   16e84:	d5d7dadf d7d6d6d5 d2d4d6d6 cfcecfd0     ................
   16e94:	d8d5d2d0 dededcdb dfdedede e4e2e1e0     ................
   16ea4:	e8e7e6e5 edeceae9 f3f1efee f9f8f7f5     ................
   16eb4:	fafafafa f6f7f8f9 f4f4f4f5 f5f5f4f4     ................
   16ec4:	f4f4f5f5 eff0f1f3 f1f0efee f6f6f4f3     ................
   16ed4:	f5f6f6f7 f7f5f4f4 fffefcfa 01010101     ................
   16ee4:	01010101 04030202 04040505 01010203     ................
   16ef4:	00000000 00010201 f8fafbfe faf9f8f7     ................
   16f04:	fdfdfdfc fcfbfbfc 0200fffd 08080604     ................
   16f14:	0c0b0a09 1413100e 16171616 14141515     ................
   16f24:	17151514 19191918 1b1a1919 1b1b1c1b     ................
   16f34:	1618191a 0f101214 0e0e0e0e 13131110     ................
   16f44:	14131414 18171514 1c1c1b19 1a1b1c1c     ................
   16f54:	1b1a1919 1e1e1d1c 191a1c1d 19181818     ................
   16f64:	15171819 10101112 13131211 0c0f1113     ................
   16f74:	04050709 ff010203 f1f5f9fd e4e6e9ed     ................
   16f84:	dfe0e1e2 d6d8dadd d1d1d2d4 d2d1d1d0     ................
   16f94:	d6d5d4d3 dbdad9d7 e0dfdedc e2e1e1e0     ................
   16fa4:	e6e5e4e3 eceae8e7 f3f1efee f8f7f6f4     ................
   16fb4:	f9f9f9f8 f5f6f7f8 f6f6f5f5 f6f7f7f7     ................
   16fc4:	f1f1f3f5 f1f0f0f0 f4f3f3f2 f2f2f3f4     ................
   16fd4:	f3f2f2f2 f9f8f6f4 fdfcfbfa fefefefd     ................
   16fe4:	030100fe 03040504 00000102 04030200     ................
   16ff4:	02030404 fcfdff00 fcfcfcfb fafafbfc     ................
   17004:	f9f9f9f9 fdfcfbf9 fefefefe 040200ff     ................
   17014:	0e0c0a07 1010100f 12111110 15141413     ................
   17024:	15151515 16151514 1c1b1a18 1a1c1d1d     ................
   17034:	12141618 10101011 11111110 0f0f0f10     ................
   17044:	13110f0f 18181716 16161717 1a191817     ................
   17054:	1a1a1b1a 1c1a1919 1d1d1d1c 16181a1c     ................
   17064:	13131313 15151514 0e101214 0d0c0c0d     ................
   17074:	0a0c0d0d fe020508 f4f7f9fb eaeef0f3     ................
   17084:	e0e2e5e7 d7d9dadd d2d3d4d6 d1d1d1d2     ................
   17094:	d5d3d2d2 dad9d8d7 dedddddc dfdfdede     ................
   170a4:	e4e3e2e0 eae8e6e5 f2f1eeec f5f5f5f4     ................
   170b4:	f5f5f5f5 f8f7f6f5 f7f8f9f9 f3f4f4f6     ................
   170c4:	f3f3f3f3 f3f4f4f4 f1f2f3f3 f0efeff0     ................
   170d4:	f5f4f3f1 f6f7f7f6 f9f7f6f6 0100fefc     ................
   170e4:	00010201 00ffff00 04030200 03040404     ................
   170f4:	01010102 01010101 fafcfeff faf9f9f9     ................
   17104:	fcfcfcfb f9f9fafb fdfbfaf9 050402ff     ................
   17114:	0a090807 0e0d0c0a 1312110f 12121313     ................
   17124:	13131212 19181614 1c1d1c1b 17191a1c     ................
   17134:	16161616 11131516 0f0f0f10 1211100f     ................
   17144:	12121212 15141312 18181816 15151617     ................
   17154:	1b191715 1f1f1f1e 191a1c1e 19181818     ................
   17164:	16181919 10111314 11111010 11111111     ................
   17174:	0a0c0e0f 03050608 fafcff01 eef1f4f7     ................
   17184:	e3e6e8eb dbdddfe1 d3d5d6d8 d2d2d2d2     ................
   17194:	d5d4d3d3 dad9d8d6 dddddcdb dddddddd     ................
   171a4:	e2e0dedd edebe8e5 efefefee f2f1f0f0     ................
   171b4:	f8f6f5f3 f9f9f9f9 f5f6f7f8 f5f4f4f4     ................
   171c4:	f8f8f8f7 f1f3f5f6 f0f0eff0 f4f3f2f2     ................
   171d4:	f2f3f4f4 f4f3f2f1 fefcf9f7 fdfefefe     ................
   171e4:	fffefdfd 03020200 01020202 05040301     ................
   171f4:	03050606 ffff0002 fefefdfe fdfefeff     ................
   17204:	f9f9fafc fafaf9f8 fdfdfcfb 0301fffe     ................
   17214:	09070604 0e0e0c0a 0f100f0f 100f0f0f     ................
   17224:	16151412 18181817 1a191918 1b1c1c1b     ................
   17234:	1416181a 13121213 12131313 10101010     ................
   17244:	14131110 15161616 12121213 18161513     ................
   17254:	1b1b1b1a 1c1b1b1b 1e1e1d1c 1a1b1d1e     ................
   17264:	14151618 13131414 13131313 10111212     ................
   17274:	0d0e0f10 06080a0c fd000104 f3f5f8fb     ................
   17284:	e7eaedf0 dddfe1e4 d6d8d9db d1d2d3d4     ................
   17294:	d6d4d2d1 dbdad9d8 d8d9dadb dbdad9d8     ................
   172a4:	e5e2e0dd eae9e8e7 ebeaeaea f4f1efec     ................
   172b4:	f8f8f7f6 f5f6f6f7 f6f6f5f5 fafaf9f8     ................
   172c4:	f4f6f8f9 f3f3f2f3 f4f4f4f4 eff0f2f3     ................
   172d4:	f2f1efee f7f6f5f4 f8f8f7f7 fefdfcfa     ................
   172e4:	ffffffff fefefefe 05040200 04050606     ................
   172f4:	02010203 02030302 feff0002 fbfcfdfd     ................
   17304:	fbfbfbfb f9f9fafa fafaf9f9 0200fefc     ................
   17314:	09080604 0909090a 0e0c0b09 1212110f     ................
   17324:	13131313 19171514 1b1b1b1a 18191a1a     ................
   17334:	17181818 12141516 100f1011 15141311     ................
   17344:	11121314 11111011 14141312 15141414     ................
   17354:	19171615 1f1e1c1b 1d1e1f1f 191a1b1c     ................
   17364:	16171818 13141515 13131313 12121313     ................
   17374:	0e0f1011 08090b0c 01040607 f5f8fbfe     ................
   17384:	eceef0f3 e0e3e6e9 d5d8dadd d4d4d3d4     ................
   17394:	d8d7d6d5 d6d7d8d8 d6d5d5d5 dddbdad8     ................
   173a4:	e2e1e0df e5e3e3e2 eceae8e7 f3f2f1ef     ................
   173b4:	f2f2f2f2 f6f5f3f2 f9faf9f8 f5f5f6f8     ................
   173c4:	f8f7f6f5 f5f7f8f8 f0f0f1f3 f2f1f1f0     ................
   173d4:	f1f2f2f2 f4f2f1f0 fbfbf9f7 f9fafbfc     ................
   173e4:	fdfbfaf9 010100fe 02020202 04030202     ................
   173f4:	04050504 02020304 ffff0001 fefeffff     ................
   17404:	fafcfdfe f7f7f8f9 fcfaf9f7 010100fe     ................
   17414:	04030202 09080605 0c0c0b0a 100e0d0d     ................
   17424:	15141211 15161616 1b191716 1b1c1c1c     ................
   17434:	14151719 13121213 15151413 11121314     ................
   17444:	12111111 12131312 10101112 13121110     ................
   17454:	19181615 1d1d1c1b 1d1d1e1e 1a1b1c1c     ................
   17464:	15161718 15141414 13141415 11111112     ................
   17474:	10111111 0a0c0d0e 02040608 fbfdff00     ................
   17484:	f0f4f7f9 e0e3e8ec dadbdcdd d8d9d9da     ................
   17494:	d4d5d6d7 d4d3d3d4 d9d7d6d4 dbdbdbda     ................
   174a4:	dcdbdbda e8e5e2df ebebebea ecebebeb     ................
   174b4:	f5f3f1ee f5f6f7f6 f5f4f4f4 fafaf8f6     ................
   174c4:	f7f8f9fa f5f5f5f6 f3f4f5f5 eeeef0f1     ................
   174d4:	f3f1efee f6f6f5f4 f6f6f6f6 faf9f8f7     ................
   174e4:	fdfdfcfb fefdfdfd 020100ff 05050403     ................
   174f4:	03030405 02010102 02030302 feff0001     ................
   17504:	f9fafbfc faf9f9f9 fbfbfbfb fffdfcfb     ................
   17514:	04030201 05040404 0c0a0806 100f0f0d     ................
   17524:	11101010 18151412 1b1b1b1a 1718191a     ................
   17534:	16161616 14151516 14141414 14141413     ................
   17544:	13131414 10111112 100f0f0f 13121111     ................
   17554:	18161413 1e1d1c1a 1d1e1f1f 1a1a1b1c     ................
   17564:	17181819 15161717 13131414 14141313     ................
   17574:	10121414 0a0b0c0e 09090909 ff030508     ................
   17584:	f1f4f8fc e6e7eaed e1e2e3e4 d7d9dcde     ................
   17594:	d3d2d3d4 d8d8d6d4 d5d7d8d8 d7d5d4d4     ................
   175a4:	e1dfdcd9 e4e3e3e2 e8e6e5e4 efeeecea     ................
   175b4:	f0f0f0f0 f6f4f2f1 f6f7f7f7 f7f6f6f6     ................
   175c4:	fbfbfaf8 f6f8fafb eff0f1f4 f2f2f1f0     ................
   175d4:	f3f3f3f3 f3f2f2f2 f7f6f5f4 f9f9f9f9     ................
   175e4:	f9f9f9f9 fffefcfb 03020100 02030303     ................
   175f4:	03020202 05050504 01020305 feffff00     ................
   17604:	fbfcfdfe faf9fafa fcfbfafa fefefdfc     ................
   17614:	00fffefe 06050301 09090807 0c0b0a09     ................
   17624:	1312100e 16161514 18171717 19191918     ................
   17634:	15161818 14131314 17161514 15161617     ................
   17644:	12121314 10101111 0e0e0f0f 100f0f0e     ................
   17654:	19171512 1c1c1c1b 1b1b1c1c 1c1c1c1b     ................
   17664:	1618191b 15141515 17171616 13141516     ................
   17674:	0e0f1011 0f0e0e0e 0b0d0e0f ff020609     ................
   17684:	f5f7f9fb eef1f3f4 dfe3e7eb d9d9dadc     ................
   17694:	d9d9d9d9 d3d5d6d8 d5d4d3d2 d9d9d8d7     ................
   176a4:	dcdad9d9 e4e2e0de e7e7e6e6 eae9e7e7     ................
   176b4:	f2f1efed f1f2f3f3 f5f3f1f1 fcfbf9f7     ................
   176c4:	f9fbfcfd f4f4f6f7 f3f4f4f4 f0f1f2f3     ................
   176d4:	f2f1f1f0 f4f3f3f2 f6f6f5f5 f6f6f5f6     ................
   176e4:	fbf9f7f6 fefefdfc 00ffffff 02010100     ................
   176f4:	04040403 04040404 02020304 feff0001     ................
   17704:	fcfcfcfd fcfdfdfc f9fafbfc fcfbfaf9     ................
   17714:	0100fffe 02020202 07050302 0e0c0b09     ................
   17724:	10100f0f 15131211 19181716 17181919     ................
   17734:	14141516 16151514 17171716 15151617     ................
   17744:	14141515 0d0f1113 0d0c0c0c 1211100f     ................
   17754:	15141413 1b1a1817 1e1e1e1d 18191b1c     ................
   17764:	17171718 19181817 16171919 10111314     ................
   17774:	12121110 11121313 080a0d0f 04050606     ................
   17784:	fcff0203 edf0f4f8 e6e7e8ea dde0e2e4     ................
   17794:	d6d6d8da d6d6d6d6 d3d4d5d6 d6d5d3d3     ................
   177a4:	dedddad8 dfdfdfdf e5e3e1e0 edeceae8     ................
   177b4:	ecebeced f1efedec f7f7f5f3 f9f8f8f8     ................
   177c4:	fafafaf9 f7f8f9f9 f2f3f4f6 f1f1f1f1     ................
   177d4:	f4f3f2f2 f3f3f4f4 f3f3f3f3 f6f5f4f3     ................
   177e4:	faf9f9f7 fcfbfbfb fffffdfc 01000000     ................
   177f4:	05040302 04050605 00010203 00000000     ................
   17804:	ff000000 f9fafcfd fbfaf9f9 fdfdfcfb     ................
   17814:	fdfdfdfd 01fffefd 07050402 0a0a0908     ................
   17824:	0f0e0c0b 15141211 16171717 15151516     ................
   17834:	16161616 14141515 19171615 181a1a1a     ................
   17844:	10121416 0f0f0f0f 0e0f0f0f 0f0e0e0e     ................
   17854:	16141210 1c1b1a18 1a1b1c1c 18171818     ................
   17864:	1b1a1918 181a1b1b 13141516 15151414     ................
   17874:	13151515 0d0d0f11 0e0e0e0d 06090b0d     ................
   17884:	fdff0103 f4f7f9fb e8ebeef1 e0e1e2e5     ................
   17894:	dadcdedf d3d4d6d8 d5d4d3d2 d7d8d8d7     ................
   178a4:	d8d7d6d7 e2dfdcda e6e6e5e4 e6e6e5e5     ................
   178b4:	eceae9e7 f1f0efee f4f3f2f2 faf9f7f5     ................
   178c4:	fafbfbfb f6f7f8f9 f2f3f3f5 f4f4f3f3     ................
   178d4:	f3f4f5f5 f2f2f2f3 f3f3f2f2 f6f5f4f4     ................
   178e4:	f9f9f8f7 fafafafa fdfcfbfb 040201ff     ................
   178f4:	04050504 02020203 04040302 02030304     ................
   17904:	fefeff00 fdfdfdfd fcfcfdfd fafbfbfc     ................
   17914:	fdfcfbfa 0201fffe 03020202 0a070504     ................
   17924:	10100e0c 12111110 17161513 16171718     ................
   17934:	13131314 18171514 1a1b1a19 1617181a     ................
   17944:	13141515 10111213 0c0c0d0e 100f0d0c     ................
   17954:	17161412 18181918 18171818 1c1b1a19     ................
   17964:	191a1b1c 18171718 19191918 14151718     ................
   17974:	12121213 12121212 0c0e0f11 0a0a0b0b     ................
   17984:	02050709 f5f7fbfe eff1f2f3 e3e7eaed     ................
   17994:	d8d9dbdf d9d9d8d8 d4d5d7d8 d3d2d2d3     ................
   179a4:	dbd9d6d4 e0e0dfdd e2e1e0e0 e6e5e4e3     ................
   179b4:	eae9e8e7 eeedeceb f4f2f1ef faf9f8f6     ................
   179c4:	f9fafafa f5f6f7f8 f4f5f5f5 f5f5f5f4     ................
   179d4:	f3f4f4f5 f0f1f2f3 f3f2f0f0 f7f6f5f4     ................
   179e4:	f5f6f7f7 f9f7f5f5 00fefdfb 01010100     ................
   179f4:	01010100 04030202 03040404 00010102     ................
   17a04:	0000ff00 ff000101 f8f9fbfd fcfaf9f8     ................
   17a14:	fcfdfdfd fcfcfbfb 0301fffe 08070605     ................
   17a24:	0c0a0908 1312100e 14151514 12121313     ................
   17a34:	16151312 17171716 19181717 18191919     ................
   17a44:	13151718 0d0e1012 0e0c0c0c 1212110f     ................
   17a54:	12121212 17161413 1a1a1918 1718191a     ................
   17a64:	19181817 1b1c1b1a 1718191a 17171616     ................
   17a74:	12141617 0f0f0f10 12121110 090c0f11     ................
   17a84:	03040507 fe000102 eff4f8fb e4e6e9ec     ................
   17a94:	e0e1e2e3 d7d9dbdd d3d3d4d5 d5d4d3d3     ................
   17aa4:	d9d8d6d6 dedddcda e2e1e0df e4e3e3e2     ................
   17ab4:	e7e7e6e5 eeeceae9 f4f3f1ef f8f8f7f5     ................
   17ac4:	f8f9f9f9 f6f6f7f8 f7f6f6f6 f6f7f8f7     ................
   17ad4:	f1f2f3f5 f2f1f1f1 f5f4f4f3 f2f3f4f4     ................
   17ae4:	f5f3f3f3 faf9f8f6 fdfdfcfb fefefefe     ................
   17af4:	040201ff 03040505 00000102 04040302     ................
   17b04:	01030404 fcfdfe00 fdfdfdfc fafbfcfd     ................
   17b14:	fafafafa fefefdfb ffffffff 06030100     ................
   17b24:	0f0d0b09 100f0f0f 12111110 14141413     ................
   17b34:	14141414 17151414 1c1b1a18 191a1b1c     ................
   17b44:	11121417 10101010 10101110 0e0e0f0f     ................
   17b54:	1412100e 17171716 16151516 19181716     ................
   17b64:	1919191a 1b1a1919 1b1c1c1c 1416181a     ................
   17b74:	13121212 13141514 0d0e1012 0d0c0c0c     ................
   17b84:	090b0c0d fd000306 f4f6f8fa eaedf0f2     ................
   17b94:	e0e2e5e7 d8dadbdd d4d5d6d7 d3d3d4d4     ................
   17ba4:	d8d6d5d4 dddcdbd9 e0dfdfde e2e1e0e0     ................
   17bb4:	e6e5e4e3 eceae9e7 f4f2f0ee f6f6f6f5     ................
   17bc4:	f6f5f5f6 f9f8f7f6 f7f8f9f9 f4f4f5f6     ................
   17bd4:	f4f4f4f4 f4f4f4f4 f1f2f3f4 f2f0f0f0     ................
   17be4:	f7f6f4f3 f7f7f7f7 fbf9f7f7 0100fffd     ................
   17bf4:	00010202 0000ff00 05040301 03040405     ................
   17c04:	01010102 00010201 fafcfdff fcfbfaf9     ................
   17c14:	fcfdfdfc f9f9fafb fffdfbfa 06050301     ................
   17c24:	0a090808 0f0d0c0b 12121110 11121212     ................
   17c34:	13121212 19181614 1b1b1b1b 1617191a     ................
   17c44:	15151515 10111314 0f0e0e0f 1111100f     ................
   17c54:	11111212 15141212 17171716 14141516     ................
   17c64:	1b191715 1d1e1e1d 18181a1c 18181717     ................
   17c74:	15161718 0f101113 11111010 0f101111     ................
   17c84:	080a0c0e 02040507 f9fbfd00 eef0f3f6     ................
   17c94:	e3e6e8eb dbdddfe1 d5d6d7d9 d4d4d4d4     ................
   17ca4:	d8d6d5d5 dcdbdad9 dfdededd dededfdf     ................
   17cb4:	e5e2e0df eeedebe8 f0f0efef f3f2f1f0     ................
   17cc4:	f9f7f6f5 f9faf9f9 f4f5f7f8 f6f5f4f4     ................
   17cd4:	f7f8f8f8 f1f2f4f6 f2f1f0f0 f4f4f3f2     ................
   17ce4:	f2f3f4f4 f6f4f3f2 fefdfbf9 fdfefeff     ................
   17cf4:	00fefdfd 02020201 01010202 05040302     ................
   17d04:	02040506 feff0001 fefefdfd fcfdfefe     ................
   17d14:	f9f9fafb fbfaf9f9 fefdfdfc 030200ff     ................
   17d24:	09080605 0e0d0c0b 0e0f0f0f 110f0e0e     ................
   17d34:	16151412 17171716 1a191817 191a1b1a     ................
   17d44:	12141617 12111111 10111212 0f0f0f0f     ................
   17d54:	14131110 13141515 12111112 18161513     ................
   17d64:	1a1a1a19 1b1a1919 1c1d1c1c 17191a1c     ................
   17d74:	13141516 12121213 11121212 0f101011     ................
   17d84:	0c0d0e0e 0406080a fcfe0002 f2f4f7fa     ................
   17d94:	e6e9ecef dddfe1e3 d7d8dadc d3d3d4d5     ................
   17da4:	d8d6d5d3 dcdcdbda dadadadb dddcdbda     ................
   17db4:	e7e4e2e0 eaeae9e8 ecebeaea f5f3f0ee     ................
   17dc4:	f8f8f8f7 f5f5f6f7 f7f6f5f5 fafaf9f8     ................
   17dd4:	f3f5f7f8 f3f3f3f3 f4f5f5f4 eff0f1f3     ................
   17de4:	f3f2f0ef f7f7f6f5 f9f8f8f7 fffefcfb     ................
   17df4:	fefeffff fffefefe 05040201 03040506     ................
   17e04:	02010102 02020202 fefeff01 fbfcfcfd     ................
   17e14:	fbfbfbfb fafafafa fbfafafa 0301fffd     ................
   17e24:	09080705 09080909 0e0d0b0a 12111010     ................
   17e34:	12121212 18171513 191a1a19 17171819     ................
   17e44:	16161717 10121314 100f0f0f 14141312     ................
   17e54:	10111213 11101010 13131312 14131313     ................
   17e64:	18171515 1e1d1c1a 1b1c1d1d 1718191a     ................
   17e74:	14151617 12121314 12121112 10111112     ................
   17e84:	0c0d0f10 0708090b ff020406 f4f7fafd     ................
   17e94:	eceef0f2 e0e3e6e9 d7d8dadd d6d6d5d6     ................
   17ea4:	dad9d8d7 d7d8d9da d9d7d7d6 e0dedcdb     ................
   17eb4:	e3e3e2e1 e7e5e4e4 eeeceae8 f3f3f2f1     ................
   17ec4:	f2f2f2f3 f8f6f4f3 f8f9f9f9 f5f5f6f7     ................
   17ed4:	f8f8f7f6 f4f6f7f8 f0f1f1f2 f2f2f1f1     ................
   17ee4:	f1f2f2f2 f6f3f2f1 fcfbfaf8 f9fafbfb     ................
   17ef4:	fefcfafa 010100ff 02020202 04030202     ................
   17f04:	04040404 01020303 feffff00 fefeffff     ................
   17f14:	fafbfcfd f8f7f8f9 fefbfaf8 020100ff     ................
   17f24:	04030302 09080706 0c0c0b0a 100e0d0d     ................
   17f34:	14131211 15151515 1a191716 191a1b1b     ................
   17f44:	13141517 12121212 14141413 11111214     ................
   17f54:	12111111 12121212 10101011 13121110     ................
   17f64:	19181715 1c1c1b1a 1c1c1c1d 18191a1b     ................
   17f74:	14151617 14141414 12131314 10101011     ................
   17f84:	0e0f1011 090b0c0d 01030507 fbfdfe00     ................
   17f94:	eff3f6f9 e0e3e7eb dcdcddde dadbdbdc     ................
   17fa4:	d6d7d8d9 d6d6d6d6 dcdad9d7 dcdddddd     ................
   17fb4:	dfdedddc eae8e5e2 ecececec eeececeb     ................
   17fc4:	f6f5f3f0 f5f6f6f7 f6f5f4f4 fafaf9f7     ................
   17fd4:	f6f7f9fa f5f5f5f6 f2f4f5f5 eeefeff1     ................
   17fe4:	f4f2f1ef f6f6f6f5 f7f6f6f6 fbfaf9f8     ................
   17ff4:	fdfdfcfc fefefdfd 020100ff 04040403     ................
   18004:	02030304 02010101 01020202 fdfe0001     ................
   18014:	f9fafafb fbfaf9f9 fbfbfbfb 00fefdfc     ................
   18024:	03030301 05050403 0c0a0807 0f0f0e0d     ................
   18034:	10100f0f 17151312 191a1a19 15161718     ................
   18044:	15151515 13141414 12121313 13131313     ................
   18054:	11121313 0e0f1010 0f0e0e0e 12111110     ................
   18064:	18161413 1d1c1b1a 1b1c1c1d 1718191a     ................
   18074:	16161617 14151516 11111213 13131212     ................
   18084:	0e101213 09090a0c 08080909 fd010406     ................
   18094:	eff3f6fa e6e7e9ec e1e3e4e5 d8dadcdf     ................
   180a4:	d6d5d5d6 dadad9d7 d7d8d9da dad8d6d6     ................
   180b4:	e3e2dfdd e5e5e4e4 eae8e6e5 f0efeeec     ................
   180c4:	f1f0f0f0 f6f5f3f2 f6f7f7f7 f8f7f6f6     ................
   180d4:	fbfbfaf9 f5f7f9fb f0f0f1f3 f3f3f2f1     ................
   180e4:	f3f3f3f3 f4f3f3f3 f8f7f6f5 f9faf9f9     ................
   180f4:	faf9f9f9 00fffdfc 03020200 02020303     ................
   18104:	03020202 05050504 00010304 feffffff     ................
   18114:	fbfcfdfe fafafafa fcfcfbfb fefefefd     ................
   18124:	0100fffe 07060402 09090808 0d0b0a09     ................
   18134:	1312110f 16151414 17171616 18181817     ................
   18144:	14151617 13131313 16161514 14151516     ................
   18154:	11111213 0f101010 0e0e0e0f 11100f0e     ................
   18164:	19171513 1b1b1b1a 1a1a1a1b 1a1b1b1b     ................
   18174:	15161819 15141414 16161615 11131415     ................
   18184:	0d0e0f10 0e0e0e0d 090c0d0e fd000407     ................
   18194:	f5f6f8fa edf0f2f4 dfe2e6ea dbdbdcdd     ................
   181a4:	dadbdbdb d5d6d7d9 d8d6d5d5 dbdbdad9     ................
   181b4:	dedddbdb e6e5e3e1 e8e8e8e7 eceae9e8     ................
   181c4:	f3f2f0ee f1f2f3f3 f6f4f2f1 fcfbfaf8     ................
   181d4:	f8fafcfc f4f4f5f6 f4f4f4f4 f1f1f2f3     ................
   181e4:	f2f2f1f1 f5f4f4f3 f6f6f6f6 f7f6f6f6     ................
   181f4:	fcfaf8f7 fffefefd 00ffffff 02010100     ................
   18204:	04040303 04040404 01020303 feff0001     ................
   18214:	fcfcfcfd fcfdfdfd fafafafb fdfcfbfa     ................
   18224:	010100ff 02020202 08060403 0e0d0b09     ................
   18234:	100f0f0e 14131211 18171716 15161718     ................
   18244:	13131314 15141413 16161616 14141515     ................
   18254:	12131314 0c0d0f11 0d0c0b0b 1211100f     ................
   18264:	15131312 1a191816 1b1c1c1b 1617181a     ................
   18274:	16161616 17171716 14151617 0f101112     ................
   18284:	1111100f 0f101111 06080a0d 03040505     ................
   18294:	fafd0002 eceff2f6 e6e7e9ea dde0e2e4     ................
   182a4:	d8d8d9db d8d8d8d8 d5d5d6d7 d9d7d6d5     ................
   182b4:	e0dfdddb e1e1e1e0 e8e5e3e2 ededecea     ................
   182c4:	ecececed f2f0eeed f8f7f6f4 f9f8f8f8     ................
   182d4:	f9f9faf9 f6f7f8f9 f2f2f4f5 f2f1f1f2     ................
   182e4:	f4f4f3f2 f3f3f4f4 f4f3f3f3 f7f6f5f4     ................
   182f4:	fbfaf9f8 fcfcfbfb 00fffefd 01010000     ................
   18304:	05040302 03040505 00000102 00000000     ................
   18314:	ff000000 fafafbfd fcfbfafa fdfdfdfc     ................
   18324:	fefdfdfd 0200fffe 07060503 0a0a0908     ................
   18334:	0f0e0d0b 15141311 15161616 15141415     ................
   18344:	15151615 14131414 18171615 16181919     ................
   18354:	0f101214 0f0f0e0f 0e0e0e0f 0f0e0e0e     ................
   18364:	16141210 1b1b1a18 18191a1b 17171717     ................
   18374:	1a1a1918 17181a1a 13131315 15141413     ................
   18384:	11131415 0d0d0e0f 0d0e0d0d 04070a0c     ................
   18394:	fdfe0002 f4f6f8fb e7eaeef1 e1e2e3e5     ................
   183a4:	dbdddfe0 d5d5d7d9 d8d7d5d5 d9dadad9     ................
   183b4:	dbd9d9d9 e4e2dfdd e7e7e7e6 e8e7e7e7     ................
   183c4:	eeecebe9 f2f1f0ef f5f4f3f3 fbf9f8f6     ................
   183d4:	fafbfbfb f6f7f8f9 f3f3f3f4 f5f4f4f3     ................
   183e4:	f4f4f5f5 f2f2f2f3 f4f3f3f3 f7f6f5f4     ................
   183f4:	faf9f9f8 fbfbfafa fefdfcfb 04030100     ................
   18404:	03040404 02010202 03030302 01020303     ................
   18414:	fdfeff00 fdfdfdfd fcfcfcfd fbfbfbfc     ................
   18424:	fefcfbfb 020100ff 03020202 0b080604     ................
   18434:	100f0e0d 11101010 16161413 14151616     ................
   18444:	12121213 17161513 19191918 14151617     ................
   18454:	12131313 0e0f1011 0b0b0c0d 100f0d0c     ................
   18464:	16151412 17171717 17161616 1b1a1918     ................
   18474:	1718191a 17161616 17181817 12131516     ................
   18484:	11111111 10111111 0b0c0e0f 090a0a0a     ................
   18494:	00030608 f4f6f9fc eff1f2f3 e2e6eaed     ................
   184a4:	dadbdcde dadbdbda d6d7d8da d6d5d4d5     ................
   184b4:	dedcdad8 e1e1e1e0 e4e3e2e2 e8e7e6e5     ................
   184c4:	ecebeae9 efeeeeed f6f4f2f1 faf9f9f7     ................
   184d4:	f9fafafa f5f6f7f8 f5f5f5f5 f5f5f5f5     ................
   184e4:	f3f4f5f5 f1f1f2f3 f4f3f2f1 f7f7f6f5     ................
   184f4:	f5f6f7f7 faf8f6f6 00fffefc 01010100     ................
   18504:	01010101 04030302 02030404 00000102     ................
   18514:	0100ffff feff0001 f9f9fafc fdfcfaf9     ................
   18524:	fcfdfdfd fdfcfcfc 040200ff 08070705     ................
   18534:	0d0b0a09 1312100f 13131414 12111212     ................
   18544:	15141312 16161616 18171716 17181818     ................
   18554:	11131516 0c0d0e10 0e0d0c0c 1111100f     ................
   18564:	12111111 17151413 19191818 16171718     ................
   18574:	19181716 191a1a1a 15161718 16161515     ................
   18584:	10121415 0f0e0e0f 10111110 080a0c0f     ................
   18594:	02030406 fdff0102 eef2f6f9 e5e6e8eb     ................
   185a4:	e0e2e3e4 d8dadcde d5d5d6d7 d7d7d6d6     ................
   185b4:	dcdad9d8 e0dfdedd e3e3e2e1 e6e5e4e4     ................
   185c4:	e9e8e7e7 efeeecea f5f4f2f1 f9f8f7f6     ................
   185d4:	f8f9f9f9 f6f6f6f7 f7f7f6f6 f5f7f7f8     ................
   185e4:	f1f2f3f4 f3f2f2f1 f5f5f4f4 f3f3f3f4     ................
   185f4:	f6f4f4f3 fbfaf8f7 fefdfcfc fffefefe     ................
   18604:	04030100 02030404 01000001 04040302     ................
   18614:	00020304 fcfdfdff fdfdfdfc fafbfbfc     ................
   18624:	fbfafafa fffefdfc 00ffffff 07040200     ................
   18634:	0e0d0b09 0f0e0e0e 1111100f 13131312     ................
   18644:	13131313 16151413 1a1a1917 1618191a     ................
   18654:	10111214 0f0f0f0f 0f0f0f10 0e0d0e0e     ................
   18664:	1412100e 15161615 15141414 18171716     ................
   18674:	17171818 1a191817 191a1a1a 12131517     ................
   18684:	12111011 11121313 0c0d0e10 0c0b0b0b     ................
   18694:	07090b0c fcff0104 f4f6f7f9 eaedeff2     ................
   186a4:	e1e3e5e8 dadcdddf d7d7d8d9 d6d6d6d6     ................
   186b4:	dbdad8d7 e0dfdddc e2e1e1e0 e4e3e2e2     ................
   186c4:	e8e7e6e5 eeeceae9 f5f4f2f0 f6f6f6f6     ................
   186d4:	f6f6f6f6 f9f9f8f7 f7f8f9f9 f4f4f5f6     ................
   186e4:	f5f5f4f4 f5f5f5f5 f2f3f4f4 f3f2f1f1     ................
   186f4:	f8f7f5f4 f7f7f8f8 fcfaf9f8 020100fe     ................
   18704:	00010102 0100ff00 04040302 02030404     ................
   18714:	01010102 00010202 fafbfdff fdfcfbfa     ................
   18724:	fdfdfdfd fafafbfb 00fefdfb 07060402     ................
   18734:	0a090808 0e0d0c0b 12111110 11111111     ................
   18744:	13121111 18171514 191a1a1a 15151718     ................
   18754:	14141414 0f101113 0e0e0e0e 11100f0f     ................
   18764:	11101111 14131211 15161615 13131314     ................
   18774:	1a191715 1b1c1c1c 1617181a 17161616     ................
   18784:	13141516 0e0f0f11 100f0f0f 0e0f0f10     ................
   18794:	07090a0c 01030406 f8fbfdff eef0f3f6     ................
   187a4:	e5e7e9eb dddfe1e3 d7d8dadb d7d7d7d7     ................
   187b4:	dad9d8d8 dfdedddc e0e0e0df e0e0e0e0     ................
   187c4:	e7e4e2e1 efeeecea f0f0f0f0 f4f2f1f1     ................
   187d4:	f9f8f6f5 f8f9f9f9 f4f5f6f7 f7f5f4f4     ................
   187e4:	f7f8f8f8 f1f2f4f5 f2f1f1f1 f5f5f4f3     ................
   187f4:	f3f3f4f4 f7f5f3f3 fefdfcf9 fdfdfefe     ................
   18804:	00fefdfd 02020201 01010101 05040302     ................
   18814:	02030405 feffff00 fffefefe fcfdfeff     ................
   18824:	f9fafafb fcfbfafa fefdfdfd 040200ff     ................
   18834:	09080605 0d0d0c0b 0e0e0e0e 100f0e0d     ................
   18844:	15141311 16151515 18171716 17181919     ................
   18854:	11121415 11111010 0f101111 0e0e0e0e     ................
   18864:	1312110f 11131414 11101010 17151412     ................
   18874:	18181817 19181818 1a1b1a1a 15171819     ................
   18884:	11121314 11111111 10101111 0e0e0f0f     ................
   18894:	0a0b0c0d 03050709 fcfe0001 f2f4f7f9     ................
   188a4:	e7eaedef dfe1e2e5 d9dbdcde d6d6d7d8     ................
   188b4:	dcdad8d7 dedededd dcdcddde e0dedddd     ................
   188c4:	e9e7e5e2 ecebebea edececec f6f4f2ef     ................
   188d4:	f7f8f8f7 f5f5f6f7 f8f6f6f5 f9fafaf9     ................
   188e4:	f4f5f6f8 f4f4f3f3 f4f5f5f5 f0f0f2f3     ................
   188f4:	f5f3f2f0 f8f7f7f6 faf9f8f8 fffefdfb     ................
   18904:	fefeffff fffefefe 05040301 02030405     ................
   18914:	02020102 01020302 feffff00 fcfcfdfd     ................
   18924:	fbfcfcfc fafafbfb fcfbfbfb 040200fe     ................
   18934:	09080706 09080809 0e0d0b0a 1110100f     ................
   18944:	12111111 18161413 18181918 16161617     ................
   18954:	14151516 0f101213 100f0e0e 13131211     ................
   18964:	0f101112 11100f0f 12121211 13131312     ................
   18974:	18161514 1c1c1b19 191a1b1c 16171718     ................
   18984:	13141415 11111213 11111111 0f101011     ................
   18994:	0b0c0e0f 0708090a ff010405 f4f7fafc     ................
   189a4:	edeff0f2 e1e4e7ea d9dadcdf d9d9d8d8     ................
   189b4:	dcdcdbda d9dadbdc dcdbdad9 e2e1dfdd     ................
   189c4:	e5e5e4e3 e9e7e6e5 f0eeecea f4f4f3f2     ................
   189d4:	f3f3f3f3 f8f7f6f4 f8f9faf9 f6f6f6f7     ................
   189e4:	f9f8f8f7 f4f6f7f8 f1f1f2f3 f3f3f2f2     ................
   189f4:	f2f2f3f3 f7f5f3f2 fcfcfbf9 fafafbfb     ................
   18a04:	fefdfbfa 010100ff 02020201 04030302     ................
   18a14:	03040404 01010203 ffffff00 feffffff     ................
   18a24:	fafbfdfe f9f8f9f9 fefdfbf9 02010100     ................
   18a34:	05040302 09080706 0b0b0b0a 0f0e0d0c     ................
   18a44:	13131210 14131313 19181615 16181919     ................
   18a54:	11121315 11111010 13131312 0f101112     ................
   18a64:	1010100f 10111111 0e0e0f0f 1211100f     ................
   18a74:	18171514 1a1a1919 191a1a1a 16171819     ................
   18a84:	12131415 12121212 10111212 0f0f0f0f     ................
   18a94:	0d0e0f0f 08090b0c 00010306 fafcfeff     ................
   18aa4:	eef2f5f8 e1e3e7eb dededfe0 dbdcdddd     ................
   18ab4:	d8d9d9da d9d8d8d8 dedcdbda dededede     ................
   18ac4:	e1e0dede ebe9e7e4 ecededed efeeecec     ................
   18ad4:	f6f5f3f1 f5f6f6f7 f7f5f5f4 fafaf9f8     ................
   18ae4:	f6f7f8f9 f6f6f6f6 f3f4f5f6 efeff0f1     ................
   18af4:	f5f3f2f0 f6f6f6f6 f7f7f6f6 fbfaf9f8     ................
   18b04:	fdfdfdfc fffefdfd 03020000 04040403     ................
   18b14:	02020304 02010101 01020202 fdfeff01     ................
   18b24:	fafafbfc fbfbfafa fcfcfcfb 01fffefd     ................
   18b34:	03030302 06050404 0c0b0907 0e0e0e0d     ................
   18b44:	100f0f0e 17151312 18191918 14151617     ................
   18b54:	14141414 12131314 12121212 13131212     ................
   18b64:	10111212 0e0f0f10 0f0e0e0e 11111010     ................
   18b74:	18161412 1c1b1a19 191a1b1c 16171818     ................
   18b84:	15151616 12131415 11111112 12121212     ................
   18b94:	0d0f1112 09090a0b 07080809 fd000305     ................
   18ba4:	f0f3f6f9 e7e9ebed e3e4e6e7 d9dcdee0     ................
   18bb4:	d9d8d8d8 dddcdcda d9dadbdc dddbd9d9     ................
   18bc4:	e5e4e2e0 e6e6e6e6 eceae8e7 f1f1efed     ................
   18bd4:	f2f1f1f2 f7f6f4f3 f7f7f7f7 f8f7f7f7     ................
   18be4:	fbfbfbfa f5f7f9fa f1f1f1f3 f4f3f2f2     ................
   18bf4:	f3f3f4f4 f4f4f3f3 f9f8f7f6 fafafaf9     ................
   18c04:	fbfaf9f9 00fffefd 03020201 02020203     ................
   18c14:	03020202 04050504 00010203 fefeffff     ................
   18c24:	fbfcfdfd fbfafafb fdfdfcfb fffefefd     ................
   18c34:	0100ffff 07060503 09080808 0d0b0a09     ................
   18c44:	1211100f 15141313 16161515 16171716     ................
   18c54:	12131415 12121212 15151413 12131414     ................
   18c64:	10101112 0e0f0f0f 0d0d0d0e 100f0e0d     ................
   18c74:	18161412 191a1a19 19181919 18191919     ................
   18c84:	13141517 13131212 14141414 10111213     ................
   18c94:	0c0d0e0f 0d0d0c0c 080a0c0d fcff0205     ................
   18ca4:	f5f6f8fa edf0f3f4 e0e3e6e9 ddddddde     ................
   18cb4:	dcdddddd d7d8d9da dad9d7d7 dcdddcdc     ................
   18cc4:	e1dfdddd e8e6e5e3 e9e9e9e8 eeeceae9     ................
   18cd4:	f3f3f1f0 f2f2f3f4 f6f5f3f2 fcfbfaf8     ................
   18ce4:	f8f9fbfc f4f5f5f6 f4f4f4f4 f1f2f2f3     ................
   18cf4:	f3f2f2f1 f5f5f4f4 f6f6f6f6 f7f6f6f6     ................
   18d04:	fcfaf9f8 fefefefd 00fffffe 02010100     ................
   18d14:	03030303 03040403 01010203 fdfeff00     ................
   18d24:	fdfcfcfc fcfdfdfd fafafafb fefdfbfa     ................
   18d34:	010100ff 02020202 08060403 0d0c0b0a     ................
   18d44:	0f0f0e0e 14121110 17161615 14151616     ................
   18d54:	12121213 14141313 15151515 13131414     ................
   18d64:	11121313 0b0d0e10 0d0c0b0b 1111100f     ................
   18d74:	15131212 1a181716 1a1b1b1b 15161719     ................
   18d84:	15151515 17171615 13141516 0f0f1011     ................
   18d94:	1110100f 0e0f1111 0608090c 03040505     ................
   18da4:	f9fd0002 edeff2f6 e7e9eaeb dfe1e3e6     ................
   18db4:	dadadbdd dadbdbda d7d8d8d9 dcdad9d8     ................
   18dc4:	e2e1e0de e3e2e2e2 eae8e5e4 eeeeedec     ................
   18dd4:	edededee f3f1f0ee f8f8f7f5 f9f9f8f8     ................
   18de4:	f9fafafa f7f8f8f9 f2f3f4f5 f3f2f2f2     ................
   18df4:	f5f5f4f3 f4f4f4f4 f4f4f4f4 f8f7f6f5     ................
   18e04:	fbfafaf9 fdfcfcfb 00fffefd 01010000     ................
   18e14:	05040302 03040505 00000102 00000000     ................
   18e24:	feff0000 fafafbfd fcfbfbfa fdfdfdfd     ................
   18e34:	fefdfdfd 0201fffe 07060504 0a0a0908     ................
   18e44:	0f0e0c0b 14131211 14151515 14141313     ................
   18e54:	13141414 13131313 17161514 14161718     ................
   18e64:	0e0f1112 0e0e0e0e 0d0d0d0e 0f0e0d0d     ................
   18e74:	16141110 1a191918 16171919 16161516     ................
   18e84:	19181817 15161819 12121213 14131312     ................
   18e94:	0f111313 0c0c0c0e 0c0d0d0c 0306080b     ................
   18ea4:	fcfeff01 f3f6f8fa e8ebedf0 e2e3e4e6     ................
   18eb4:	dcdee0e1 d7d7d9da dbd9d8d7 dbdbdcdc     ................
   18ec4:	dddcdbda e6e4e2df e8e8e8e8 e9e8e8e7     ................
   18ed4:	efedecea f3f2f1f0 f5f4f3f3 fbfaf8f7     ................
   18ee4:	fafafbfb f5f6f8f9 f3f3f3f4 f5f5f4f4     ................
   18ef4:	f4f4f5f5 f3f3f3f3 f4f4f3f3 f7f6f6f5     ................
   18f04:	fafaf9f8 fbfbfafa fffdfcfb 04030200     ................
   18f14:	03030404 02010102 03030302 01020203     ................
   18f24:	fefefeff fdfefefd fcfcfdfd fbfbfbfc     ................
   18f34:	fefdfcfb 020100ff 03020202 0b090605     ................
   18f44:	0f0f0e0d 11100f0f 15151413 13141515     ................
   18f54:	12111112 17151413 17181818 13141516     ................
   18f64:	11121213 0d0e0f10 0b0b0b0c 100f0d0c     ................
   18f74:	16151412 16161616 16151515 19191817     ................
   18f84:	15161819 16151515 16161716 11121415     ................
   18f94:	10101011 0f101010 0a0b0c0e 08090909     ................
   18fa4:	fe020407 f5f6f9fb eff1f2f3 e3e6eaed     ................
   18fb4:	dcdddee0 dcdddddc d8d9dadb d8d7d7d7     ................
   18fc4:	e0dfddda e3e3e2e2 e6e5e4e3 e9e8e7e6     ................
   18fd4:	edecebea f0efeeed f6f4f3f1 faf9f9f8     ................
   18fe4:	f8f9fafa f6f6f6f7 f5f5f5f5 f5f5f6f5     ................
   18ff4:	f4f4f5f5 f1f1f2f3 f5f4f2f2 f8f7f7f6     ................
   19004:	f6f6f7f7 fbf9f7f6 00fffefc 00000000     ................
   19014:	01010100 04030302 02030304 00000101     ................
   19024:	00000000 feff0001 f9f9fafc fdfcfbfa     ................
   19034:	fdfdfefe fefdfcfc 04030100 08070706     ................
   19044:	0d0b0908 1212100e 11121313 11101111     ................
   19054:	14131211 15151515 17161615 15161617     ................
   19064:	10121314 0b0c0d0e 0e0c0b0b 1010100f     ................
   19074:	11101010 16141312 17171717 15151616     ................
   19084:	17171615 17181818 14141516 14141414     ................
   19094:	0f101213 0e0d0d0e 0f10100f 06090b0d     ................
   190a4:	02020305 fcff0001 eff2f5f9 e7e7e9ec     ................
   190b4:	e2e3e5e6 dadcdde0 d8d8d8d9 dadad9d9     ................
   190c4:	dedddcdb e2e1e0df e5e5e4e3 e8e7e6e6     ................
   190d4:	ebeae9e8 f1efeeec f6f5f3f2 f9f8f8f7     ................
   190e4:	f8f9f9f9 f6f6f7f7 f8f7f7f6 f6f7f8f8     ................
   190f4:	f2f2f3f4 f4f3f3f2 f5f6f5f5 f4f4f4f5     ................
   19104:	f7f6f5f4 fcfbf9f8 fefdfdfc fffefefe     ................
   19114:	04030200 01020304 01000000 04040302     ................
   19124:	00010303 fdfdfeff fdfdfdfd fbfbfcfc     ................
   19134:	fcfbfbfb fffffefd 0000ffff 07050301     ................
   19144:	0e0d0b0a 0e0e0e0e 11100f0f 12121211     ................
   19154:	12121212 15141312 19191817 14161818     ................
   19164:	0e0f1012 0e0e0e0e 0e0e0f0e 0d0c0d0d     ................
   19174:	13110f0e 14141514 14131313 16161515     ................
   19184:	15161617 18171716 17181919 10121415     ................
   19194:	1211100f 10111212 0a0b0d0e 0b0b0a0a     ................
   191a4:	05080a0b fbfe0003 f4f6f7f9 eaedeff2     ................
   191b4:	e1e4e6e8 dcdddee0 d9d9dadb d9d8d8d8     ................
   191c4:	dddcdbda e1e1dfde e3e3e3e2 e6e4e4e3     ................
   191d4:	e9e8e7e6 efeeecea f5f4f3f1 f6f6f6f6     ................
   191e4:	f7f6f6f6 f9f9f8f7 f6f7f9f9 f4f4f5f5     ................
   191f4:	f5f5f5f5 f5f5f5f5 f2f3f3f4 f4f3f2f1     ................
   19204:	f8f7f6f5 f8f7f8f8 fdfbf9f8 010100ff     ................
   19214:	00000101 0100ffff 04040302 02020304     ................
   19224:	01010101 00010101 fbfbfcfe fdfcfbfb     ................
   19234:	fcfdfdfd fbfbfbfb 01fffefc 07060503     ................
   19244:	0a090808 0e0d0c0b 1011100f 10101010     ................
   19254:	12111010 18161513 17181818 13141516     ................
   19264:	12131313 0e0f1011 0e0d0d0d 10100f0e     ................
   19274:	100f0f10 14131211 14141514 13121212     ................
   19284:	19181614 191a1a1a 14151617 15151515     ................
   19294:	11121415 0e0e0e0f 0f0f0f0e 0c0e0e0f     ................
   192a4:	0607090b 00020405 f8fafcfe eef0f3f5     ................
   192b4:	e5e7e9eb dee0e2e3 dadadbdd dadadad9     ................
   192c4:	dddcdbda e1e0dfde e2e2e2e2 e3e2e2e2     ................
   192d4:	eae7e5e4 f0f0eeed f2f1f1f1 f5f4f3f2     ................
   192e4:	faf9f8f7 f8f9fafa f5f6f6f7 f8f7f6f5     ................
   192f4:	f7f8f9f9 f2f3f4f5 f4f3f2f2 f5f5f5f5     ................
   19304:	f4f4f4f5 f9f7f5f4 fefefdfb fdfdfefe     ................
   19314:	0100fefd 02020202 02010101 05050402     ................
   19324:	01030405 feffff00 fffffefe fcfdfeff     ................
   19334:	fafafafb fdfcfbfb fffefefd 05030200     ................
   19344:	0a090706 0d0d0c0b 0d0d0d0d 100f0e0d     ................
   19354:	14131312 15151414 17171615 15171818     ................
   19364:	10111213 10101010 0e0f1010 0e0d0d0d     ................
   19374:	1312110f 10111213 11100f0f 16151312     ................
   19384:	17171717 18181717 18191919 13151617     ................
   19394:	10111112 10101010 0f0f1010 0c0d0e0e     ................
   193a4:	090a0b0c 02040608 fbfdff00 f1f4f6f8     ................
   193b4:	e7eaecef e0e2e3e5 dadcdddf d9d8d9d9     ................
   193c4:	dedddbd9 dfe0e0df dedededf e2e1dfdf     ................
   193d4:	eae9e7e5 ecececeb efeeedec f7f6f3f1     ................
   193e4:	f7f8f8f8 f5f5f6f7 f8f7f6f6 f9fafaf9     ................
   193f4:	f4f4f6f7 f5f4f4f4 f4f5f5f5 f0f0f1f2     ................
   19404:	f6f4f3f1 f8f8f7f7 fbf9f8f8 fffefefc     ................
   19414:	fefefefe 00fefefe 05040302 02020305     ................
   19424:	02010101 01010202 fefeff00 fcfcfcfd     ................
   19434:	fbfcfcfc fbfafbfb fdfcfbfb 040301ff     ................
   19444:	08080706 08080808 0e0c0b09 10100f0f     ................
   19454:	11101010 16151412 16161717 14141515     ................
   19464:	12131414 0e0f1011 0f0e0d0d 11121110     ................
   19474:	0e0e0f10 100f0e0e 11111110 12121111     ................
   19484:	17151413 1a1a1918 17181919 14151516     ................
   19494:	12121213 0f101011 0f100f0f 0e0e0f0f     ................
   194a4:	090a0c0d 05060708 fd000204 f4f6f8fb     ................
   194b4:	eceef0f2 e1e4e6e9 dbdbdddf dcdbdada     ................
   194c4:	dededddd dbdcdddd dedddcdb e4e3e1e0     ................
   194d4:	e6e6e6e5 eae9e8e7 f1f0eeec f4f4f4f3     ................
   194e4:	f4f3f3f3 f9f8f6f5 f8f9f9f9 f7f6f6f6     ................
   194f4:	f9f9f8f8 f4f5f7f8 f2f2f2f2 f4f4f3f3     ................
   19504:	f2f3f3f3 f9f6f4f3 fcfcfcfa fafafbfb     ................
   19514:	fffefcfb 01010000 02010202 04030202     ................
   19524:	03030404 00010203 ffffff00 feffffff     ................
   19534:	fafbfcfd faf9f9f9 00fefcfb 02020101     ................
   19544:	05040303 0a090806 0c0b0b0a 0f0e0d0c     ................
   19554:	13121211 14131313 18171615 15161818     ................
   19564:	10111213 11101010 12121312 0f0f0f11     ................
   19574:	10100f0f 0f101010 0e0e0e0f 1311100f     ................
   19584:	18171514 19191918 18191919 15161718     ................
   19594:	12121213 12121212 0f101111 0f0f0e0f     ................
   195a4:	0c0d0e0e 07090a0b 00010304 fafcfdff     ................
   195b4:	eef2f5f7 e2e4e7ea e0e0e1e1 dddedfe0     ................
   195c4:	dbdbdcdc dcdbdbda e0dfdedd e0e0e1e1     ................
   195d4:	e5e3e1e0 eeeceae7 ededeeee f1efeeed     ................
   195e4:	f7f7f5f3 f5f6f6f7 f8f7f6f5 fafafaf9     ................
   195f4:	f6f7f8f9 f6f6f6f6 f2f4f5f6 f1f0f0f1     ................
   19604:	f6f5f3f2 f7f7f7f7 f8f7f7f7 fcfbfaf9     ................
   19614:	fdfdfdfd fffefefd 03020100 03040403     ................
   19624:	01020303 02020101 01010202 fcfeff00     ................
   19634:	fafafbfb fcfbfbfa fcfcfcfc 0200fffd     ................
   19644:	03030303 06050404 0c0b0907 0d0d0d0d     ................
   19654:	100f0e0e 16141311 15161716 12131414     ................
   19664:	12121212 11111112 10111111 11111111     ................
   19674:	0f0f1011 0d0d0e0e 0e0e0d0c 10100f0f     ................
   19684:	16151312 19191817 17171819 14151516     ................
   19694:	13131314 10111213 100f0f10 10111010     ................
   196a4:	0a0c0e10 08080809 05060707 fbfe0103     ................
   196b4:	eff2f5f8 e9eaebed e4e6e7e8 dcdddfe2     ................
   196c4:	dddcdbdb dfdfdfde dcdcdddf e1dfdddc     ................
   196d4:	e8e7e5e3 e9e8e8e8 eeecebe9 f2f2f1f0     ................
   196e4:	f3f2f2f2 f7f7f6f4 f7f7f8f8 f9f8f7f7     ................
   196f4:	fbfbfbfb f4f6f8fa f2f2f2f3 f5f4f4f3     ................
   19704:	f4f4f4f4 f6f5f4f4 faf9f8f7 fafafafa     ................
   19714:	fcfbfafa 00fffefd 02020101 01010202     ................
   19724:	03030201 03040404 00000102 feffffff     ................
   19734:	fcfcfdfd fcfbfbfb fefdfdfc fffffefe     ................
   19744:	020000ff 07060503 08080707 0c0b0908     ................
   19754:	11100f0e 13121211 14131313 14141514     ................
   19764:	10111213 11101010 12131212 10111112     ................
   19774:	0e0e0f10 0d0d0d0e 0c0c0c0c 0f0e0d0c     ................
   19784:	16151311 16171717 16161616 15161717     ................
   19794:	10111214 12111110 12121212 0d0f0f10     ................
   197a4:	0b0b0c0c 0b0b0b0b 06080a0b fcfe0003     ................
   197b4:	f6f7f8fa edf0f3f5 e3e5e7ea e1e1e1e1     ................
   197c4:	dfe0e1e1 dcdcddde dfdedddc e1e1e1e0     ................
   197d4:	e5e3e2e1 ebeae9e7 ebebebeb f1efedec     ................
   197e4:	f5f5f4f2 f3f3f4f5 f8f7f5f4 fcfcfbfa     ................
   197f4:	f8f9fbfc f6f6f6f6 f5f5f5f6 f3f3f3f4     ................
   19804:	f5f4f4f3 f7f6f6f5 f7f7f7f7 f8f8f7f7     ................
   19814:	fdfcfaf9 fffefefe 0000ffff 02010100     ................
   19824:	03030303 03030303 01010202 fdfeff00     ................
   19834:	fefdfdfd fcfdfefe fbfbfbfc fffefdfc     ................
   19844:	02010100 02020202 08060503 0c0b0a09     ................
   19854:	0e0d0d0c 1211100f 14141313 11121313     ................
   19864:	10101010 12111110 12121212 10101111     ................
   19874:	0e0f1010 0a0a0b0d 0c0b0a0a 0f0f0e0d     ................
   19884:	12111010 17161514 16171717 12131314     ................
   19894:	12121212 13131313 0f101213 0c0c0d0e     ................
   198a4:	0e0e0e0d 0b0c0e0e 05060709 02030404     ................
   198b4:	f9fcfe01 eff0f3f6 eaeceded e3e4e6e8     ................
   198c4:	e0e0e0e1 dfe0e0e0 dedededf e2e1dfde     ................
   198d4:	e7e6e5e4 e7e7e7e7 eeeceae9 f0f1f0ef     ................
   198e4:	f0f0f0f0 f6f4f3f1 f9f9f8f7 fafaf9f9     ................
   198f4:	fafafafa f7f8f9fa f4f4f5f6 f5f4f4f4     ................
   19904:	f6f6f6f5 f5f5f6f6 f6f6f6f5 faf9f8f7     ................
   19914:	fcfbfbfa fdfdfcfc 00fffffe 01010000     ................
   19924:	04040302 02030304 00000001 00000000     ................
   19934:	feff0000 fbfbfcfd fdfcfcfb fefefefe     ................
   19944:	fefefefe 030100ff 06060504 09080807     ................
   19954:	0d0c0b0a 1111100f 10111112 11101010     ................
   19964:	10101111 10101010 14131211 10121314     ................
   19974:	0c0c0d0f 0c0c0c0b 0b0b0b0b 0c0c0b0b     ................
   19984:	1311100e 15151514 12131415 13121212     ................
   19994:	14141413 10121314 0f0f0f0f 1010100f     ................
   199a4:	0c0e0f10 0a0a0a0b 090a0b0a 02040608     ................
   199b4:	fcfdff00 f4f6f8fa ebedeff2 e7e8e8e9     ................
   199c4:	e2e3e5e6 dededfe0 e2e1e0df e1e1e2e2     ................
   199d4:	e4e3e2e1 ebeae8e6 ecececec eeedecec     ................
   199e4:	f2f1f0ef f5f5f4f3 f8f7f6f5 fcfbfaf9     ................
   199f4:	fafbfbfc f7f7f8f9 f5f5f5f6 f7f7f6f6     ................
   19a04:	f5f6f6f7 f5f5f5f5 f6f6f6f5 f9f8f8f7     ................
   19a14:	fbfbfafa fcfcfbfb fffefdfc 03020201     ................
   19a24:	02020303 02010101 02020202 00010102     ................
   19a34:	fefefeff fdfefefe fdfdfdfd fcfcfcfc     ................
   19a44:	fffefdfc 02010100 03020202 0a080604     ................
   19a54:	0c0c0c0b 0e0d0c0c 11111110 0e0f1011     ................
   19a64:	0f0e0e0e 12121110 12131313 0f0f1011     ................
   19a74:	0d0e0e0f 0a0b0c0d 09090909 0e0c0b0a     ................
   19a84:	1111100f 11111112 12111111 14141413     ................
   19a94:	11111213 11111110 11121212 0d0e0f10     ................
   19aa4:	0c0c0d0d 0b0c0c0c 0808090a 06070707     ................
   19ab4:	fd000204 f6f7f9fb f2f3f4f5 e7e9ecef     ................
   19ac4:	e3e3e4e5 e3e4e4e4 dfe0e1e2 e1e0dfdf     ................
   19ad4:	e7e6e4e3 e9e8e8e8 ebeaeae9 eeededec     ................
   19ae4:	f1f0efef f4f3f2f1 f9f7f6f5 fbfbfafa     ................
   19af4:	f9fafafb f7f7f8f8 f7f7f7f7 f7f7f7f7     ................
   19b04:	f6f6f6f7 f4f4f4f5 f7f6f6f5 f9f9f9f8     ................
   19b14:	f8f8f8f9 fcfbf9f8 00fffffe 00000000     ................
   19b24:	01010000 03030202 01020203 00000000     ................
   19b34:	01000000 fdff0001 fbfbfbfc fefefdfc     ................
   19b44:	fdfefefe fffefdfd 04030200 06060605     ................
   19b54:	0b090807 0f0e0d0c 0e0e0e0f 0e0d0d0d     ................
   19b64:	100f0f0e 10101010 12121111 10111112     ................
   19b74:	0c0d0e10 09090a0b 0b0a0909 0d0d0d0c     ................
   19b84:	0e0d0d0d 1111100f 12121212 10101111     ................
   19b94:	13121111 12131313 0f101011 0f10100f     ................
   19ba4:	0b0c0d0e 0b0b0a0a 0b0c0c0c 04060709     ................
   19bb4:	01020203 fcfeff01 f1f4f6f9 ececedef     ................
   19bc4:	e7e9eaeb e2e3e4e6 e1e1e1e1 e3e2e2e1     ................
   19bd4:	e6e5e4e4 e9e8e8e7 ebebebea ededecec     ................
   19be4:	f0efeeee f4f3f2f1 f8f7f6f5 fafafaf9     ................
   19bf4:	f9fafafa f8f8f8f9 f9f9f9f8 f7f8f9f9     ................
   19c04:	f5f5f5f6 f7f6f6f5 f7f8f8f7 f6f6f6f7     ................
   19c14:	f9f8f7f7 fdfcfbfa fefefefd 00fffefe     ................
   19c24:	03030201 00010203 01000000 03030202     ................
   19c34:	ff000102 fefefefe fdfefefe fcfcfcfd     ................
   19c44:	fdfdfcfc fffffffe 000000ff 06050302     ................
   19c54:	0a0a0908 0b0b0a0a 0d0d0c0c 0e0e0d0d     ................
   19c64:	0d0d0e0e 11100f0e 13131212 0e101112     ................
   19c74:	0b0b0c0d 0b0b0b0b 0a0b0b0b 0a0a090a     ................
   19c84:	0f0e0c0b 0f0f0f10 0f0f0e0e 11111010     ................
   19c94:	10101111 13121111 11121213 0c0c0e0f     ................
   19ca4:	0d0d0c0c 0b0c0d0d 0808090a 08080808     ................
   19cb4:	03050607 fbfdff01 f6f8f9fa eff1f2f4     ................
   19cc4:	e8eaebed e4e5e6e7 e2e3e3e4 e3e2e2e2     ................
   19cd4:	e6e5e5e4 e9e9e8e7 eaeaeaea ececebeb     ................
   19ce4:	efeeeeed f4f3f2f1 f8f8f7f5 f8f8f9f8     ................
   19cf4:	f9f9f8f8 fbfbfafa f8f9fafb f7f7f7f8     ................
   19d04:	f8f8f7f7 f7f7f8f8 f5f6f6f7 f7f6f6f5     ................
   19d14:	fafaf9f8 fafafafa fefdfcfa 01010100     ................
   19d24:	00000001 01000000 03030302 01020203     ................
   19d34:	01010101 ff000101 fcfcfdfe fefefdfd     ................
   19d44:	fdfefefe fdfcfcfc 0200fffe 06050403     ................
   19d54:	08070706 0b0a0909 0c0c0c0c 0c0c0c0c     ................
   19d64:	0e0d0d0c 1211100f 11121212 0e0e0f10     ................
   19d74:	0d0e0e0e 0a0a0b0c 0a0a0a09 0c0c0b0b     ................
   19d84:	0c0c0b0c 0f0e0d0d 0e0f0f0f 0e0d0d0d     ................
   19d94:	13121110 11121313 0f0f0f10 0f0f0f0f     ................
   19da4:	0b0d0e0f 0a0a0a0a 0b0b0b0a 08090a0a     ................
   19db4:	04050607 ff000203 f9fafcfe f1f3f5f7     ................
   19dc4:	ebedeef0 e6e8e9ea e4e4e5e5 e4e4e4e4     ................
   19dd4:	e7e6e5e5 eae9e8e8 eaeaeaea ebeaeaea     ................
   19de4:	f1efedeb f4f4f3f2 f5f5f5f5 f8f7f6f6     ................
   19df4:	fbfafaf9 fafafbfb f7f7f8f9 faf9f9f8     ................
   19e04:	f8f9fafa f5f6f6f7 f7f6f6f5 f8f8f8f7     ................
   19e14:	f7f7f7f7 fbfaf8f7 fefefefd fefefefe     ................
   19e24:	0000fffe 01010101 01010000 03030302     ................
   19e34:	00010203 fefeff00 fffffffe fcfdfeff     ................
   19e44:	fcfbfcfc fefdfdfc 00fffefe 04030201     ................
   19e54:	07060504 09090908 09090909 0c0b0a09     ................
   19e64:	0e0e0d0d 0f0f0e0e 1110100f 0e0f1011     ................
   19e74:	0b0b0c0d 0c0b0b0b 090a0a0b 0a0a0909     ................
   19e84:	0d0d0c0b 0b0b0c0d 0c0b0b0b 100f0e0d     ................
   19e94:	10101010 11111010 11111111 0d0e0f10     ................
   19ea4:	0b0b0c0c 0b0b0b0b 0a0a0b0b 0809090a     ................
   19eb4:	05070708 00020304 fbfdfeff f5f6f8fa     ................
   19ec4:	edeff1f3 e9eaebec e5e6e7e8 e5e4e4e4     ................
   19ed4:	e9e8e6e5 e9e9e9e9 e8e8e8e8 ecebe9e9     ................
   19ee4:	f1f0efee f2f2f2f2 f5f3f2f2 faf9f8f6     ................
   19ef4:	f9fafafa f8f8f8f9 fbfaf9f9 fafbfcfb     ................
   19f04:	f7f7f8f9 f8f8f7f7 f7f8f8f8 f5f5f5f6     ................
   19f14:	f9f8f7f6 fafafafa fdfcfbfa fffffffe     ................
   19f24:	fefeffff 01fffffe 03030302 01010203     ................
   19f34:	02010101 00010102 fefeffff fdfdfdfe     ................
   19f44:	fdfdfdfd fdfcfcfd fffefdfd 04030100     ................
   19f54:	06060505 06060506 0a090807 0b0b0b0a     ................
   19f64:	0c0c0b0b 100f0e0d 0f0f1010 0e0e0e0f     ................
   19f74:	0c0d0d0e 090a0b0b 0b0a0a09 0b0c0c0c     ................
   19f84:	0a0a0a0b 0b0b0a0a 0c0c0c0b 0d0c0c0c     ................
   19f94:	100f0e0d 12121211 0f101011 0d0e0e0f     ................
   19fa4:	0c0c0c0d 0a0b0b0b 0a0b0b0b 09090a0a     ................
   19fb4:	06070808 03040505 fdff0102 f7f8fafb     ................
   19fc4:	f1f3f4f6 eaeceeef e6e7e7e9 e8e7e7e6     ................
   19fd4:	e9e9e9e8 e7e7e7e8 eae9e8e7 ededeceb     ................
   19fe4:	efeeeeee f2f1f0ef f7f5f4f3 f7f8f8f8     ................
   19ff4:	f8f7f7f7 fbfafaf9 fafafbfc faf9f9f9     ................
   1a004:	fbfbfbfa f7f8f9fa f7f6f6f6 f7f7f7f7     ................
   1a014:	f7f7f7f7 fbfaf9f7 fdfdfdfc fcfcfcfc     ................
   1a024:	fffffefd 01000000 01010101 02020201     ................
   1a034:	02020202 00000101 ffffff00 feffffff     ................
   1a044:	fcfdfdfe fcfcfbfb 00fffefd 02010101     ................
   1a054:	04030302 06060505 08070707 0a0a0908     ................
   1a064:	0c0c0c0b 0d0c0c0c 10100f0e 0d0e0f10     ................
   1a074:	0a0b0b0c 0b0b0b0a 0b0c0c0c 0a0a0a0a     ................
   1a084:	0b0a0a0a 0a0a0b0b 0a090909 0d0c0b0a     ................
   1a094:	100f0e0e 10101010 0f101010 0d0e0e0f     ................
   1a0a4:	0b0b0c0c 0b0b0b0b 090a0b0b 09090909     ................
   1a0b4:	07080809 03050607 ff000102 fbfcfdff     ................
   1a0c4:	f3f5f8f9 ecedeff0 ebebebec e9eaeaeb     ................
   1a0d4:	e8e8e8e8 e9e8e8e8 ebebeaea ebebebeb     ................
   1a0e4:	efedeceb f4f3f2f1 f4f4f4f4 f7f6f5f4     ................
   1a0f4:	fafaf9f8 f9f9f9fa fbfaf9f9 fcfcfcfc     ................
   1a104:	f9fafafb f9f9f9f9 f6f7f8f9 f6f6f5f6     ................
   1a114:	faf9f8f7 fafafafa fbfafafa fdfdfcfc     ................
   1a124:	fefefefe 00fffffe 02010100 02020202     ................
   1a134:	01010102 01010101 00010101 fdfeffff     ................
   1a144:	fcfcfcfd fdfdfdfd fefefefd 010100ff     ................
   1a154:	02020202 04030303 08070605 08090908     ................
   1a164:	0a0a0909 0e0e0d0c 0d0e0e0f 0c0c0c0d     ................
   1a174:	0c0c0c0c 0b0b0b0b 0b0b0b0b 0b0b0b0b     ................
   1a184:	090a0a0a 08080909 09090808 0b0a0a0a     ................
   1a194:	0f0e0d0c 1010100f 0e0f0f10 0d0d0d0e     ................
   1a1a4:	0c0c0c0c 0a0b0b0c 0a0a0a0a 0a0a0a0a     ................
   1a1b4:	06070809 05050505 03040404 fcfeff01     ................
   1a1c4:	f4f6f8fa f1f1f2f3 edeeeff0 e8e9eaec     ................
   1a1d4:	eae9e8e8 ebebebea e9e9e9ea edebeae9     ................
   1a1e4:	f0f0efee f1f1f0f0 f5f4f3f2 f7f7f6f6     ................
   1a1f4:	f8f7f7f7 fafafaf9 fafafafa fcfbfafa     ................
   1a204:	fcfcfdfc f7f9fafb f7f7f7f7 f8f8f8f8     ................
   1a214:	f8f8f8f8 faf9f8f8 fcfbfbfa fcfcfcfc     ................
   1a224:	fefdfcfc 00fffffe 01010101 00000101     ................
   1a234:	02020101 02020202 ff000001 feffffff     ................
   1a244:	fdfdfdfe fdfdfcfc fefefefd ffffffff     ................
   1a254:	010100ff 04040302 05050504 08070605     ................
   1a264:	0b0a0a09 0c0c0b0b 0d0c0c0c 0c0c0d0d     ................
   1a274:	0a0a0b0b 0b0a0a0a 0b0c0c0b 0a0a0b0b     ................
   1a284:	09090909 08080808 07070707 0a090808     ................
   1a294:	0e0d0d0c 0e0e0e0e 0e0e0e0e 0d0d0e0e     ................
   1a2a4:	0a0a0b0c 0b0b0a0a 0a0b0b0b 0808090a     ................
   1a2b4:	07070707 07070707 03040506 fcfeff01     ................
   1a2c4:	f9fafafb f3f5f7f8 edeef0f1 ecececec     ................
   1a2d4:	ebececec e9e9e9ea ecebeae9 ecececec     ................
   1a2e4:	f0eeeded f3f2f2f1 f3f3f3f3 f7f6f4f4     ................
   1a2f4:	f9f9f8f8 f8f8f8f8 fcfbf9f8 fdfdfdfc     ................
   1a304:	fafbfcfd f9f9f9f9 f8f9f9f9 f8f7f8f8     ................
   1a314:	f9f8f8f8 fafaf9f9 fafafafa fbfbfafa     ................
   1a324:	fefefdfc ffffffff 000000ff 01010100     ................
   1a334:	02020202 01020202 00000101 fefeff00     ................
   1a344:	fefefefe fefefefe fdfdfdfd 00fffefe     ................
   1a354:	01010100 02010101 05040302 08070706     ................
   1a364:	09080808 0b0b0a09 0c0c0c0c 0a0b0b0c     ................
   1a374:	0a0a0a0a 0b0b0b0a 0b0b0b0b 0a0a0a0a     ................
   1a384:	08090a0a 06060708 08070706 0a090909     ................
   1a394:	0c0b0a0a 0e0e0d0c 0d0e0e0f 0b0b0c0c     ................
   1a3a4:	0b0b0b0b 0c0c0c0c 090a0b0b 08080808     ................
   1a3b4:	09090908 06070809 03030405 01010202     ................
   1a3c4:	fafcfeff f5f6f7f8 f2f3f3f4 edeeeff0     ................
   1a3d4:	ecececec ebececec ebeaeaeb eeedeceb     ................
   1a3e4:	f0f0f0ef f1f0f0f0 f5f4f3f2 f6f6f6f6     ................
   1a3f4:	f6f6f6f6 faf9f8f7 fbfbfbfb fcfcfcfb     ................
   1a404:	fcfcfcfc fafafbfb f8f8f9f9 f9f9f8f8     ................
   1a414:	f9fafaf9 f9f9f9f9 faf9f9f9 fcfbfbfa     ................
   1a424:	fdfdfdfc fefefefd 0000ffff 01000000     ................
   1a434:	02020202 01010202 00000000 00000000     ................
   1a444:	feffff00 fdfdfdfd fefefefd fffffefe     ................
   1a454:	fffffffe 02010000 04030302 06050504     ................
   1a464:	08080706 0b0a0a09 0a0a0a0b 0a0a0a0a     ................
   1a474:	090a0a0a 0a0a0a09 0c0c0b0b 090a0b0c     ................
   1a484:	07070808 07070707 06060607 08070707     ................
   1a494:	0c0b0a09 0d0d0d0c 0b0b0c0c 0c0b0b0b     ................
   1a4a4:	0c0c0c0c 0a0a0b0c 09090909 0a0a0a09     ................
   1a4b4:	07080909 06060606 05060606 00010304     ................
   1a4c4:	fdfefeff f8f9fafb f2f3f5f6 f0f1f1f1     ................
   1a4d4:	edeeefef ebebebec ededecec edededed     ................
   1a4e4:	efeeeded f3f3f2f0 f3f3f3f4 f5f4f4f3     ................
   1a4f4:	f8f7f6f5 f9f9f8f8 fbfafaf9 fdfdfcfc     ................
   1a504:	fcfcfdfd fafafbfb f9f9f9f9 fafafafa     ................
   1a514:	f9f9fafa f9f9f9f9 fafaf9f9 fcfbfbfb     ................
   1a524:	fdfdfcfc fdfdfdfd 00fffefe 02010101     ................
   1a534:	01010102 01010101 01010101 00000101     ................
   1a544:	ffffffff feffffff fefefefe fefefefe     ................
   1a554:	00fffffe 01010100 02020101 06050403     ................
   1a564:	07070707 09080807 0a0a0a0a 08090a0a     ................
   1a574:	09090808 0b0b0b0a 0b0b0c0b 0909090a     ................
   1a584:	08080809 06060707 06050505 09080706     ................
   1a594:	0a0a0a09 0a0a0a0a 0b0b0a0a 0c0c0c0c     ................
   1a5a4:	0a0a0b0b 0a0a0a0a 0a0a0b0b 08080809     ................
   1a5b4:	07070707 06070707 04040506 03030404     ................
   1a5c4:	fdff0002 fafafbfc f6f8f8f9 f0f1f3f5     ................
   1a5d4:	efefefef eeeeefef ececeded eeedecec     ................
   1a5e4:	f1f1f0ef f2f2f2f2 f3f3f3f2 f5f5f4f4     ................
   1a5f4:	f7f6f6f6 f9f8f8f7 fcfbfaf9 fdfdfcfc     ................
   1a604:	fbfcfcfd fafbfbfb fafafafa fafafafb     ................
   1a614:	f9fafafa f9f9f9f9 fbfafaf9 fbfcfcfb     ................
   1a624:	fbfbfbfb fefdfcfc 0000ffff 00000000     ................
   1a634:	01000000 02020101 00010101 00000000     ................
   1a644:	00000000 feffff00 fdfdfdfd fffffefe     ................
   1a654:	fefeffff 00fffffe 03020100 04030303     ................
   1a664:	07060504 09090808 08080809 08080808     ................
   1a674:	09090909 0a0a0a0a 0a0a0a0a 090a0a0a     ................
   1a684:	07070809 05050506 07060605 07070707     ................
   1a694:	08080807 0a0a0909 0a0b0b0a 0a09090a     ................
   1a6a4:	0b0b0a0a 0a0b0b0b 0909090a 09090909     ................
   1a6b4:	06060708 07060606 06060707 02030405     ................
   1a6c4:	00010101 fcfeff00 f6f8f9fb f4f4f4f5     ................
   1a6d4:	f1f2f3f3 eeeeeff0 eeededed efeeeeee     ................
   1a6e4:	f1f0f0ef f3f2f2f1 f4f3f3f3 f5f5f4f4     ................
   1a6f4:	f6f6f5f5 f9f9f8f7 fbfbfafa fcfcfcfc     ................
   1a704:	fcfcfcfc fbfbfbfb fcfcfbfb fafbfbfc     ................
   1a714:	f9f9f9fa fafafaf9 fbfbfbfb fafafafa     ................
   1a724:	fcfcfbfb fefefdfd fffffffe 00ffffff     ................
   1a734:	02020101 00000101 01000000 01010101     ................
   1a744:	ff000001 fffefeff feffffff fefefefe     ................
   1a754:	fffefefe 0000ffff 01000000 04030201     ................
   1a764:	06060605 07060606 08070707 08080808     ................
   1a774:	08080808 0a090908 0b0b0b0b 08090a0a     ................
   1a784:	06060707 06060606 06060606 06060606     ................
   1a794:	09080707 08080909 09090808 0a0a0a09     ................
   1a7a4:	0909090a 0b0b0a0a 090a0a0b 07070708     ................
   1a7b4:	08080707 06070708 04040505 04050504     ................
   1a7c4:	01020304 fdfeff00 fafafbfc f5f6f7f8     ................
   1a7d4:	f2f2f3f4 f0f0f1f1 efefefef efefefef     ................
   1a7e4:	f1f1f0f0 f3f3f2f2 f3f3f3f3 f5f4f4f4     ................
   1a7f4:	f6f6f5f5 f9f9f8f7 fbfbfbfa fbfbfbfb     ................
   1a804:	fcfcfbfb fdfdfdfc fbfbfcfc fbfbfbfb     ................
   1a814:	fbfbfbfb fafbfbfb f9f9fafa fbfbfafa     ................
   1a824:	fcfcfcfc fcfcfcfc fffffefd 00000000     ................
   1a834:	ff000000 01000000 01010101 00000101     ................
   1a844:	00000000 ff000000 fefefefe fffffefe     ................
   1a854:	fefeffff fefefefe 010000ff 03030202     ................
   1a864:	05040403 06060505 07070707 07060606     ................
   1a874:	08070707 0a0a0909 09090a0a 08080809     ................
   1a884:	07070808 05050606 06060505 06060606     ................
   1a894:	07060606 08080807 07080808 08080707     ................
   1a8a4:	0b0a0a09 090a0a0b 08080809 08080808     ................
   1a8b4:	06060708 05050505 06060606 04050506     ................
   1a8c4:	02020303 ff000001 fbfcfdfe f7f8f9fa     ................
   1a8d4:	f4f5f5f6 f1f2f2f3 f0f0f0f0 f0f0f0f0     ................
   1a8e4:	f2f1f1f1 f3f3f3f2 f3f3f3f3 f4f4f3f3     ................
   1a8f4:	f8f7f6f5 f9f9f9f8 fafaf9f9 fcfbfbfa     ................
   1a904:	fdfdfcfc fcfcfdfd fbfbfbfb fcfcfcfb     ................
   1a914:	fbfcfcfc fafafafa fbfafafa fbfbfbfb     ................
   1a924:	fbfafbfb fefdfcfb fffffffe fefefeff     ................
   1a934:	0000ffff 00000000 01000000 01020101     ................
   1a944:	00000101 ffffffff ffffffff fefeffff     ................
   1a954:	fefdfdfd fffffefe 00ffffff 02020100     ................
   1a964:	04040303 05050504 05050505 07060605     ................
   1a974:	08080707 08080808 09090908 07080909     ................
   1a984:	06060607 06060606 05050506 06050505     ................
   1a994:	07070706 06060607 07060606 09080807     ................
   1a9a4:	09090909 09090909 09090909 07070808     ................
   1a9b4:	06060606 06060606 05050606 04050505     ................
   1a9c4:	02030404 00000102 fdfeffff f9fafbfc     ................
   1a9d4:	f5f6f7f8 f3f4f4f5 f1f1f2f2 f1f1f1f1     ................
   1a9e4:	f3f3f2f2 f3f3f3f3 f3f3f3f3 f5f5f4f3     ................
   1a9f4:	f8f7f7f6 f8f8f8f8 faf9f9f8 fcfcfcfb     ................
   1aa04:	fcfcfcfc fcfbfbfc fdfdfcfc fcfdfdfd     ................
   1aa14:	fbfbfbfc fbfbfbfb fafbfbfb fafafafa     ................
   1aa24:	fcfcfbfb fdfdfcfc fefefdfd ffffffff     ................
   1aa34:	ffffffff 0000ffff 01010101 00000101     ................
   1aa44:	01000000 00000000 ffffffff fefefefe     ................
   1aa54:	fefefefe fefefefe fffffefe 02020100     ................
   1aa64:	03030302 03030303 05050404 06060505     ................
   1aa74:	07060606 08080807 08080808 07070707     ................
   1aa84:	06060707 05050506 06050505 06060606     ................
   1aa94:	05050505 06060505 06060606 07060606     ................
   1aaa4:	09080807 09090909 08080809 07070707     ................
   1aab4:	06060606 05050506 05050505 04050505     ................
   1aac4:	03030304 01010202 feff0000 fbfbfcfd     ................
   1aad4:	f8f9f9fa f4f5f6f7 f2f2f3f3 f3f3f3f2     ................
   1aae4:	f3f4f4f3 f3f3f3f3 f4f4f3f3 f6f6f5f5     ................
   1aaf4:	f7f6f6f6 f9f8f7f7 fbfbfaf9 fbfbfbfb     ................
   1ab04:	fcfbfbfb fdfdfdfc fcfcfdfd fdfcfcfc     ................
   1ab14:	fdfdfdfd fbfbfcfc fbfbfbfb fbfbfbfb     ................
   1ab24:	fbfbfbfb fefdfcfc fefefefe fefefefe     ................
   1ab34:	00fffffe 00000000 00000000 01010101     ................
   1ab44:	01010101 00000000 0000ff00 ffffffff     ................
   1ab54:	fefefeff fefefefe 0000ffff 01010100     ................
   1ab64:	02020101 03030303 04040404 06050504     ................
   1ab74:	06060606 07070606 08080807 06070708     ................
   1ab84:	05050606 06060505 06060606 05050505     ................
   1ab94:	05050505 05050505 05050505 07060605     ................
   1aba4:	08080707 08080808 08080808 06070707     ................
   1abb4:	06060606 06060606 05050505 05050505     ................
   1abc4:	03040404 01020203 ff000001 fdfefeff     ................
   1abd4:	f8fafbfc f6f6f6f7 f5f5f5f5 f4f4f5f5     ................
   1abe4:	f3f3f3f4 f4f4f3f3 f5f5f5f5 f5f5f5f5     ................
   1abf4:	f7f7f6f6 faf9f9f8 f9f9f9fa fbfbfafa     ................
   1ac04:	fdfdfcfc fcfcfcfc fdfdfcfc fdfdfefd     ................
   1ac14:	fcfcfcfd fcfcfcfc fbfbfbfc fbfafafa     ................
   1ac24:	fcfcfcfb fdfcfdfd fdfdfdfd fefefefe     ................
   1ac34:	ffffffff 00ffffff 01000000 01010101     ................
	...
   1ac50:	fefeffff fefefefe fefefefe fffffefe     ................
   1ac60:	000000ff 01010101 02020101 04040303     ................
   1ac70:	04040404 05050404 07070606 06060707     ................
   1ac80:	06060606 05060606 05050505 05050505     ................
   1ac90:	05050505 04040505 04040404 04040404     ................
   1aca0:	05050505 07070606 08080808 07070707     ................
   1acb0:	06060606 06060606 05050505 05050505     ................
   1acc0:	04050505 03030304 02020202 01010202     ................
   1acd0:	fdfeff00 fafafbfc f8f8f9f9 f6f7f7f8     ................
   1ace0:	f4f4f5f5 f5f5f4f4 f5f5f5f5 f4f4f4f5     ................
   1acf0:	f7f6f5f5 f8f8f8f7 f9f8f8f8 fafaf9f9     ................
   1ad00:	fbfbfbfb fcfbfbfb fdfdfdfc fdfdfdfd     ................
   1ad10:	fefefdfd fefefefe fbfcfcfd fcfbfbfb     ................
   1ad20:	fcfcfcfc fcfcfcfc fdfcfcfc fefefdfd     ................
   1ad30:	fefefefe fffefefe 0000ffff 00000000     ................
   1ad40:	00000000 01010000 00010101 ff000000     ................
   1ad50:	ffffffff fefeffff fffefefe ffffffff     ................
   1ad60:	ffffffff 01000000 02020201 02020202     ................
   1ad70:	04040303 05050504 06050505 06060606     ................
   1ad80:	05060606 05050505 05050505 05050505     ................
   1ad90:	04050505 04040404 03030404 03030303     ................
   1ada0:	05040404 07060606 06060707 07060606     ................
   1adb0:	06060606 05050505 05050505 05050505     ................
   1adc0:	03040404 03030303 03030303 01010203     ................
   1add0:	fefeff00 fcfdfdfd f9fafbfc f6f7f7f8     ................
   1ade0:	f6f6f6f6 f5f6f6f6 f5f5f5f5 f6f6f6f5     ................
   1adf0:	f6f6f6f6 f8f8f7f7 f9f9f9f9 faf9f9f9     ................
   1ae00:	fcfbfbfa fcfcfcfc fcfcfcfc fefdfdfc     ................
   1ae10:	fefefefe fdfdfdfe fcfdfdfc fcfcfcfc     ................
   1ae20:	fcfcfcfc fcfcfcfc fdfdfdfd fdfdfdfd     ................
   1ae30:	fefdfdfd fffffefe ffffffff 000000ff     ................
   1ae40:	00000000 01010101 00010101 00000000     ................
   1ae50:	ffffffff ffffffff ffffffff fffefefe     ................
   1ae60:	0000ffff 00000000 01010000 03020201     ................
   1ae70:	03030303 04040403 05050504 05050505     ................
   1ae80:	04050505 05040404 05050505 05050505     ................
   1ae90:	04050405 03040404 03030303 04030303     ................
   1aea0:	04040404 05050504 06060606 06060606     ................
   1aeb0:	05050505 05050505 05050505 04040405     ................
   1aec0:	03030303 04040404 02030303 01010102     ................
   1aed0:	00000101 fdfefeff fafbfbfc f9f9fafa     ................
   1aee0:	f7f7f8f8 f7f7f7f7 f6f6f7f7 f6f6f6f6     ................
   1aef0:	f8f7f7f6 f8f8f8f8 f9f9f9f8 fbfbfaf9     ................
   1af00:	fbfbfbfb fcfbfbfb fdfdfcfc fefefefd     ................
   1af10:	fefefefe fefefefe fdfdfdfe fcfcfcfd     ................
   1af20:	fdfcfcfc fdfdfdfd fdfdfdfd fdfdfdfd     ................
   1af30:	fefefefd fffefefe ffffffff 000000ff     ................
   1af40:	00000000 01010101 00000001 00000000     ................
   1af50:	00000000 ffffff00 fefefeff ffffffff     ................
   1af60:	ffffffff 00ffffff 01010000 02020101     ................
   1af70:	02020202 04030303 05040404 04040404     ................
   1af80:	04040404 04040404 04040404 05050505     ................
   1af90:	04040405 03030303 03030303 03030303     ................
   1afa0:	03030303 05050404 05050505 04050505     ................
   1afb0:	05050504 05050505 04040405 04040304     ................
   1afc0:	04040404 02030304 02020202 02020202     ................
   1afd0:	00000001 fefeffff fcfcfdfe fafafbfb     ................
   1afe0:	f9f9f9f9 f7f8f8f8 f7f7f7f7 f8f8f7f7     ................
   1aff0:	f7f7f8f8 f9f8f8f8 fafafaf9 fafafafa     ................
   1b000:	fbfbfbfa fcfcfcfb fdfdfcfc fefdfdfd     ................
   1b010:	fefefefe fefefefe fdfdfdfd fdfdfdfd     ................
   1b020:	fdfdfdfd fdfdfdfd fdfdfdfd fdfdfdfd     ................
   1b030:	fefefefd fefefefe fffffefe 00ffffff     ................
	...
   1b050:	ff000000 ffffffff ffffffff ffffffff     ................
   1b060:	ffffffff 00ffffff 00000000 01000000     ................
   1b070:	02020201 03030303 04030303 04040404     ................
   1b080:	03030404 04030303 04040404 04040404     ................
   1b090:	03030404 03030303 02020203 02020202     ................
   1b0a0:	03030302 04040404 04040404 04040404     ................
   1b0b0:	04050504 04040404 04040404 03040404     ................
   1b0c0:	03030303 03030303 02020303 01010202     ................
   1b0d0:	01010101 feffff00 fdfdfdfe fbfcfdfd     ................
   1b0e0:	f9f9fafb f9f9f9f9 f8f9f9f9 f8f8f8f8     ................
   1b0f0:	f9f8f8f8 fafaf9f9 fafafafa fbfbfafa     ................
   1b100:	fbfbfbfb fcfcfcfc fdfdfcfc fefefdfd     ................
   1b110:	fefefefe fefefefe fdfdfefe fefdfdfd     ................
   1b120:	fdfdfdfd fdfdfdfd fdfdfdfd fefefdfd     ................
   1b130:	fefefefe fefefefe fffffefe 000000ff     ................
	...
   1b158:	ffffff00 ffffffff ffffffff ffffffff     ................
   1b168:	0000ffff 01010000 01010101 03020202     ................
   1b178:	03030303 03030303 03030303 03030303     ................
   1b188:	04030303 04040404 03030404 02020303     ................
   1b198:	02020202 02020202 03030303 03030303     ................
   1b1a8:	04040303 04040404 03030303 04040404     ................
   1b1b8:	03040404 03030303 03030303 02020203     ................
   1b1c8:	02020202 02020202 00000101 00000000     ................
   1b1d8:	feffffff fcfcfdfd fbfbfbfc fafafbfb     ................
   1b1e8:	f9f9f9fa f9f9f9f9 f9f9f9f9 fafafafa     ................
   1b1f8:	fbfbfafa fbfbfbfb fcfcfbfb fcfcfcfc     ................
   1b208:	fdfdfdfd fefefefd fefefefe fefefefe     ................
   1b218:	fefefefe fefefefe fdfefefe fdfdfdfd     ................
   1b228:	fefefdfd fefefefe fefefdfd fefefefe     ................
   1b238:	ffffffff ffffffff 0000ffff 00000000     ................
	...
   1b254:	ffff0000 ffffffff ffffffff ffffffff     ................
   1b264:	ffffffff 0000ffff 00000000 01010100     ................
   1b274:	02020202 02020202 02020202 02020202     ................
   1b284:	03020202 03030303 03030303 02030303     ................
   1b294:	02020202 02020202 02020202 02020202     ................
   1b2a4:	03030202 02030303 03030303 03030303     ................
   1b2b4:	03030303 03030303 03030303 02020202     ................
   1b2c4:	02020202 02020202 01010101 01010101     ................
   1b2d4:	00000101 feffffff fdfefefe fcfcfdfd     ................
   1b2e4:	fbfbfbfc fafafafb fafafafa fafafafa     ................
   1b2f4:	fbfbfafa fbfbfbfb fbfbfbfb fcfcfcfc     ................
   1b304:	fdfcfcfc fefdfdfd fefefefe fefefefe     ................
   1b314:	fefefefe fefffffe fefefefe fefefefe     ................
   1b324:	fefefefe fefefefe fefdfefe fefefefe     ................
   1b334:	fefefefe fffefefe 00ffffff 00000000     ................
   1b344:	ffff0000 00000000 00000000 00000000     ................
   1b354:	00000000 ffff0000 ffffffff ffffffff     ................
   1b364:	ffffffff ffffffff 000000ff 01010100     ................
   1b374:	01010101 02020101 02020202 02020202     ................
   1b384:	02020202 03030303 02030303 02020202     ................
   1b394:	02020202 01010102 02010101 02020202     ................
   1b3a4:	02020202 02020202 02020202 02020202     ................
   1b3b4:	03030303 02030303 02020202 02020202     ................
   1b3c4:	01020202 01010101 01010101 01010101     ................
   1b3d4:	00000001 ffff0000 fefeffff fdfdfdfe     ................
   1b3e4:	fcfcfcfd fbfbfbfc fbfbfbfb fbfbfbfb     ................
   1b3f4:	fcfbfbfb fcfcfcfc fcfcfcfc fcfcfcfc     ................
   1b404:	fdfdfdfc fefefefd fefefefe fefefefe     ................
   1b414:	ffffffff fefeffff fefefefe fffffefe     ................
   1b424:	fefefeff fefefefe fefefefe fefefefe     ................
   1b434:	fefefefe fffffffe ffffffff ffffffff     ................
   1b444:	000000ff 00000000 00000000 00000000     ................
   1b454:	00000000 ffffffff ffffffff ffffffff     ................
   1b464:	ffffffff ffffffff 0000ffff 00000000     ................
   1b474:	01010100 01010101 01010101 02010101     ................
   1b484:	02020202 02020202 02020202 02020202     ................
   1b494:	01010101 01010101 01010101 01010101     ................
   1b4a4:	02020201 01010101 02010101 02020202     ................
   1b4b4:	02020202 02020202 02020202 01010202     ................
   1b4c4:	01010101 01010101 01010101 01010101     ................
   1b4d4:	00000101 ff000000 ffffffff fefefefe     ................
   1b4e4:	fdfdfdfd fcfcfcfd fcfcfcfc fcfcfcfc     ................
   1b4f4:	fcfcfcfc fcfcfcfc fcfcfcfc fdfdfdfc     ................
   1b504:	fefdfdfd fefefefe fefefefe fffffffe     ................
   1b514:	ffffffff fffefefe ffffffff ffffffff     ................
   1b524:	fefefefe fffefefe fefefefe fefefefe     ................
   1b534:	fffffffe ffffffff ffffffff ffffffff     ................
   1b544:	ffffffff 0000ffff 00000000 00000000     ................
	...
   1b55c:	ffffffff ffffffff ffffffff ffffffff     ................
   1b56c:	00ffffff 00000000 00000000 00000000     ................
   1b57c:	01010101 01010101 01010101 02020101     ................
   1b58c:	01010101 01010101 01010101 01010101     ................
   1b59c:	01010101 01010101 01010101 01010101     ................
   1b5ac:	01010101 01010101 02010101 02020202     ................
   1b5bc:	01010101 01010101 01010101 01010101     ................
   1b5cc:	01010101 00010101 00000000 00000000     ................
   1b5dc:	ffffff00 feffffff fefefefe fdfdfdfe     ................
   1b5ec:	fdfdfdfd fdfdfdfd fdfdfdfd fdfdfdfd     ................
   1b5fc:	fdfdfdfd fefefdfd fefefefe fefefefe     ................
   1b60c:	fffffefe ffffffff ffffffff ffffffff     ................
   1b61c:	ffffffff ffffffff ffffffff ffffffff     ................
   1b62c:	ffffffff ffffffff ffffffff ffffffff     ................
   1b63c:	ffffffff ffffffff 00ffffff 00000000     ................
	...
   1b658:	ff000000 ff00ffff ffffffff ffffffff     ................
   1b668:	ffffffff 000000ff 00000000 00000000     ................
	...
   1b680:	01010000 01010101 01010101 01010101     ................
   1b690:	01010101 00000101 01010100 00010101     ................
	...
   1b6b0:	01010100 01010101 01010101 01010101     ................
   1b6c0:	01010101 00000001 00000000 00000000     ................
	...
   1b6dc:	ffff0000 ffffffff fefeffff fefefefe     ................
   1b6ec:	fefefefe fefefefe fefefefe fefefefe     ................
   1b6fc:	fefefefe fefefefe fefefefe ffffffff     ................
   1b70c:	ffffffff ffffffff ffffffff ffffffff     ................
   1b71c:	ffffffff ffffffff ffffffff ffffffff     ................
   1b72c:	ffffffff ffffffff ffffffff ffffffff     ................
   1b73c:	ffffffff ffffffff ffffffff 00ffffff     ................
	...
   1b75c:	ff000000 ffffffff ffffffff ffffffff     ................
   1b76c:	ffffffff 00000000 00000000 00000000     ................
	...
   1b7e0:	ffffff00 ffffffff ffffffff ffffffff     ................
   1b7f0:	ffffffff ffffffff 00ffffff              ............

0001b7fc <data_bass>:
   1b7fc:	08070603 07080808 00020305 fafbfcfe     ................
   1b80c:	f7f7f8f9 f9f9f8f8 fffdfcfa 04040201     ................
   1b81c:	06060505 09080707 0a0a0a09 03060709     ................
   1b82c:	feff0001 fbfcfdfd f6f8fafb eff0f2f4     ................
   1b83c:	eeeeeeee ecedeeee e8e9eaeb eae9e8e7     ................
   1b84c:	eeedeceb ebeceded edecebeb f2f0efee     ................
   1b85c:	f1f2f3f3 f4f2f1f1 fefdfbf7 010100ff     ................
   1b86c:	03010000 0c0b0805 0c0a0a0c 0e0f0e0d     ................
   1b87c:	09090a0c 1b15100c 17191c1d 1c1b1917     ................
   1b88c:	1315171a 221b1512 1f262928 0c0c0f16     ......."()&.....
   1b89c:	221d1610 31302a26 1a21272e 16191716     ..."&*01.'!.....
   1b8ac:	15151312 04090f13 f7fbff01 fdf7f4f4     ................
   1b8bc:	110f0a04 070b0e10 0a060505 1d19140f     ................
   1b8cc:	13191c1e fb00060c f5f5f5f7 f0f3f4f5     ................
   1b8dc:	e2e6eaed dfdedfe0 e6e5e3e1 e5e6e7e7     ................
   1b8ec:	dfe0e2e4 dcdcdcdd d9dadbdb d1d3d5d7     ................
   1b8fc:	c9cbcdcf c3c5c7c8 bbbdc0c2 b3b5b7b9     ................
   1b90c:	acadafb1 a8a9aaab a6a7a7a7 a9a8a7a7     ................
   1b91c:	afadacab b6b3b2b0 c0bdbab8 cdcac6c3     ................
   1b92c:	d9d6d3d0 e4e1dedb f4efebe8 03fffcf8     ................
   1b93c:	0e0b0806 14131210 1e1b1816 2a272421     ............!$'*
   1b94c:	312f2e2c 39383633 3c3a3a3a 42403f3d     ,./13689:::<=?@B
   1b95c:	4d4b4845 4a4b4d4d 4b484849 53514f4d     EHKMMMKJIHHKMOQS
   1b96c:	54545454 50505052 4d4d4e4f 4e4f4e4d     TTTTRPPPONMMMNON
   1b97c:	46474a4c 4c4b4846 383f4549 38343334     LJGFFHKLIE?84348
   1b98c:	4041403c 2f34393d 1b20252a 1e1a1818     <@A@=94/*% .....
   1b99c:	26282622 07101921 fefdfd01 0a090602     "&(&!...........
   1b9ac:	f2fc0409 cbd2dce7 ccc8c6c7 dbd9d6d1     ................
   1b9bc:	d3d6d9db d4d1d0d1 e9e4ded9 eef0efed     ................
   1b9cc:	e1e4e8eb dddcddde e1e0dfde e1e2e2e2     ................
   1b9dc:	e2e1e1e1 ebe8e5e3 f1f0efed ebedeff0     ................
   1b9ec:	e3e4e6e9 dbdddfe1 d2d5d7d9 c4c8cbcf     ................
   1b9fc:	b5b9bdc0 a9acafb2 9c9fa3a6 90929699     ................
   1ba0c:	85888a8d 80818283 80808080 81808080     ................
   1ba1c:	84828281 8b898785 9693918e a19e9c99     ................
   1ba2c:	adaaa7a4 bcb7b3b0 ccc8c4c0 dad7d4d0     ................
   1ba3c:	e4e0dddb f0edeae7 fefaf7f3 0a070401     ................
   1ba4c:	13110f0d 19181715 24201c1a 2f2f2d29     .......... $)-//
   1ba5c:	312f2f2f 36363432 3a373636 4645423e     ///12466667:>BEF
   1ba6c:	41424445 45444241 41424445 4e494542     EDBAABDEEDBABEIN
   1ba7c:	51535452 4345494d 46444342 514f4c49     RTSQMIECBCDFILOQ
   1ba8c:	4b505252 3b3c4046 4c46403c 54555451     RRPKF@<;<@FLQTUT
   1ba9c:	40454b50 3f3c3b3c 4f4c4843 3f464c4f     PKE@<;<?CHLOOLF?
   1baac:	1d242c35 19171719 1d1d1c1a 1316191c     5,$.............
   1babc:	0e0d0e10 1b171410 2121201e 181b1d20     ......... !! ...
   1bacc:	10111315 100f0f0f 11111010 13111111     ................
   1badc:	1b191614 2322201e 23232424 1d1f2022     ..... "#$$##" ..
   1baec:	1517191b 0b0e1013 fe020508 eef2f6fa     ................
   1bafc:	dde1e6ea cdd1d5d9 bcc0c4c9 abafb3b8     ................
   1bb0c:	9fa1a4a7 96989a9c 92949595 8f8f9091     ................
   1bb1c:	8f8e8e8e 95949290 9c9a9896 a1a09f9d     ................
   1bb2c:	aba8a5a3 b8b5b2ae c1bfbdbb cac8c6c4     ................
   1bb3c:	d4d1cecc dedcd9d7 eae7e3e0 f2f2f1ee     ................
   1bb4c:	f7f4f2f1 0402fffb 0a080606 1414110e     ................
   1bb5c:	13121314 211d1915 24242524 2c2a2725     .......!$%$$%'*,
   1bb6c:	292c2e2e 29272627 3a37322e 3d3e3e3d     ..,)'&').27:=>>=
   1bb7c:	3436383b 36333232 4744403b 3e434648     ;8642236;@DGHFC>
   1bb8c:	3333363a 453f3a35 4d4f4e4a 3e42464a     :6335:?EJNOMJFB>
   1bb9c:	3f3b3a3b 504d4944 484d5051 2f343a41     ;:;?DIMPQPMHA:4/
   1bbac:	2c2b2b2c 2f302f2e 25292b2e 21202123     ,++,./0/.+)%#! !
   1bbbc:	2d292623 35343330 31333435 2c2d2e2f     #&)-03455431/.-,
   1bbcc:	2c2c2c2c 2c2c2c2c 2f2d2c2c 3b373431     ,,,,,,,,,,-/147;
   1bbdc:	4744413e 4d4d4b49 4c4d4e4e 494a4b4b     >ADGIKMMNNMLKKJI
   1bbec:	43454748 393c3f41 2b2f3236 1a1e2327     HGECA?<962/+'#..
   1bbfc:	090e1216 f7fb0005 e3e8edf2 d1d5dade     ................
   1bc0c:	c5c7cacd bbbec0c3 b3b4b7b9 adaeafb1     ................
   1bc1c:	aeadadad b2b2b1af b3b2b2b2 b8b7b5b4     ................
   1bc2c:	c2bfbcba cac9c7c4 cfcdcbca d7d6d4d2     ................
   1bc3c:	dcd9d8d8 e9e6e3df ebeaeaea f2f0eeec     ................
   1bc4c:	f4f3f3f3 fffbf8f5 02030302 03020101     ................
   1bc5c:	07070705 09080707 13120f0c 0c0f1113     ................
   1bc6c:	0808080a 100d0b09 1a191714 0f131719     ................
   1bc7c:	0707080b 15110d09 16181918 070a0e12     ................
   1bc8c:	09060405 1614110d 10141617 0607090d     ................
   1bc9c:	0e0b0806 11131211 ff050a0e f1f3f6fa     ................
   1bcac:	f1f0f0f0 edeff0f1 e5e7e9eb e6e5e4e4     ................
   1bcbc:	f0eeebe8 f4f4f4f2 edeff1f2 e6e7e9eb     ................
   1bccc:	e2e2e3e4 e3e2e1e1 e8e6e5e4 f3f0edea     ................
   1bcdc:	fffcf9f6 05040301 08070706 05060707     ................
   1bcec:	03040505 fcfe0001 eff3f6f9 e1e5e9ec     ................
   1bcfc:	d3d6dadd c3c7cbcf b1b5babe a3a6a9ad     ................
   1bd0c:	989a9da0 91939596 8a8b8d8f 89898889     ................
   1bd1c:	8c8b8b8a 91908f8d 94939291 9f9c9996     ................
   1bd2c:	a5a4a2a1 b3b0aca8 bab9b8b6 c3bfbcbb     ................
   1bd3c:	cfcdcac6 d9d6d3d1 e4e3e0dd e6e4e4e4     ................
   1bd4c:	f4f1ede9 fcfbf9f7 050200fe 09090807     ................
   1bd5c:	0e0c0a09 1b181511 201f1e1d 1c1d1e1f     ........... ....
   1bd6c:	1e1d1c1b 2f2b2722 32333432 282a2c2f     ...."'+/2432/,*(
   1bd7c:	302c2928 3e3c3934 393c3e3f 32323436     (),049<>?><96422
   1bd8c:	3e3a3633 46464441 3e404244 403e3d3d     36:>ADFFDB@>==>@
   1bd9c:	4a484543 47494b4b 3a3d4044 35363638     CEHJKKIGD@=:8665
   1bdac:	33343535 2c2e3031 2727282a 2f2c2a28     554310.,*(''(*,/
   1bdbc:	3a383632 3b3b3b3b 33363839 2a2c2e30     268:;;;;98630.,*
   1bdcc:	25252628 25252525 2d2a2826 39353230     (&%%%%%%&(*-0259
   1bddc:	45423f3c 4e4c4a48 5050504f 50505050     <?BEHJLNOPPPPPPP
   1bdec:	4d4e4f50 4447494b 363a3e42 262a2e32     PONMKIGDB>:62.*&
   1bdfc:	151a1e22 02070c10 eff4f9fe dee1e5ea     "...............
   1be0c:	d2d5d8db c8cacccf c0c2c4c6 bebdbdbe     ................
   1be1c:	c0c0c0bf c0bfbfbf c5c4c3c1 c8c6c6c6     ................
   1be2c:	d4d1ceca d9d9d8d7 e1dedcda e6e5e4e3     ................
   1be3c:	f1edeae8 fbfaf8f5 fdfbfbfb 050301ff     ................
   1be4c:	0b090806 14120f0d 19191816 19191919     ................
   1be5c:	1f1d1b1a 28262421 28292a2a 21222326     ....!$&(**)(&#"!
   1be6c:	29252321 3433302d 2c2f3234 27262729     !#%)-03442/,)'&'
   1be7c:	332f2c29 38393836 2e313437 2d2b2b2c     ),/36898741.,++-
   1be8c:	38363330 37393a39 31323335 35333231     03689:9753211235
   1be9c:	38383837 30333537 26282a2d 21222425     78887530-*(&%$"!
   1beac:	1a1d1f20 10121417 100f0f0f 1c181512      ...............
   1bebc:	2422201e 23242525 181b1e20 0c0f1215     . "$%%$# .......
   1becc:	0506080a 05040404 0b090706 15120f0d     ................
   1bedc:	221f1c18 2a282724 2f2e2d2c 30302f2f     ..."$'(*,-.///00
   1beec:	2f303030 26292c2e 1a1d2124 090d1216     000/.,)&$!......
   1befc:	f8fd0105 e3e8eef3 cfd4d9de bdc1c6cb     ................
   1bf0c:	b1b4b7ba a2a6aaae 9d9d9ea0 999b9c9c     ................
   1bf1c:	98979798 9a9a9a99 9b999999 a3a19f9d     ................
   1bf2c:	a9a7a5a4 b2b0aeab b5b4b4b3 bebbb8b6     ................
   1bf3c:	c9c7c4c1 d0cecccb d6d5d4d2 dbd9d8d7     ................
   1bf4c:	e6e3e0dd efeeebe9 f2f2f2f1 f4f3f2f2     ................
   1bf5c:	fdfaf7f5 06050300 01030506 01ffff00     ................
   1bf6c:	0c090603 0f10100f 07090b0e 0b080707     ................
   1bf7c:	1714110e 15171818 0f101113 14110f0f     ................
   1bf8c:	1a1a1816 18191a1b 17161616 1a191918     ................
   1bf9c:	1a1b1b1b 14151719 0d0e1012 080a0b0c     ................
   1bfac:	fd000306 f6f7f8fa fcfaf8f7 0a0603ff     ................
   1bfbc:	1211100d 0f111213 04070a0d f7fafd00     ................
   1bfcc:	f0f1f3f5 efefeff0 f5f3f1f0 01fefbf8     ................
   1bfdc:	0e0b0804 19161411 201e1c1a 24242322     ........... "#$$
   1bfec:	25252525 1f212324 1316191c 04080c0f     %%%%$#!.........
   1bffc:	f2f6fbff dee4e9ee cacfd3d9 bcc0c3c6     ................
   1c00c:	acafb4b8 a4a5a7a9 9c9ea0a2 9a9a9a9b     ................
   1c01c:	9b9b9b9b 9d9c9b9b a2a1a09e a7a4a3a2     ................
   1c02c:	b2afaca9 b7b6b5b3 bebcbab8 c8c6c3c1     ................
   1c03c:	d4d1cecb dcdbd9d6 e1e0dfde eae7e5e3     ................
   1c04c:	f6f3f0ed 00fefcf9 01010100 06040302     ................
   1c05c:	13100d09 19191816 16161718 1b191716     ................
   1c06c:	2523211e 25262727 23232324 2b292624     .!#%''&%$###$&)+
   1c07c:	3332312e 32333334 31303031 37353332     .123433210012357
   1c08c:	3b3b3a39 3b3b3b3b 3c3b3b3b 3e3d3d3c     9:;;;;;;;;;<<==>
   1c09c:	3d3d3e3e 393a3b3c 35363738 2b2e3133     >>==<;:9876531.+
   1c0ac:	21232629 1e1e1e1f 2724211f 35322f2b     )&#!.....!$'+/25
   1c0bc:	3c3c3a38 383a3c3c 2b2e3235 1e212427     8:<<<<:852.+'$!.
   1c0cc:	1617191c 15141415 1a181615 25221f1c     .............."%
   1c0dc:	302e2b28 3c3a3734 4543413f 4b4a4847     (+.047:<?ACEGHJK
   1c0ec:	4b4b4c4c 4547484a 383c3f42 292d3034     LLKKJHGEB?<840-)
   1c0fc:	161b2025 01050a10 eef3f7fc dadfe4e9     % ..............
   1c10c:	cdd0d3d7 c0c3c6ca babbbcbe b5b6b7b8     ................
   1c11c:	b5b4b4b4 b6b6b6b6 b7b7b6b6 bcbbb9b8     ................
   1c12c:	c3c1bfbe c9c8c6c5 cecdcccb d6d3d1cf     ................
   1c13c:	dfdddbd8 e6e5e3e1 eae9e8e7 f1efedeb     ................
   1c14c:	fcf9f7f4 010100fe 01010101 08050302     ................
   1c15c:	110f0d0a 12131312 10101111 15131211     ................
   1c16c:	19191817 18181919 19181818 1f1e1c1a     ................
   1c17c:	22222221 21212122 22212121 25242423     !""""!!!!!!"#$$%
   1c18c:	28282726 28282828 28282828 28282929     &'(((((((((())((
   1c19c:	26262727 23242525 1c1e2022 1114171a     ''&&%%$#" ......
   1c1ac:	06080b0e 06040405 110d0a08 1e1b1714     ................
   1c1bc:	23232220 1d1f2123 0f13171a 0104080c      "###!..........
   1c1cc:	f8fafcfe f5f5f5f6 f9f8f7f6 02fffdfb     ................
   1c1dc:	0e0b0805 1a171411 2623211e 2c2b2928     .........!#&()+,
   1c1ec:	2e2e2e2d 272a2c2d 1e202325 0e13171a     -...-,*'%# .....
   1c1fc:	fc000509 e8edf2f7 d4d8dde2 c2c7cbcf     ................
   1c20c:	b3b6babe a8abadb0 a0a1a4a6 9c9d9d9e     ................
   1c21c:	9d9d9d9d 9d9d9d9d 9e9d9d9d a3a19f9e     ................
   1c22c:	aba9a7a5 b0afaeac b4b3b2b1 bdbab8b6     ................
   1c23c:	c8c5c3c0 cecdccca d3d2d1cf dddad7d5     ................
   1c24c:	e7e5e3e0 eaeae9e8 eeecebeb f7f5f2f0     ................
   1c25c:	fffefcfa ffffff00 0100ffff 06050402     ................
   1c26c:	09090807 09090909 0d0c0a09 1312110f     ................
   1c27c:	15141414 16161515 18171716 1d1c1a19     ................
   1c28c:	1f1e1e1d 20201f1f 21212121 21212121     ......  !!!!!!!!
   1c29c:	21212121 1e1f1f20 181a1c1d 0d101316     !!!! ...........
   1c2ac:	0506080a 07050404 15100d09 23201c19     .............. #
   1c2bc:	29282826 23252728 16191d20 080b0f12     &(()('%# .......
   1c2cc:	fe000205 fafafbfc fefcfbfa 07040200     ................
   1c2dc:	13100d0a 211e1b17 2e2a2724 37363331     .......!$'*.1367
   1c2ec:	38393938 34363738 2b2e3033 1d202427     8998876430.+'$ .
   1c2fc:	0b101419 f7fc0105 e4e9edf2 d1d6dadf     ................
   1c30c:	c4c7cace b8bbbec1 b1b2b4b6 aeaeaeaf     ................
   1c31c:	aeaeadad adadaeae afaeadad b5b3b1b0     ................
   1c32c:	bbbab8b7 bfbebdbd c4c3c1c0 ceccc9c7     ................
   1c33c:	d9d7d4d1 dedddcdb e4e2e0df efece9e7     ................
   1c34c:	f6f5f3f1 f9f8f8f7 fffdfbfa 09070502     ................
   1c35c:	0e0d0c0b 0e0e0e0e 11100f0f 17161413     ................
   1c36c:	18181717 1a191818 1f1e1c1b 23222120     ............ !"#
   1c37c:	25252524 27272626 2b2a2928 2d2c2c2b     $%%%&&''()*++,,-
   1c38c:	2f2f2e2d 30303030 31313131 31313131     -.//000011111111
   1c39c:	2f2f3031 2c2d2e2e 2527292b 191c1f22     10//..-,+)'%"...
   1c3ac:	11121416 15131211 231f1b18 302e2a27     ...........#'*.0
   1c3bc:	35343432 30323334 2226292d 13171b1e     24454320-)&"....
   1c3cc:	07090c10 03030405 04030303 0d0a0806     ................
   1c3dc:	1a171310 2723201d 35322e2b 3d3c3a37     ..... #'+.257:<=
   1c3ec:	4040403f 3c3d3f40 3336383a 25292d30     ?@@@@?=<:8630-)%
   1c3fc:	13171c20 ff04090e eaeff4f9 d8dce1e5      ...............
   1c40c:	cacdd1d5 bdc0c4c7 b4b6b8bb b1b1b2b3     ................
   1c41c:	b0b0b0b0 aeafafaf afafaeae b4b3b2b0     ................
   1c42c:	b9b8b7b5 bcbbbaba c1c0bebd cbc9c6c4     ................
   1c43c:	d3d1d0ce d8d7d5d4 dfdddbd9 e9e6e4e1     ................
   1c44c:	ededecea f1f0efee f9f7f5f3 00fffdfb     ................
   1c45c:	03030202 04030303 08070605 0a0a0a09     ................
   1c46c:	0c0c0b0b 0f0e0d0d 1211100f 16151413     ................
   1c47c:	18171716 1b1b1a19 1c1c1c1b 1f1e1d1d     ................
   1c48c:	2020201f 22212120 23232322 22222223     .    !!""####"""
   1c49c:	1f202021 1c1d1e1e 1417191b 090c0f12     !  .............
   1c4ac:	02030406 07050302 15110d0a 221f1b18     ..............."
   1c4bc:	27272624 21242527 14181c1f 04080c10     $&'''%$!........
   1c4cc:	f8fafd00 f0f2f3f5 f2f1f0f0 fbf9f6f4     ................
   1c4dc:	070401fe 16120f0b 24211d1a 2f2d2a27     ..........!$'*-/
   1c4ec:	32323130 31313232 282b2d2f 1b1f2225     01222211/-+(%"..
   1c4fc:	0a0f1317 f7fc0106 e4e8edf2 d3d7dbdf     ................
   1c50c:	c4c8cbcf b7babdc0 afb0b2b4 acacadae     ................
   1c51c:	aaababab a9a9a9aa aaaaa9a9 afaeacab     ................
   1c52c:	b3b2b1b0 b6b5b4b3 bdbbb9b7 c6c4c2bf     ................
   1c53c:	cdcccac9 d2d1cfce dcd9d7d4 e4e3e1de     ................
   1c54c:	eae8e7e6 efedeceb f8f5f3f1 fefdfbfa     ................
   1c55c:	0100fffe 04030201 08070605 0b0a0909     ................
   1c56c:	0d0c0c0b 100f0e0d 14131211 18171615     ................
   1c57c:	1c1b1a19 1f1e1d1d 2120201f 23222221     .........  !!""#
   1c58c:	25242423 27272625 28282827 27272828     #$$%%&'''(((((''
   1c59c:	25262627 21232324 1a1c1e1f 11131618     '&&%$##!........
   1c5ac:	0d0d0e0f 14110f0e 221e1b17 2f2d2a26     ..........."&*-/
   1c5bc:	33333331 2d2f3133 1e222629 0e12161a     133331/-)&".....
   1c5cc:	0104070b fdfdfeff fffefdfd 08050301     ................
   1c5dc:	15120e0b 24201c19 312e2b28 3b393734     ...... $(+.1479;
   1c5ec:	3f3e3d3c 3c3d3e3f 3336383a 26292d30     <=>??>=<:8630-)&
   1c5fc:	151a1e22 03070c11 f0f5f9fe dfe3e7ec     "...............
   1c60c:	d0d4d7db c5c7cacd bdbfc0c2 b8b9babc     ................
   1c61c:	b6b6b7b7 b5b5b5b5 b6b6b6b5 b8b7b7b6     ................
   1c62c:	bcbab9b9 c1bfbebd c7c5c4c2 cecccbc9     ................
   1c63c:	d5d3d2d0 dddbd9d7 e5e3e1df eceae9e7     ................
   1c64c:	f2f0efed f8f6f5f3 fefcfbfa 030200ff     ................
   1c65c:	07060504 0a0a0908 0d0c0c0b 0e0e0e0d     ................
   1c66c:	11100f0f 14131212 17161615 1c1b1a19     ................
   1c67c:	1f1e1d1d 2121201f 23232222 25242423     ..... !!""###$$%
   1c68c:	27262625 28282727 29292928 27282929     %&&'''((()))))('
   1c69c:	24242526 20212223 191b1d1f 10121517     &%$$#"! ........
   1c6ac:	0d0d0d0f 14110f0e 211e1a17 2e2b2825     ...........!%(+.
   1c6bc:	31313130 282b2e30 181d2125 070b0f14     01110.+(%!......
   1c6cc:	fbfe0004 f7f7f8f9 faf9f8f7 0300fefc     ................
   1c6dc:	100c0906 1f1b1714 2b282522 3433302e     ........"%(+.034
   1c6ec:	38383736 34363738 2b2e3033 1e222529     6788876430.+)%".
   1c6fc:	0e12161a fc000509 e9eef2f7 d8dce0e4     ................
   1c70c:	c8ccd0d3 bdc0c2c5 b6b7b9bb afb1b2b4     ................
   1c71c:	abacadae abababab acacacac acacacac     ................
   1c72c:	aeadadac b6b4b2b0 bcbbb9b7 c1c0bfbd     ................
   1c73c:	cac7c5c3 d4d2cfcc dcdad8d7 e1e0dedd     ................
   1c74c:	e9e7e5e3 f0efedeb f5f4f3f2 faf9f7f6     ................
   1c75c:	fffefdfb 04030201 05050404 06060505     ................
   1c76c:	09080707 0c0b0a09 0f0e0e0d 14121110     ................
   1c77c:	17161615 1a191818 1c1b1b1a 1e1d1d1c     ................
   1c78c:	21201f1e 22212121 23232322 22232323     .. !!!!""######"
   1c79c:	1f1f2021 1c1d1d1e 1618191b 0e101214     ! ..............
   1c7ac:	0a0a0b0c 0f0d0b0a 1c191512 2a272420     ............ $'*
   1c7bc:	2f2f2e2d 272a2c2e 171b2023 060a0e13     -.//.,*'# ......
   1c7cc:	fafdff02 f5f6f7f8 f9f7f6f6 02fffdfa     ................
   1c7dc:	0f0b0805 1d1a1612 2a272421 34322f2d     ........!$'*-/24
   1c7ec:	38373635 36373838 2e303234 2125282b     56788876420.+(%!
   1c7fc:	12161a1e 0005090d eef3f7fc dde1e5ea     ................
   1c80c:	ced2d5d9 c3c5c8cb bbbdbfc1 b4b6b7b9     ................
   1c81c:	afb0b1b3 aeaeaeae b0b0b0af afafb0b0     ................
   1c82c:	b0afafaf b7b5b3b2 bfbdbcba c4c3c2c0     ................
   1c83c:	ccc9c7c5 d8d5d2cf e1dfdddb e6e5e4e2     ................
   1c84c:	eeebeae8 f6f4f2f0 fcfbfaf8 01fffefd     ................
   1c85c:	06050402 0b0a0908 0d0d0d0c 0e0e0e0d     ................
   1c86c:	11100f0f 13121211 17161514 1b1a1918     ................
   1c87c:	1f1e1d1c 21212020 24242322 26252524     ....  !!"#$$$%%&
   1c88c:	29282726 2a2a2a29 2c2b2a2a 2b2c2c2c     &'())*****+,,,,+
   1c89c:	28292a2a 25262627 20222324 191b1d1f     **)('&&%$#" ....
   1c8ac:	12131417 13121111 1e1b1816 2c292522     ............"%),
   1c8bc:	3433322f 2f323334 2125292c 1014191d     /234432/,)%!....
   1c8cc:	0205080c fbfcfe00 fcfbfafa 0301fffd     ................
   1c8dc:	0f0c0806 1c191612 29262320 33312f2c     ........ #&),/13
   1c8ec:	39383735 393a3a3a 32343638 272a2d30     5789:::986420-*'
   1c8fc:	181c2023 070b0f14 f5f9fe02 e3e7ecf0     # ..............
   1c90c:	d3d7dbdf c6c9cccf bdbfc1c3 b6b7b9bb     ................
   1c91c:	afb1b2b4 adadadae aeaeadad aeaeafaf     ................
   1c92c:	adadadae b3b1afae bbb9b7b5 c0bfbebc     ................
   1c93c:	c6c4c2c1 d1cecbc8 dcd9d7d4 e1e0dfdd     ................
   1c94c:	e8e6e4e3 f0eeecea f7f6f4f2 fbfaf9f8     ................
   1c95c:	0100fefd 06050402 09090807 0a0a0a0a     ................
   1c96c:	0c0b0b0a 0e0e0d0c 1211100f 15141312     ................
   1c97c:	19181716 1c1c1b1a 1f1e1e1d 21212020     ............  !!
   1c98c:	23222221 25252524 27262626 27272727     !""#$%%%&&&'''''
   1c99c:	25262627 22222324 1e1f2021 17191b1d     '&&%$#""! ......
   1c9ac:	0f111315 0d0d0d0e 1613100f 231f1c19     ...............#
   1c9bc:	2e2c2926 2e2f302f 2326292c 12161a1f     &),./0/.,)&#....
   1c9cc:	0206090e f9fafdff f7f6f7f7 fcfaf9f8     ................
   1c9dc:	060301fe 13100d09 211e1a17 2c2a2724     ...........!$'*,
   1c9ec:	3332302e 36363535 31333435 272a2d2f     .02355665431/-*'
   1c9fc:	1a1e2124 0a0e1216 f8fd0106 e7ebeff4     $!..............
   1ca0c:	d6dadee2 c8cbcfd2 bec0c3c5 b7b9babc     ................
   1ca1c:	b0b2b3b5 acadaeaf adacacac aeaeaead     ................
   1ca2c:	adadadae afaeadad b7b5b3b1 bebdbbb9     ................
   1ca3c:	c3c1c0bf ccc9c7c5 d8d6d3cf dfdedcdb     ................
   1ca4c:	e5e3e2e1 edebe9e7 f5f3f1ef faf9f8f7     ................
   1ca5c:	fffefcfb 05030200 09080706 0a0a0a09     ................
   1ca6c:	0b0b0a0a 0e0d0d0c 11100f0f 15141312     ................
   1ca7c:	19181615 1d1c1b1a 1f1e1e1d 21212020     ............  !!
   1ca8c:	23232222 26262524 27272727 29282828     ""##$%&&''''((()
   1ca9c:	28282929 24252627 21222324 1c1e1f20     ))(('&%$$#"! ...
   1caac:	1416181a 0f101112 1412100f 201d1a17     ............... 
   1cabc:	2d2a2724 3232312f 2a2d2f31 1b1f2327     $'*-/1221/-*'#..
   1cacc:	0a0e1216 fe010307 fafafbfc fdfbfafa     ................
   1cadc:	050200fe 110e0b08 1f1b1815 2b282522     ............"%(+
   1caec:	3432302d 38373635 36373838 2e303234     -02456788876420.
   1cafc:	2225282b 12161a1e 01060a0e f0f4f9fd     +(%"............
   1cb0c:	dfe3e7eb d0d3d7db c4c7cacd bcbec0c2     ................
   1cb1c:	b5b7b9bb b0b1b2b4 afafafaf b1b1b0b0     ................
   1cb2c:	b0b0b1b1 b0b0afaf b7b5b3b1 bebdbbb9     ................
   1cb3c:	c3c2c1c0 cac8c6c4 d6d3d0cd dfdddbd9     ................
   1cb4c:	e5e3e2e1 ebe9e8e6 f4f2f0ed faf9f7f6     ................
   1cb5c:	fefdfcfb 040201ff 08070605 0b0a0a09     ................
   1cb6c:	0b0b0b0b 0d0d0c0c 100f0f0e 14131211     ................
   1cb7c:	17161514 1b1a1918 1e1d1d1c 21201f1f     .............. !
   1cb8c:	22222121 25242323 27262626 28272727     !!""##$%&&&''''(
   1cb9c:	28282828 25262727 22232324 1e1f2021     ((((''&%$##"! ..
   1cbac:	16181a1c 0f101214 100f0e0e 1a171412     ................
   1cbbc:	2824211d 302f2d2b 2d2f3031 1f23272a     .!$(+-/010/-*'#.
   1cbcc:	0e13171b 0103070a f9fafcfe f9f8f8f8     ................
   1cbdc:	00fefcfa 0b080502 1915120e 25221f1c     .............."%
   1cbec:	302d2b28 35343331 36363636 30323335     (+-0134566665320
   1cbfc:	25282b2d 171b1e22 060a0e13 f5f9fe02     -+(%"...........
   1cc0c:	e3e8ecf0 d3d7dbdf c7c9cdd0 bec0c2c4     ................
   1cc1c:	b7b8babc b1b2b3b5 aeaeafaf afafaeae     ................
   1cc2c:	afafb0b0 aeaeaeaf b3b1b0af bbb9b7b5     ................
   1cc3c:	c0bfbebd c6c4c3c2 d1cecbc8 dcd9d7d4     ................
   1cc4c:	e2e0dfdd e8e6e4e3 f0eeebe9 f7f6f4f2     ................
   1cc5c:	fbfaf9f8 01fffefd 06050402 09090807     ................
   1cc6c:	0a0a0a0a 0c0b0b0a 0e0e0d0d 1211100f     ................
   1cc7c:	15141313 19181716 1d1c1b1a 1f1e1e1d     ................
   1cc8c:	21212020 24232222 26262524 27272626       !!""#$$%&&&&''
   1cc9c:	28282827 26272728 23232425 1f212122     '((((''&%$##"!!.
   1ccac:	191b1c1e 11131517 0e0e0e10 1613110f     ................
   1ccbc:	231f1c19 2f2c2a26 30313130 25282b2e     ...#&*,/0110.+(%
   1cccc:	14191d21 05080c10 fbfdff02 f8f8f9f9     !...............
   1ccdc:	fdfcfaf9 070402ff 14110d0a 211e1b17     ...............!
   1ccec:	2d2a2724 3433312f 36363635 33343536     $'*-/13456666543
   1ccfc:	292c2e31 1c202326 0c101518 fb000408     1.,)&# .........
   1cd0c:	eaeef3f7 d9dde1e6 cbcfd2d6 c1c3c6c8     ................
   1cd1c:	babcbdbf b3b5b7b8 afb0b1b2 afafafaf     ................
   1cd2c:	b1b1b0b0 afafb0b0 b1b0b0af b9b7b5b3     ................
   1cd3c:	c0bebdbb c4c3c2c1 cdcac8c6 d9d6d3d0     ................
   1cd4c:	e0dfdddb e6e4e3e2 edebe9e7 f5f4f1ef     ................
   1cd5c:	faf9f8f7 fffefcfb 05030201 09080706     ................
   1cd6c:	0a0a0a0a 0c0b0b0b 0e0d0d0c 11100f0f     ................
   1cd7c:	14141312 18171615 1c1b1a19 1f1e1d1d     ................
   1cd8c:	2120201f 23222221 26252424 27262626     .  !!""#$$%&&&&'
   1cd9c:	28282727 27282829 24242526 21222323     ''(()(('&%$$##"!
   1cdac:	1c1e1f20 1416191a 0f0f1112 13110f0f      ...............
   1cdbc:	1e1b1815 2b282522 3131302e 2a2d2f30     ...."%(+.0110/-*
   1cdcc:	1b1f2327 0b0e1317 ff010407 f9fafbfc     '#..............
   1cddc:	fbfaf9f9 0301fffd 0f0c0906 1d191612     ................
   1cdec:	29262320 32302e2b 36353533 35363636      #&)+.0235566665
   1cdfc:	2d2f3133 2125282a 12161a1e 02060a0e     31/-*(%!........
   1ce0c:	f0f5f9fe e0e4e8ec d1d4d8dc c5c7cacd     ................
   1ce1c:	bdbfc1c3 b6b8b9bb b0b1b3b4 afafafb0     ................
   1ce2c:	b1b0b0af b0b0b1b1 b0b0afb0 b6b4b3b1     ................
   1ce3c:	bebcbab8 c3c2c0bf cac7c5c4 d5d2cfcc     ................
   1ce4c:	dedcdad8 e4e2e1e0 eae8e7e5 f3f0eeec     ................
   1ce5c:	f9f8f6f4 fdfcfbfa 020100fe 07060504     ................
   1ce6c:	0a090908 0b0a0a0a 0d0c0c0b 0f0f0e0d     ................
   1ce7c:	13121110 16151414 1a191817 1d1c1c1b     ................
   1ce8c:	201f1e1e 21212120 24232322 26262525     ...  !!!"##$%%&&
   1ce9c:	27272626 27282827 24252627 22222324     &&'''((''&%$$#""
   1ceac:	1e1f2021 17191b1c 0f111315 100f0e0e     ! ..............
   1cebc:	19161411 2623201c 2f2e2c29 2d2f3030     ..... #&),./00/-
   1cecc:	2024272a 1014181c 0205080c fafbfdff     *'$ ............
   1cedc:	faf9f9f9 00fefcfb 0a070502 1714110e     ................
   1ceec:	24211e1b 2e2c2a27 34333230 35363635     ..!$'*,.02345665
   1cefc:	30323334 25282b2d 181b1f22 080c1014     4320-+(%".......
   1cf0c:	f7fbff04 e6eaeef2 d6dadee2 c9cccfd3     ................
   1cf1c:	c0c2c4c7 b9bbbdbe b3b5b6b8 b0b0b1b2     ................
   1cf2c:	b1b1b0b0 b1b2b2b2 b1b0b1b1 b5b3b2b1     ................
   1cf3c:	bcbab8b6 c2c1c0be c7c5c4c3 d1ceccc9     ................
   1cf4c:	dcdad7d4 e2e1e0de e8e6e5e4 f0eeecea     ................
   1cf5c:	f7f6f4f2 fbfaf9f8 01fffefd 06050302     ................
   1cf6c:	09090807 0a0a0a0a 0c0b0b0b 0e0e0d0c     ................
   1cf7c:	1111100f 15141312 19181716 1c1b1b1a     ................
   1cf8c:	1f1e1d1d 2120201f 23222221 25252423     .....  !!""##$%%
   1cf9c:	26262625 27272726 25262727 22232424     %&&&&'''''&%$$#"
   1cfac:	1f202122 191b1d1e 12131517 0e0e0f10     "! .............
   1cfbc:	1512100f 211e1b18 2d2a2724 2e2f2f2e     .......!$'*-.//.
   1cfcc:	25282b2d 151a1e21 06090d11 fcfe0003     -+(%!...........
   1cfdc:	f9f9f9fa fdfbfaf9 060301ff 120f0c09     ................
   1cfec:	1f1c1915 2a272522 32302e2c 35343433     ...."%'*,.023445
   1cffc:	31333434 292b2d2f 1c202326 0d111519     4431/-+)&# .....
   1d00c:	fd010509 ebf0f4f8 dbdfe3e7 cdd1d4d8     ................
   1d01c:	c3c5c8ca bcbebfc1 b5b7b9ba b1b2b3b4     ................
   1d02c:	b1b0b0b0 b2b2b2b1 b1b1b2b2 b3b1b1b1     ................
   1d03c:	bab8b6b4 c0bfbdbc c5c4c3c2 cdcac8c6     ................
   1d04c:	d9d6d3d0 e0dfdddb e6e4e3e2 edebe9e7     ................
   1d05c:	f5f3f1ef faf9f7f6 fefdfcfa 03020100     ................
   1d06c:	07070605 0a0a0908 0b0a0a0a 0d0c0c0b     ................
   1d07c:	100f0f0e 13121111 17161514 1b1a1918     ................
   1d08c:	1d1d1c1b 20201f1d 21212120 24232322     ......   !!!"##$
   1d09c:	25252525 26262525 26262626 22232425     %%%%%%&&&&&&%$#"
   1d0ac:	20212222 1b1d1e20 1617191a 12121214     ""!  ...........
   1d0bc:	13121111 1d1a1815 2625221f 2b2a2928     ........."%&()*+
   1d0cc:	26282a2b 1a1e2124 0d101317 0305080a     +*(&$!..........
   1d0dc:	feff0002 00fffefe 05040201 0e0c0907     ................
   1d0ec:	18161311 211f1d1a 27262423 2a2a2928     .......!#$&'()**
   1d0fc:	28292a2a 22242527 181b1d1f 0c0f1215     **)('%$"........
   1d10c:	ff020509 f1f4f8fb e3e7eaed d8dadde0     ................
   1d11c:	ced0d3d5 c8c9cbcc c2c4c5c6 bebfc0c1     ................
   1d12c:	bdbdbdbe bebebdbd bebebebe bfbebebe     ................
   1d13c:	c3c2c0bf c8c7c6c4 cdcccbca d2d1cfce     ................
   1d14c:	dad8d6d4 e1dfdedc e6e5e4e2 ebeae8e7     ................
   1d15c:	f1f0eeec f6f5f4f2 faf9f8f7 fefdfcfb     ................
   1d16c:	020100ff 05040403 06060605 09080707     ................
   1d17c:	0b0b0a0a 0e0d0d0c 11100f0f 14131312     ................
   1d18c:	16161514 19181817 1a1a1919 1c1b1b1b     ................
   1d19c:	1d1d1d1d 1e1e1e1e 1f1f1f1e 1e1e1f1f     ................
   1d1ac:	1d1d1d1e 1b1b1c1d 1819191a 15161617     ................
   1d1bc:	14141414 18171615 1d1b1a19 201f1f1d     ............... 
   1d1cc:	1f1f2020 191b1c1e 12131517 0b0c0e10       ..............
   1d1dc:	0707080a 06060606 07070606 0b0a0908     ................
   1d1ec:	0f0e0d0c 13121110 16161514 18181717     ................
   1d1fc:	17171818 14151616 0f101113 080a0b0d     ................
   1d20c:	01020406 f9fbfdff f1f3f5f7 eaecedef     ................
   1d21c:	e4e5e7e8 e0e1e2e3 dcdddedf d9dadbdb     ................
   1d22c:	d7d8d8d9 d7d7d7d7 d7d7d7d7 d7d7d7d7     ................
   1d23c:	d8d8d7d7 dbdadad9 dddddcdc dfdfdede     ................
   1d24c:	e3e2e1e0 e7e6e5e4 eae9e9e8 edecebeb     ................
   1d25c:	f0efeeed f3f2f1f1 f5f5f4f3 f7f7f6f6     ................
   1d26c:	faf9f9f8 fcfbfbfa fdfdfcfc fefefefd     ................
   1d27c:	00ffffff 02010100 03030302 06050504     ................
   1d28c:	07070606 09090808 0a0a0a09 0c0b0b0a     ................
   1d29c:	0d0d0d0c 0e0e0e0d 0f0f0f0e 0f0f0f0f     ................
   1d2ac:	0f0f0f0f 0f0f0f0f 0e0e0e0e 0d0d0d0e     ................
   1d2bc:	0c0c0c0c 0e0d0c0c 10100f0e 13121211     ................
   1d2cc:	14141413 12121313 0e0f1011 0b0c0c0d     ................
   1d2dc:	0809090a 07070708 08070707 09090808     ................
   1d2ec:	0b0b0a0a 0e0d0c0c 0f0f0f0e 11101010     ................
   1d2fc:	11111111 0f101010 0d0e0e0f 0a0a0b0c     ................
   1d30c:	06070809 02030405 feff0001 fafbfcfd     ................
   1d31c:	f6f7f8f9 f3f4f5f5 f1f2f2f3 eff0f0f1     ................
   1d32c:	eeeeefef edeeeeee edededed edededed     ................
   1d33c:	edededed eeeeeded efefeeee f0f0efef     ................
   1d34c:	f1f1f0f0 f3f3f2f2 f4f4f4f3 f6f5f5f5     ................
   1d35c:	f7f6f6f6 f8f8f8f7 f9f9f9f9 fafafafa     ................
   1d36c:	fcfbfbfb fdfdfcfc fdfdfdfd fefefefe     ................
   1d37c:	fffefefe 00ffffff 00000000 01010101     ................
   1d38c:	02020202 03030303 04040303 05040404     ................
   1d39c:	05050505 06060505 06060606 06060606     ................
   1d3ac:	06060606 06060606 05050606 05050505     ................
   1d3bc:	04040404 04040404 06050505 07060606     ................
   1d3cc:	07070707 07070707 05050606 03030404     ................
   1d3dc:	01010202 00000101 00000000 01000000     ................
   1d3ec:	02010101 03020202 04030303 04040404     ................
   1d3fc:	04040404 04040404 03030304 01010202     ................
   1d40c:	ff000001 fdfdfefe fbfbfcfc f9f9fafa     ................
   1d41c:	f7f7f8f8 f5f6f6f6 f4f4f5f5 f3f3f4f4     ................
   1d42c:	f2f2f3f3 f2f2f2f2 f2f2f2f2 f2f2f2f2     ................
   1d43c:	f2f2f2f2 f2f2f2f2 f3f3f3f3 f4f4f3f3     ................
   1d44c:	f5f4f4f4 f6f5f5f5 f7f6f6f6 f8f7f7f7     ................
   1d45c:	f8f8f8f8 f9f9f9f9 fafafafa fbfbfbfb     ................
   1d46c:	fcfcfcfb fdfdfdfc fefefdfd fefefefe     ................
   1d47c:	fffffffe 00ffffff 00000000 01010101     ................
   1d48c:	02020201 03030202 03030303 04040404     ................
   1d49c:	05040404 05050505 06050505 06060606     ................
   1d4ac:	06060606 06060606 06060606 06060606     ................
   1d4bc:	06060606 06060606 07060606 08070707     ................
   1d4cc:	08080808 08080808 07070808 06060707     ................
   1d4dc:	05050606 05050505 04040404 04040404     ................
   1d4ec:	05050505 05050505 06060605 06060606     ................
   1d4fc:	06060606 06060606 05060606 04050505     ................
   1d50c:	03040404 02030303 01010202 00000001     ................
   1d51c:	ffffff00 fefefefe fdfdfdfe fcfcfdfd     ................
   1d52c:	fcfcfcfc fbfbfcfc fbfbfbfb fbfbfbfb     ................
   1d53c:	fbfbfbfb fbfbfbfb fbfbfbfb fbfbfbfb     ................
   1d54c:	fbfbfbfb fcfcfcfb fcfcfcfc fdfcfcfc     ................
   1d55c:	fdfdfdfd fdfdfdfd fefefefd fefefefe     ................
   1d56c:	fefefefe fffffffe ffffffff ffffffff     ................
   1d57c:	ffffffff 00000000 00000000 00000000     ................
   1d58c:	01010101 01010101 01010101 02020202     ................
   1d59c:	02020202 02020202 02020202 03030202     ................
   1d5ac:	03030303 03030303 03030303 02020303     ................
   1d5bc:	02020202 02020202 02020202 03020202     ................
   1d5cc:	03030303 03030303 03030303 02020202     ................
   1d5dc:	01020202 01010101 01010101 01010101     ................
   1d5ec:	01010101 01010101 01010101 01010101     ................
   1d5fc:	01010101 01010101 01010101 00000101     ................
   1d60c:	00000000 ffffff00 feffffff fefefefe     ................
   1d61c:	fdfdfdfe fdfdfdfd fcfcfcfc fcfcfcfc     ................
   1d62c:	fbfbfbfc fbfbfbfb fbfbfbfb fbfbfbfb     ................
   1d63c:	fbfbfbfb fbfbfbfb fbfbfbfb fbfbfbfb     ................
   1d64c:	fbfbfbfb fbfbfbfb fbfbfbfb fcfcfbfb     ................
   1d65c:	fcfcfcfc fcfcfcfc fcfcfcfc fdfdfcfc     ................
   1d66c:	fdfdfdfd fdfdfdfd fdfdfdfd fefdfdfd     ................
   1d67c:	fefefefd fefefefe fefefefe fefefefe     ................
   1d68c:	ffffffff ffffffff ffffffff ffffffff     ................
   1d69c:	0000ff00 00000000 00000000 00000000     ................
	...

0001d6b8 <data_vib>:
   1d6b8:	0e0a0602 1f1b1713 26252422 26272727     ........"$%&'''&
   1d6c8:	21232425 1b1c1e1f 16171819 16151515     %$#!............
   1d6d8:	1a181817 1f1d1c1b 25232220 2f2c2927     ........ "#%'),/
   1d6e8:	3d393532 504c4742 64605b55 726f6c68     259=BGLPU[`dhlor
   1d6f8:	7d7b7875 7f7f7f7e 7b7d7e7f 72757779     ux{}~....~}{ywur
   1d708:	6a6c6e70 5e616467 5053575b 3d42474b     pnljgda^[WSPKGB=
   1d718:	2c303439 22242629 1e1f1f20 1c1c1d1e     940,)&$" .......
   1d728:	201e1d1d 24232221 26262625 26262626     ... !"#$%&&&&&&&
   1d738:	26262626 22242425 1b1d1f21 0d111518     &&&&%$$"!.......
   1d748:	f9fe0308 e4e9eef4 d0d5dadf bec2c7cb     ................
   1d758:	afb2b6ba a8a9abad a1a3a5a6 9d9e9e9f     ................
   1d768:	9f9e9d9d a7a5a3a0 b1aeaca9 bbb9b6b4     ................
   1d778:	c0bfbebd c0c0c0c0 bebfc0c0 b7b9bbbd     ................
   1d788:	b0b2b4b6 abacadae a4a6a8a9 9a9d9fa1     ................
   1d798:	96969799 97969695 a19e9b99 b1aca8a5     ................
   1d7a8:	c6c1bcb6 d8d3cfca ede8e3de fefaf6f2     ................

0001d7b8 <soundWaves>:
   1d7b8:	00000100 0001ecac 00007530 00000100     ........0u......
   1d7c8:	0001ebac 00007530 00000100 0001eaac     ....0u..........
   1d7d8:	00007530 00000100 0001e9ac 00007530     0u..........0u..
   1d7e8:	00000100 0001e8ac 00007530 00000100     ........0u......
   1d7f8:	0001e7ac 00007530 00000100 0001e6ac     ....0u..........
   1d808:	00007530 00000100 0001e5ac 00007530     0u..........0u..
   1d818:	00000100 0001e4ac 00007530 00000100     ........0u......
   1d828:	0001e3ac 00007530 00000100 0001d6b8     ....0u..........
   1d838:	00000100 00001eba 0001b7fc 00007530     ............0u..
   1d848:	0000809f 0001375c 00007530 000089ec     ....\7..0u......
   1d858:	00008b2a 000087ca 00008830 00008872     *.......0...r...
   1d868:	000089b4 00008c70 00008bd6 00008c3c     ....p.......<...
   1d878:	00008c06 00008c32 00008630 000086b2     ....2...0.......
   1d888:	000098ba 00009296 00009892 00009296     ................
   1d898:	00009296 00009296 00009296 00009296     ................
   1d8a8:	00009296 00009296 00009296 00009296     ................
   1d8b8:	00009296 00009296 00009296 00009296     ................
   1d8c8:	00009296 00009296 00009296 00009296     ................
   1d8d8:	00009296 00009296 00009296 00009296     ................
   1d8e8:	00009296 00009296 00009296 00009296     ................
   1d8f8:	00009296 00009296 00009296 00009296     ................
   1d908:	00009296 00009296 00009296 00009296     ................
   1d918:	00009296 00009296 00009296 00009296     ................
   1d928:	00009296 00009296 00009296 00009296     ................
   1d938:	00009296 00009296 00009296 00009296     ................
   1d948:	00009296 00009296 00009296 00009296     ................
   1d958:	00009296 00009296 00009788 00009296     ................
   1d968:	00009296 0000976e 00009296 00009296     ....n...........
   1d978:	00009758 00009744 00009296 00009296     X...D...........
   1d988:	00009296 000096b4 00009296 00009296     ................
   1d998:	00009296 00009296 00009296 00009296     ................
   1d9a8:	0000969c 00009296 00009296 00009296     ................
   1d9b8:	0000964c                                L...

0001d9bc <tetrisText>:
   1d9bc:	48000000 7c002454 7c502c00 407c4000     ...HT$.|.,P|.@|@
   1d9cc:	7c544400 407c4000 00000000              .DT|.@|@....

0001d9d8 <tetrominos>:
   1d9d8:	05050505 00000000 06060104 00000006     ................
   1d9e8:	02030006 00020202 00000002 03030203     ................
   1d9f8:	03030000 02020000 00040400 00000404     ................
   1da08:	07070203 07000007 02030000 00000101     ................
   1da18:	00010100 00000203                       ........

0001da20 <tetrisModes>:
   1da20:	656e694c 00000073 00000000 00000000     Lines...........
	...
   1da40:	656d6954 00000064 00000000 00000000     Timed...........
	...
   1da60:	65657246 6d616720 00000065 00000000     Free game.......
	...

0001da80 <tetrisSoundModes>:
   1da80:	6973754d 202b2063 00005846 00000000     Music + FX......
	...
   1daa0:	6973754d 6e4f2063 0000796c 00000000     Music Only......
	...
   1dac0:	6f205846 00796c6e 00000000 00000000     FX only.........
	...
   1dae0:	656e6f4e 00000000 00000000 00000000     None............
	...

0001db00 <tetrisDifficultyModes>:
   1db00:	79736145 00000000 00000000 00000000     Easy............
	...
   1db20:	6d726f4e 00006c61 00000000 00000000     Normal..........
	...
   1db40:	66666944 6c756369 00000074 00000000     Difficult.......
	...
   1db60:	72657355 2d6e4920 656d6147 65705320     User In-Game Spe
   1db70:	00006465 00000000 00000000 00000000     ed..............
   1db80:	7478654e 0000003a 676f7250 73736572     Next:...Progress
   1db90:	0000003a 65657053 25203a64 00000064     :...Speed: %d...
   1dba0:	726f6353 25203a65 756c3530 00000000     Score: %05lu....
   1dbb0:	68676948 3025203a 00756c35 6576654c     High: %05lu.Leve
   1dbc0:	25203a6c 00753230 656e694c 25203a73     l: %02u.Lines: %
   1dbd0:	2f753430 00007525 656e694c 25203a73     04u/%u..Lines: %
   1dbe0:	00753430 656d6954 3025203a 3a756c32     04u.Time: %02lu:
   1dbf0:	6c323025 30252e75 00756c31 00736579     %02lu.%01lu.yes.
   1dc00:	00206f6e 7669616e 00000065 6c616572     no .naive...real
   1dc10:	69747369 00002063 776f6853 6f686720     istic ..Show gho
   1dc20:	203a7473 00007325 76617247 3a797469     st: %s..Gravity:
   1dc30:	00732520 656d6147 746f6e20 61747320      %s.Game not sta
   1dc40:	64657472 00000000 656d6147 75617020     rted....Game pau
   1dc50:	2e646573 00000000 73657250 2f6d2073     sed.....Press m/
   1dc60:	72617473 6f742074 74657220 206e7275     start to return 
   1dc70:	67206f74 21656d61 00000000 656d6147     to game!....Game
   1dc80:	65766f20 00002172 656c6553 3c207463      over!..Select <
   1dc90:	2077656e 656d6167 6f74203e 61747320     new game> to sta
   1dca0:	00007472 65646f4d 253c203a 00003e73     rt..Mode: <%s>..
   1dcb0:	67206e49 20656d61 6e756f53 203a7364     In game Sounds: 
   1dcc0:	3e73253c 00000000 66666944 6c756369     <%s>....Difficul
   1dcd0:	203a7974 3e73253c 00000000 72617453     ty: <%s>....Star
   1dce0:	654e2074 61472077 0000656d 65736552     t New Game..Rese
   1dcf0:	6f432074 6c6f736e 6f742065 6d614720     t Console to Gam
   1dd00:	6f4c2065 72656461 00000000 666e6f43     e Loader....Conf
   1dd10:	206d7269 72617453 654e2074 61472077     irm Start New Ga
   1dd20:	003f656d 00216f4e 21736559 00000000     me?.No!.Yes!....
   1dd30:	666e6f43 206d7269 65736552 6f432074     Confirm Reset Co
   1dd40:	6c6f736e 6f742065 6d614720 6f4c2065     nsole to Game Lo
   1dd50:	72656461 0000003f 67617453 64252065     ader?...Stage %d
   1dd60:	656c6320 20217261 73657250 6e612073      clear! Press an
   1dd70:	656b2079 00002179 454d4147 45564f20     y key!..GAME OVE
   1dd80:	28202152 656d6974 2974756f 00000000     R! (timeout)....
   1dd90:	454d4147 45564f20 00002152 65727028     GAME OVER!..(pre
   1dda0:	61207373 6b20796e 74207965 7473206f     ss any key to st
   1ddb0:	20747261 656e2061 61672077 0029656d     art a new game).

0001ddc0 <tetrisBlocks_paletteIndexTable>:
   1ddc0:	26262608 09262626 1d1d1c07 081c1e1e     .&&&&&&.........
   1ddd0:	2e032d0a 0c2d2e2e 2d2d2d11 112d2e2e     .-....-..---..-.
   1dde0:	0000000e 11000000 1212120e 0e121212     ................
   1ddf0:	1a1a1607 08161a1a 00000002 0a000000     ................
   1de00:	00000002 0a000000 32000002 0a000032     ...........22...
   1de10:	06003202 0a320006 00060603 0a060600     .2....2.........
   1de20:	05060606 06060605 05050506 06050505     ................
   1de30:	05050305 05030505 2222220b 0e222222     ........."""""".
   1de40:	2a2a2826 26282a2a 1a1a2a1e 2a2a1a1a     &(****(&.*....**
   1de50:	0d0d311d 2a310d0d 30302e25 252e3030     .1....1*%.0000.%
   1de60:	20211518 12152120 16151612 2a161516     ..!  !.........*
   1de70:	21201e19 211e2021 05050505 05050505     .. !! .!........

0001de80 <tetrisBlocks_palettes>:
   1de80:	024c0248 82cb82ca c28582cb 82cb82cb     H.L.............
   1de90:	0248024c c2c9c284 c284c2c9 c2cfc2ca     L.H.............
   1dea0:	c2cfc2cd c2cec2ce c2cfc2ce c2cec2cf     ................
   1deb0:	c2cfc2cf c2cbc2cf c2cac2cf c2cdc2cf     ................
   1dec0:	024c0248 0248024c 02c74286 42cfc2c7     H.L.L.H..B.....B
   1ded0:	c2cec2c9 c2cec2ce c2cbc2ce 42cf42cf     .............B.B
   1dee0:	02000200 02008282 028302c7 c2c9c2ce     ................
   1def0:	024c0200 02480200 02488282 c2840248     ..L...H...H.H...
   1df00:	02000248 82820248 8282024c 0248c284     H...H...L.....H.
   1df10:	c2c9c284 c284c2c9 c2c9c2c9 c2cbc2c9     ................
   1df20:	42430286 02860286 828e828e c243828e     ..CB..........C.
   1df30:	4206024e 024e024e 42434243 c243c243     N..BN.N.CBCBC.C.
   1df40:	42064206 42864286 c2cbc2c9 c2cbc2cb     .B.B.B.B........
   1df50:	c2c9c2cb c2cbc2ce c2cec2ce 02834286     .............B..
   1df60:	02450282 028a0282 424d8282 82828282     ..E.......MB....
   1df70:	02830283 82498249 028a028a c283028a     ....I.I.........
   1df80:	82ca82ca 02824242 0245c283 02834286     ....BB....E..B..
   1df90:	c24dc24d 8249c24d 424d424d c28582ca     M.M.M.I.MBMB....
   1dfa0:	02840284 82828244 8249828a 828a828a     ....D.....I.....
   1dfb0:	c28582ca c28b82cb 82cb82cb 82cb82ce     ................
   1dfc0:	02844284 42844284 c285c285 c28bc28b     .B...B.B........
   1dfd0:	424c424c 828ac24d 82448244 82828285     LBLBM...D.D.....
   1dfe0:	c2008282 c2828282 82448282 82448244     ..........D.D.D.
   1dff0:	82858284 c2008244 c2458244 82828285     ....D...D.E.....
   1e000:	82858285 c2458285 8285c282 c245c245     ......E.....E.E.
   1e010:	8282c245 c28ec28e c28e828e c243c28e     E.............C.
   1e020:	82428242 024d8242 02458283 82848284     B.B.B.M...E.....
   1e030:	424c8284 c2828285 0245024a c28e828e     ..LB....J.E.....
   1e040:	82cf82cf 8283c242 424a424a c243c28e     ....B...JBJB..C.
   1e050:	c2cfc2cf 82cfc2cf 024a0242 8283424a     ........B.J.JB..
   1e060:	024d0242 024a0242 c2428283 028e0286     B.M.B.J...B.....
   1e070:	4243028e 028e028e c242c242 42424242     ..CB....B.B.BBBB
   1e080:	424d4242 8283424a 428e428e 428f428f     BBMBJB...B.B.B.B
   1e090:	428e428f c2428242 02420242 8282c242     .B.BB.B.B.B.B...
   1e0a0:	c2428242 c2838282 82828282 02420242     B.B.........B.B.
   1e0b0:	024d8283 82858284 424c8285 82c682c6     ..M.......LB....
   1e0c0:	c28382c6 024d024d 024dc242 424cc282     ....M.M.B.M...LB
   1e0d0:	8282c242 c283c283 424dc283 82c6c2c7     B.........MB....
   1e0e0:	02410241 424c0241 02020202 024a0202     A.A.A.LB......J.
   1e0f0:	028f8287 82878287 424e024e 028f028f     ........N.NB....
   1e100:	42414241 424c4241 420a420a 8282424c     ABABABLB.B.BLB..
   1e110:	4206424e 424e424e 8283024a 024a420a     NB.BNBNBJ....BJ.
   1e120:	424a0242 024a8283 02028283 82828244     B.JB..J.....D...
   1e130:	02450245 424d0245 024d0245 024a024a     E.E.E.MBE.M.J.J.
   1e140:	8283024a 424a024a 0202024a c200c200     J...J.JBJ.......
   1e150:	8244c200 024a420a 8282424a 8283424a     ..D..BJ.JB..JB..
   1e160:	02c502c5 028402c5 02c702c7 028302c7     ................
   1e170:	8282028c 02cd02cd 028c4241 0284c282     ........AB......
   1e180:	02c54284 02c74286 42c742c7 42cd42cd     .B...B...B.B.B.B
   1e190:	02cd42cd 42c742cf 42cf42cf 02840284     .B...B.B.B.B....
   1e1a0:	02820282 02410284 02840284 8282028a     ......A.........
   1e1b0:	c282028c 028c028c 02844241 0241c282     ........AB....A.
   1e1c0:	028a4242 0282c283 c2cdc284 c2cfc2c9     BB..............
   1e1d0:	c284c2cd c2cfc2ce c2cbc2cf c2c9c2cf     ................

0001e1e0 <tetrisBlocks_data>:
   1e1e0:	cdd6cddd c756c556 c746c746 ccc8cdd6     ....V.V.F.F.....
   1e1f0:	cddbcddd 8ef78ff7 4ac34ac3 eee8cddb     .........J.J....
   1e200:	766df999 3ae9eb76 3ad93ad9 ccc7766d     ..mvv..:.:.:mv..
   1e210:	544ccddd 59fc5ffc 15c815c8 444c544c     ..LT._.Y....LTLD
   1e220:	2331f888 29c12cc1 29b129b1 eee32331     ..1#.,.).).)1#..
   1e230:	233ddccc 2b6d267d 2b5d2b5d 555d233d     ..=#}&m+]+]+=#]U
   1e240:	fddefeee b8c7bcc7 b8d7b8d7 fffbfdde     ................
   1e250:	dccae111 dccadcca dccadcca bbbddcca     ................
   1e260:	dccae111 d7eadcca dccad7ea bbbddcca     ................
   1e270:	dccae111 eacdd8fa d8faeacd bbbddcca     ................
   1e280:	ebfde111 f7b3d56a d56af7b3 bbbdebfd     ....j.....j.....
   1e290:	fcd3a8f9 5406f7b3 f7b35406 bacdfcd3     .......T.T......
   1e2a0:	c7bdfcd3 be8fc59d c59dbe8f fcd3e7bd     ................
   1e2b0:	b9cfc7bd 9e8cb8ef b8ef9e8c c7bdb9cf     ................
   1e2c0:	5cd4b9cf 4e84a8ec a8ec4e84 b9cf5cd4     ...\...N.N...\..
   1e2d0:	edd1efff ed71e7f1 ed81ed81 eee2edd1     ......q.........
   1e2e0:	6f97faae af9d29fd 29fdaf9d 322e6f97     ...o.).....).o.2
   1e2f0:	e7100ee9 6fae2afe 2afe6fae 644ee710     .....*.o.o.*..Nd
   1e300:	74dccbb3 4badeabd e5bd4bad 544e74dc     ...t...K.K...tNT
   1e310:	4f76dccf 9cdefdce fdce9cde 544f4f76     ..vO........vOOT
   1e320:	3ce8cbbd e9adf659 f659e9ad cccf3ce8     ...<Y.....Y..<..
   1e330:	c326eee1 5c834c52 4f325c93 cbb3c326     ..&.RL.\.\2O&...
   1e340:	f62d544d e561ca95 ca95e561 ddd3f62d     MT-...a.a...-...
   1e350:	e458844e 4e8458e4 58e44e84 844ee458     N.X..X.N.N.XX.N.

0001e360 <silenceValue>:
   1e360:	00000000                                ....

0001e364 <patchCommands>:
   1e364:	000098ed 000098f1 00009aa1 00009af5     ................
   1e374:	00009b71 000098f5 00009901 0000990d     q...............
   1e384:	00009bed 00009911 00009915 00009919     ................
   1e394:	000099a9 000099ad 000099b1 000099e9     ................
   1e3a4:	00009a3d 00009a9d                       =.......

0001e3ac <squareWave50Filtered>:
   1e3ac:	443d311f 5654534e 69645f5a 7976746e     .1=DNSTVZ_dintvy
   1e3bc:	7f7f7f7c 7f7f7f7f 7f7f7f7f 7f7f7f7f     |...............
   1e3cc:	7f7f7f7f 7f7f7f7f 7f7f7f7f 7f7f7f7f     ................
   1e3dc:	7f7f7f7f 7f7f7f7f 7f7f7f7f 7f7f7f7f     ................
   1e3ec:	7f7f7f7f 7f7f7f7f 7f7f7f7f 7f7f7f7f     ................
   1e3fc:	7f7f7f7f 7f7f7f7f 7f7f7f7f 7f7f7f7f     ................
   1e40c:	7f7f7f7f 7f7f7f7f 7f7f7f7f 7f7f7f7f     ................
   1e41c:	7f7f7f7f 7f7f7f7f 7c7f7f7f 4c687178     ...........|xqhL
   1e42c:	0c121c2c 050a0b0a dfe9f3fd b7c0cad4     ,...............
   1e43c:	979ea6ae 85868b91 80808082 80808080     ................
   1e44c:	80808080 80808080 80808080 80808080     ................
   1e45c:	80808080 80808080 80808080 80808080     ................
   1e46c:	80808080 80808080 80808080 80808080     ................
   1e47c:	80808080 80808080 80808080 80808080     ................
   1e48c:	80808080 80808080 80808080 80808080     ................
   1e49c:	80808080 9d918780 d4cbc4ac fafaf2dd     ................

0001e4ac <sineDistoWave3>:
   1e4ac:	f5f9f8f9 dedde1eb e5e4e2e0 e2e4e5e6     ................
   1e4bc:	cad2d9de a2acb7c1 868a9199 80808183     ................
   1e4cc:	85838281 8c8a8886 92908f8d 97969593     ................
   1e4dc:	9b9a9998 9d9d9c9b 9e9e9e9d 9f9f9f9f     ................
   1e4ec:	9e9f9f9f 9d9d9e9e 9b9b9c9d 9798999a     ................
   1e4fc:	92939596 8c8d8f90 8586888a 80818283     ................
   1e50c:	86838180 a299918a cac1b7ac e2ded9d2     ................
   1e51c:	e5e6e5e4 dee0e2e4 f5ebe1dd 00f9f8f9     ................
   1e52c:	0b070807 22231f15 1b1c1e20 1e1c1b1a     ......#" .......
   1e53c:	362e2722 5e54493f 7a766f67 7f7f7f7e     "'.6?IT^govz~...
   1e54c:	7b7d7e7f 7476787a 6e707173 696a6b6d     .~}{zxvtsqpnmkji
   1e55c:	65666768 63646465 62626263 61616161     hgfeeddccbbbaaaa
   1e56c:	62616161 63636262 65656463 69686766     aaabbbcccdeefghi
   1e57c:	6e6d6b6a 74737170 7b7a7876 7f7f7e7d     jkmnpqstvxz{}~..
   1e58c:	7a7e7f7f 5e676f76 363f4954 1e22272e     ..~zvog^TI?6.'".
   1e59c:	1b1a1b1c 22201e1c 0b151f23 00070807     ...... "#.......

0001e5ac <sineDistoWave2>:
   1e5ac:	423d2800 2b2c2d30 2f2e2d2c 35333230     .(=B0-,+,-./0235
   1e5bc:	3d3b3937 4543413f 4e4c4a48 57555350     79;=?ACEHJLNPSUW
   1e5cc:	5f5d5b59 67656361 6e6c6b69 74737170     Y[]_acegiklnpqst
   1e5dc:	79787775 7d7c7b7a 7f7e7e7d 7f7f7f7f     uwxyz{|}}~~.....
   1e5ec:	7f7f7f7f 7e7e7f7f 7b7c7d7d 7778797a     ......~~}}|{zyxw
   1e5fc:	71737475 6b6c6e70 63656769 5b5d5f61     utsqpnlkigeca_][
   1e60c:	53555759 4a4c4e50 41434548 393b3d3f     YWUSPNLJHECA?=;9
   1e61c:	32333537 2d2e2f30 2d2c2b2c 283d4230     75320/.-,+,-0B=(
   1e62c:	fee5e900 d7d7d7d4 d0d2d4d6 c8caccce     ................
   1e63c:	bfc1c3c6 b6b8babd adafb1b4 a5a7a9ab     ................
   1e64c:	9e9fa1a3 97999a9c 91939495 8c8d8f90     ................
   1e65c:	88898a8b 85868788 84848485 83838383     ................
   1e66c:	83838383 84848483 87868585 8a898888     ................
   1e67c:	8f8d8c8b 94939190 9a999795 a19f9e9c     ................
   1e68c:	a9a7a5a3 b1afadab bab8b6b4 c3c1bfbd     ................
   1e69c:	cccac8c6 d4d2d0ce d7d7d7d6 e9e5fed4     ................

0001e6ac <sineDistoWave1>:
   1e6ac:	1e130903 403a3128 54504c46 615e5b58     ....(1:@FLPTX[^a
   1e6bc:	69676563 6f6e6c6b 73727170 77767574     cegiklnopqrstuvw
   1e6cc:	79797877 7b7b7a7a 7d7c7c7c 7e7e7d7d     wxyyzz{{|||}}}~~
   1e6dc:	7f7f7e7e 7f7f7f7f 7f7f7f7f 7f7f7f7f     ~~..............
   1e6ec:	7f7f7f7f 7f7f7f7f 7f7f7f7f 7e7e7e7f     .............~~~
   1e6fc:	7d7d7d7e 7b7c7c7c 797a7a7b 77777879     ~}}}|||{{zzyyxww
   1e70c:	73747576 6f707172 696b6c6e 61636567     vutsrqponlkigeca
   1e71c:	54585b5e 40464c50 1e28313a 00030913     ^[XTPLF@:1(.....
   1e72c:	dbd5ccc6 e7e5e3df ecebeae9 efefeeed     ................
   1e73c:	f1f0f0f0 f2f1f1f1 f2f2f2f2 f3f2f2f2     ................
   1e74c:	f3f3f3f3 f3f3f3f3 f3f3f3f3 f3f3f3f3     ................
   1e75c:	f3f3f3f3 f3f3f3f3 f3f3f3f3 f3f3f3f3     ................
   1e76c:	f3f3f3f3 f3f3f3f3 f3f3f3f3 f3f3f3f3     ................
   1e77c:	f3f3f3f3 f3f3f3f3 f3f3f3f3 f3f3f3f3     ................
   1e78c:	f2f2f2f2 f2f2f2f2 f1f1f1f1 eff0f0f0     ................
   1e79c:	ecedeeef e7e9eaeb dbdfe3e5 00c6ccd5     ................

0001e7ac <squareWave75>:
   1e7ac:	7f7f7f7f 7f7f7f7f 7f7f7f7f 7f7f7f7f     ................
   1e7bc:	7f7f7f7f 7f7f7f7f 7f7f7f7f 7f7f7f7f     ................
   1e7cc:	7f7f7f7f 7f7f7f7f 7f7f7f7f 7f7f7f7f     ................
   1e7dc:	7f7f7f7f 7f7f7f7f 7f7f7f7f 7f7f7f7f     ................
   1e7ec:	7f7f7f7f 7f7f7f7f 7f7f7f7f 7f7f7f7f     ................
   1e7fc:	7f7f7f7f 7f7f7f7f 7f7f7f7f 7f7f7f7f     ................
   1e80c:	7f7f7f7f 7f7f7f7f 7f7f7f7f 7f7f7f7f     ................
   1e81c:	7f7f7f7f 7f7f7f7f 7f7f7f7f 7f7f7f7f     ................
   1e82c:	7f7f7f7f 7f7f7f7f 7f7f7f7f 7f7f7f7f     ................
   1e83c:	7f7f7f7f 7f7f7f7f 7f7f7f7f 7f7f7f7f     ................
   1e84c:	7f7f7f7f 7f7f7f7f 7f7f7f7f 7f7f7f7f     ................
   1e85c:	7f7f7f7f 7f7f7f7f 7f7f7f7f 7f7f7f7f     ................
   1e86c:	80808080 80808080 80808080 80808080     ................
   1e87c:	80808080 80808080 80808080 80808080     ................
   1e88c:	80808080 80808080 80808080 80808080     ................
   1e89c:	80808080 80808080 80808080 80808080     ................

0001e8ac <squareWave50>:
   1e8ac:	7f7f7f7f 7f7f7f7f 7f7f7f7f 7f7f7f7f     ................
   1e8bc:	7f7f7f7f 7f7f7f7f 7f7f7f7f 7f7f7f7f     ................
   1e8cc:	7f7f7f7f 7f7f7f7f 7f7f7f7f 7f7f7f7f     ................
   1e8dc:	7f7f7f7f 7f7f7f7f 7f7f7f7f 7f7f7f7f     ................
   1e8ec:	7f7f7f7f 7f7f7f7f 7f7f7f7f 7f7f7f7f     ................
   1e8fc:	7f7f7f7f 7f7f7f7f 7f7f7f7f 7f7f7f7f     ................
   1e90c:	7f7f7f7f 7f7f7f7f 7f7f7f7f 7f7f7f7f     ................
   1e91c:	7f7f7f7f 7f7f7f7f 7f7f7f7f 7f7f7f7f     ................
   1e92c:	80808080 80808080 80808080 80808080     ................
   1e93c:	80808080 80808080 80808080 80808080     ................
   1e94c:	80808080 80808080 80808080 80808080     ................
   1e95c:	80808080 80808080 80808080 80808080     ................
   1e96c:	80808080 80808080 80808080 80808080     ................
   1e97c:	80808080 80808080 80808080 80808080     ................
   1e98c:	80808080 80808080 80808080 80808080     ................
   1e99c:	80808080 80808080 80808080 80808080     ................

0001e9ac <squareWave25>:
   1e9ac:	7f7f7f7f 7f7f7f7f 7f7f7f7f 7f7f7f7f     ................
   1e9bc:	7f7f7f7f 7f7f7f7f 7f7f7f7f 7f7f7f7f     ................
   1e9cc:	7f7f7f7f 7f7f7f7f 7f7f7f7f 7f7f7f7f     ................
   1e9dc:	7f7f7f7f 7f7f7f7f 7f7f7f7f 7f7f7f7f     ................
   1e9ec:	80808080 80808080 80808080 80808080     ................
   1e9fc:	80808080 80808080 80808080 80808080     ................
   1ea0c:	80808080 80808080 80808080 80808080     ................
   1ea1c:	80808080 80808080 80808080 80808080     ................
   1ea2c:	80808080 80808080 80808080 80808080     ................
   1ea3c:	80808080 80808080 80808080 80808080     ................
   1ea4c:	80808080 80808080 80808080 80808080     ................
   1ea5c:	80808080 80808080 80808080 80808080     ................
   1ea6c:	80808080 80808080 80808080 80808080     ................
   1ea7c:	80808080 80808080 80808080 80808080     ................
   1ea8c:	80808080 80808080 80808080 80808080     ................
   1ea9c:	80808080 80808080 80808080 80808080     ................

0001eaac <triangleWave>:
   1eaac:	06040200 0e0c0a08 16141210 1e1c1a18     ................
   1eabc:	26242220 2e2c2a28 36343230 3e3c3a38      "$&(*,.02468:<>
   1eacc:	46444240 4e4c4a48 56545250 5e5c5a58     @BDFHJLNPRTVXZ\^
   1eadc:	66646260 6e6c6a68 76747270 7e7c7a78     `bdfhjlnprtvxz|~
   1eaec:	797b7d7f 71737577 696b6d6f 61636567     .}{ywusqomkigeca
   1eafc:	595b5d5f 51535557 494b4d4f 41434547     _][YWUSQOMKIGECA
   1eb0c:	393b3d3f 31333537 292b2d2f 21232527     ?=;97531/-+)'%#!
   1eb1c:	191b1d1f 11131517 090b0d0f 01030507     ................
   1eb2c:	f9fbfdff f1f3f5f7 e9ebedef e1e3e5e7     ................
   1eb3c:	d9dbdddf d1d3d5d7 c9cbcdcf c1c3c5c7     ................
   1eb4c:	b9bbbdbf b1b3b5b7 a9abadaf a1a3a5a7     ................
   1eb5c:	999b9d9f 91939597 898b8d8f 81838587     ................
   1eb6c:	86848280 8e8c8a88 96949290 9e9c9a98     ................
   1eb7c:	a6a4a2a0 aeacaaa8 b6b4b2b0 bebcbab8     ................
   1eb8c:	c6c4c2c0 cecccac8 d6d4d2d0 dedcdad8     ................
   1eb9c:	e6e4e2e0 eeeceae8 f6f4f2f0 fefcfaf8     ................

0001ebac <sawToothWave>:
   1ebac:	83828180 87868584 8b8a8988 8f8e8d8c     ................
   1ebbc:	93929190 97969594 9b9a9998 9f9e9d9c     ................
   1ebcc:	a3a2a1a0 a7a6a5a4 abaaa9a8 afaeadac     ................
   1ebdc:	b3b2b1b0 b7b6b5b4 bbbab9b8 bfbebdbc     ................
   1ebec:	c3c2c1c0 c7c6c5c4 cbcac9c8 cfcecdcc     ................
   1ebfc:	d3d2d1d0 d7d6d5d4 dbdad9d8 dfdedddc     ................
   1ec0c:	e3e2e1e0 e7e6e5e4 ebeae9e8 efeeedec     ................
   1ec1c:	f3f2f1f0 f7f6f5f4 fbfaf9f8 fffefdfc     ................
   1ec2c:	03020100 07060504 0b0a0908 0f0e0d0c     ................
   1ec3c:	13121110 17161514 1b1a1918 1f1e1d1c     ................
   1ec4c:	23222120 27262524 2b2a2928 2f2e2d2c      !"#$%&'()*+,-./
   1ec5c:	33323130 37363534 3b3a3938 3f3e3d3c     0123456789:;<=>?
   1ec6c:	43424140 47464544 4b4a4948 4f4e4d4c     @ABCDEFGHIJKLMNO
   1ec7c:	53525150 57565554 5b5a5958 5f5e5d5c     PQRSTUVWXYZ[\]^_
   1ec8c:	63626160 67666564 6b6a6968 6f6e6d6c     `abcdefghijklmno
   1ec9c:	73727170 77767574 7b7a7978 7f7e7d7c     pqrstuvwxyz{|}~.

0001ecac <sineWave>:
   1ecac:	09060300 1613100c 221f1c19 2e2b2825     ..........."%(+.
   1ecbc:	39363331 44413f3c 4e4c4947 58555351     1369<?ADGILNQSUX
   1eccc:	605e5c5a 68666462 6f6d6b6a 74737170     Z\^`bdfhjkmopqst
   1ecdc:	79787675 7c7b7a7a 7e7e7d7d 7f7f7f7e     uvxyzz{|}}~~~...
   1ecec:	7f7f7f7f 7d7e7e7e 7a7b7c7d 7678797a     ....~~~}}|{zzyxv
   1ecfc:	71737475 6b6d6f70 6466686a 5c5e6062     utsqpomkjhfdb`^\
   1ed0c:	5355585a 494c4e51 3f414447 3336393c     ZXUSQNLIGDA?<963
   1ed1c:	282b2e31 1c1f2225 10131619 0306090c     1.+(%"..........
   1ed2c:	f7fafd00 eaedf0f4 dee1e4e7 d2d5d8db     ................
   1ed3c:	c7cacdcf bcbfc1c4 b2b4b7b9 a8abadaf     ................
   1ed4c:	a0a2a4a6 989a9c9e 91939596 8c8d8f90     ................
   1ed5c:	87888a8b 84858686 82828383 81818182     ................
   1ed6c:	81818181 83828282 86858483 8a888786     ................
   1ed7c:	8f8d8c8b 95939190 9c9a9896 a4a2a09e     ................
   1ed8c:	adaba8a6 b7b4b2af c1bfbcb9 cdcac7c4     ................
   1ed9c:	d8d5d2cf e4e1dedb f0edeae7 fdfaf7f4     ................

0001edac <font8x8_basic>:
	...
   1eeb4:	183c3c18 00180018 00003636 00000000     .<<.....66......
   1eec4:	367f3636 0036367f 1e033e0c 000c1f30     66.6.66..>..0...
   1eed4:	18336300 0063660c 6e1c361c 006e333b     .c3..fc..6.n;3n.
   1eee4:	00030606 00000000 06060c18 00180c06     ................
   1eef4:	18180c06 00060c18 ff3c6600 0000663c     .........f<.<f..
   1ef04:	3f0c0c00 00000c0c 00000000 060c0c00     ...?............
   1ef14:	3f000000 00000000 00000000 000c0c00     ...?............
   1ef24:	0c183060 00010306 7b73633e 003e676f     `0......>cs{og>.
   1ef34:	0c0c0e0c 003f0c0c 1c30331e 003f3306     ......?..30..3?.
   1ef44:	1c30331e 001e3330 33363c38 0078307f     .30.03..8<63.0x.
   1ef54:	301f033f 001e3330 1f03061c 001e3333     ?..003......33..
   1ef64:	1830333f 000c0c0c 1e33331e 001e3333     ?30......33.33..
   1ef74:	3e33331e 000e1830 000c0c00 000c0c00     .33>0...........
   1ef84:	000c0c00 060c0c00 03060c18 00180c06     ................
   1ef94:	003f0000 00003f00 30180c06 00060c18     ..?..?.....0....
   1efa4:	1830331e 000c000c 7b7b633e 001e037b     .30.....>c{{{...
   1efb4:	33331e0c 0033333f 3e66663f 003f6666     ..33?33.?ff>ff?.
   1efc4:	0303663c 003c6603 6666361f 001f3666     <f...f<..6fff6..
   1efd4:	1e16467f 007f4616 1e16467f 000f0616     .F...F...F......
   1efe4:	0303663c 007c6673 3f333333 00333333     <f..sf|.333?333.
   1eff4:	0c0c0c1e 001e0c0c 30303078 001e3333     ........x00033..
   1f004:	1e366667 00676636 0606060f 007f6646     gf6.6fg.....Ff..
   1f014:	7f7f7763 0063636b 7b6f6763 00636373     cw..kcc.cgo{scc.
   1f024:	6363361c 001c3663 3e66663f 000f0606     .6ccc6..?ff>....
   1f034:	3333331e 00381e3b 3e66663f 00676636     .333;.8.?ff>6fg.
   1f044:	0e07331e 001e3338 0c0c2d3f 001e0c0c     .3..83..?-......
   1f054:	33333333 003f3333 33333333 000c1e33     333333?.33333...
   1f064:	6b636363 0063777f 1c366363 0063361c     ccck.wc.cc6..6c.
   1f074:	1e333333 001e0c0c 1831637f 007f664c     333......c1.Lf..
   1f084:	0606061e 001e0606 180c0603 00406030     ............0`@.
   1f094:	1818181e 001e1818 63361c08 00000000     ..........6c....
   1f0a4:	00000000 ff000000 00180c0c 00000000     ................
   1f0b4:	301e0000 006e333e 3e060607 003b6666     ...0>3n....>ff;.
   1f0c4:	331e0000 001e3303 3e303038 006e3333     ...3.3..800>33n.
   1f0d4:	331e0000 001e033f 0f06361c 000f0606     ...3?....6......
   1f0e4:	336e0000 1f303e33 6e360607 00676666     ..n33>0...6nffg.
   1f0f4:	0c0e000c 001e0c0c 30300030 1e333330     ........0.00033.
   1f104:	36660607 0067361e 0c0c0c0e 001e0c0c     ..f6.6g.........
   1f114:	7f330000 00636b7f 331f0000 00333333     ..3..kc....3333.
   1f124:	331e0000 001e3333 663b0000 0f063e66     ...333....;ff>..
   1f134:	336e0000 78303e33 6e3b0000 000f0666     ..n33>0x..;nf...
   1f144:	033e0000 001f301e 0c3e0c08 00182c0c     ..>..0....>..,..
   1f154:	33330000 006e3333 33330000 000c1e33     ..3333n...333...
   1f164:	6b630000 00367f7f 36630000 0063361c     ..ck..6...c6.6c.
   1f174:	33330000 1f303e33 193f0000 003f260c     ..333>0...?..&?.
   1f184:	070c0c38 00380c0c 00181818 00181818     8.....8.........
   1f194:	380c0c07 00070c0c 00003b6e 00000000     ...8....n;......
   1f1a4:	55aa55aa 55aa55aa 0000ab24 0000aae2     .U.U.U.U$.......
   1f1b4:	0000aae2 0000ab1c 0000aae2 0000aae2     ................
   1f1c4:	0000aae2 0000aae2 0000aae2 0000aae2     ................
   1f1d4:	0000aae2 0000ab14 0000aae2 0000ab0c     ................
   1f1e4:	0000aae2 0000aae2 0000aacc 0000ade2     ................
   1f1f4:	0000abc8 0000add6 0000abc8 0000adc4     ................
   1f204:	0000abc8 0000abc8 0000abc8 0000abc8     ................
   1f214:	0000abc8 0000abc8 0000abc8 0000ab2c     ............,...
   1f224:	0000abc8 0000abc8 0000abc8 0000abc8     ................
   1f234:	0000abc8 0000ab2c 0000ada2 0000aa90     ....,...........
   1f244:	0000aa90 0000aa90 0000aa90 0000aa90     ................
   1f254:	0000aa90 0000aa90 0000aa90 0000aa90     ................
   1f264:	0000aa90 0000aa90 0000aa90 0000aa90     ................
   1f274:	0000aa90 0000aa90 0000aa90 0000aa90     ................
   1f284:	0000aa90 0000aa90 0000aa90 0000aa90     ................
   1f294:	0000aa90 0000aa90 0000aa90 0000aa90     ................
   1f2a4:	0000aa90 0000aa90 0000aa90 0000aa90     ................
   1f2b4:	0000aa90 0000aa90 0000aa90 0000aa90     ................
   1f2c4:	0000aa90 0000aa90 0000aa90 0000aa90     ................
   1f2d4:	0000aa90 0000aa90 0000aa90 0000aa90     ................
   1f2e4:	0000aa90 0000aa90 0000aa90 0000aa90     ................
   1f2f4:	0000aa90 0000aa90 0000aa90 0000aa90     ................
   1f304:	0000aa90 0000ad1a 0000aa90 0000aa90     ................
   1f314:	0000aa90 0000aa90 0000aa90 0000aa90     ................
   1f324:	0000aa90 0000aa90 0000aa90 0000ad1a     ................
   1f334:	0000acc2 0000ad1a 0000aa90 0000aa90     ................
   1f344:	0000aa90 0000aa90 0000ad1a 0000aa90     ................
   1f354:	0000aa90 0000aa90 0000aa90 0000aa90     ................
   1f364:	0000ad1a 0000ac94 0000aa90 0000aa90     ................
   1f374:	0000abe2 0000aa90 0000ad1a 0000aa90     ................
   1f384:	0000aa90 0000ad1a                       ........

0001f38c <stepTable>:
   1f38c:	00130012 00150014 00180017 001b0019     ................
   1f39c:	001e001c 00220020 00260024 002a0028     .... .".$.&.(.*.
   1f3ac:	0030002d 00360033 003c0039 00430040     -.0.3.6.9.<.@.C.
   1f3bc:	004c0047 00550050 005f005a 006b0065     G.L.P.U.Z._.e.k.
   1f3cc:	00780071 0087007f 0097008f 00aa00a0     q.x.............
   1f3dc:	00bf00b4 00d600ca 00f000e3 010e00ff     ................
   1f3ec:	012f011e 01540141 017d0168 01ac0194     ../.A.T.h.}.....
   1f3fc:	01e101c6 021b01fd 025e023c 02a80282     ........<.^.....
   1f40c:	02fb02d0 03580328 03c1038b 043703fa     ....(.X.......7.
   1f41c:	04bb0477 054f0503 05f605a0 06b10651     w.....O.....Q...
   1f42c:	07820716 086e07f5 097608ee 0a9f0a06     ......n...v.....
   1f43c:	0bec0b40 0d610ca1 0f050e2d 10dc0fe9     @.....a.-.......
   1f44c:	12ec11dc 153d140c 17d71681 1ac31942     ......=.....B...
   1f45c:	1e0a1c5a 21b71fd3 25d823b8 2a7b2818     Z......!.#.%.({*
   1f46c:	2fae2d01 35853284 3c1338b4 436e3fa6     .-./.2.5.8.<.?nC
   1f47c:	4bb04771 54f55031 5f5d5a03 6b0a6508     qG.K1P.T.Z]_.e.k

0001f48c <contextSpecificFunctionVector>:
   1f48c:	0000b129 0000b109 0000b751              ).......Q...

0001f498 <functionVector>:
   1f498:	00000000                                ....

0001f49c <USB_device_Installers>:
   1f49c:	0000b3c9 0000b419 00000000              ............

0001f4a8 <one2twoBits>:
   1f4a8:	00010000 00050004 00110010 00150014     ................
   1f4b8:	00410040 00450044 00510050 00550054     @.A.D.E.P.Q.T.U.
   1f4c8:	01010100 01050104 01110110 01150114     ................
   1f4d8:	01410140 01450144 01510150 01550154     @.A.D.E.P.Q.T.U.
   1f4e8:	04010400 04050404 04110410 04150414     ................
   1f4f8:	04410440 04450444 04510450 04550454     @.A.D.E.P.Q.T.U.
   1f508:	05010500 05050504 05110510 05150514     ................
   1f518:	05410540 05450544 05510550 05550554     @.A.D.E.P.Q.T.U.
   1f528:	10011000 10051004 10111010 10151014     ................
   1f538:	10411040 10451044 10511050 10551054     @.A.D.E.P.Q.T.U.
   1f548:	11011100 11051104 11111110 11151114     ................
   1f558:	11411140 11451144 11511150 11551154     @.A.D.E.P.Q.T.U.
   1f568:	14011400 14051404 14111410 14151414     ................
   1f578:	14411440 14451444 14511450 14551454     @.A.D.E.P.Q.T.U.
   1f588:	15011500 15051504 15111510 15151514     ................
   1f598:	15411540 15451544 15511550 15551554     @.A.D.E.P.Q.T.U.
   1f5a8:	40014000 40054004 40114010 40154014     .@.@.@.@.@.@.@.@
   1f5b8:	40414040 40454044 40514050 40554054     @@A@D@E@P@Q@T@U@
   1f5c8:	41014100 41054104 41114110 41154114     .A.A.A.A.A.A.A.A
   1f5d8:	41414140 41454144 41514150 41554154     @AAADAEAPAQATAUA
   1f5e8:	44014400 44054404 44114410 44154414     .D.D.D.D.D.D.D.D
   1f5f8:	44414440 44454444 44514450 44554454     @DADDDEDPDQDTDUD
   1f608:	45014500 45054504 45114510 45154514     .E.E.E.E.E.E.E.E
   1f618:	45414540 45454544 45514550 45554554     @EAEDEEEPEQETEUE
   1f628:	50015000 50055004 50115010 50155014     .P.P.P.P.P.P.P.P
   1f638:	50415040 50455044 50515050 50555054     @PAPDPEPPPQPTPUP
   1f648:	51015100 51055104 51115110 51155114     .Q.Q.Q.Q.Q.Q.Q.Q
   1f658:	51415140 51455144 51515150 51555154     @QAQDQEQPQQQTQUQ
   1f668:	54015400 54055404 54115410 54155414     .T.T.T.T.T.T.T.T
   1f678:	54415440 54455444 54515450 54555454     @TATDTETPTQTTTUT
   1f688:	55015500 55055504 55115510 55155514     .U.U.U.U.U.U.U.U
   1f698:	55415540 55455544 55515550 55555554     @UAUDUEUPUQUTUUU

0001f6a8 <_global_impure_ptr>:
   1f6a8:	200001e8                                ... 

0001f6ac <_init>:
   1f6ac:	b5f8      	push	{r3, r4, r5, r6, r7, lr}
   1f6ae:	46c0      	nop			; (mov r8, r8)
   1f6b0:	bcf8      	pop	{r3, r4, r5, r6, r7}
   1f6b2:	bc08      	pop	{r3}
   1f6b4:	469e      	mov	lr, r3
   1f6b6:	4770      	bx	lr

0001f6b8 <__init_array_start>:
   1f6b8:	0000be6d 	.word	0x0000be6d

0001f6bc <__frame_dummy_init_array_entry>:
   1f6bc:	000060dd                                .`..

0001f6c0 <_fini>:
   1f6c0:	b5f8      	push	{r3, r4, r5, r6, r7, lr}
   1f6c2:	46c0      	nop			; (mov r8, r8)
   1f6c4:	bcf8      	pop	{r3, r4, r5, r6, r7}
   1f6c6:	bc08      	pop	{r3}
   1f6c8:	469e      	mov	lr, r3
   1f6ca:	4770      	bx	lr

0001f6cc <__fini_array_start>:
   1f6cc:	000060b5 	.word	0x000060b5
